
Lab1.axf:     file format elf32-littlearm


Disassembly of section .isr_vector:

08000000 <g_pfnVectors>:
 8000000:	20002800 	andcs	r2, r0, r0, lsl #16
 8000004:	080009bd 	stmdaeq	r0, {r0, r2, r3, r4, r5, r7, r8, fp}
 8000008:	08000a0d 	stmdaeq	r0, {r0, r2, r3, r9, fp}
 800000c:	08000a0d 	stmdaeq	r0, {r0, r2, r3, r9, fp}
 8000010:	08000a0d 	stmdaeq	r0, {r0, r2, r3, r9, fp}
 8000014:	08000a0d 	stmdaeq	r0, {r0, r2, r3, r9, fp}
 8000018:	08000a0d 	stmdaeq	r0, {r0, r2, r3, r9, fp}
	...
 800002c:	08000a0d 	stmdaeq	r0, {r0, r2, r3, r9, fp}
 8000030:	08000a0d 	stmdaeq	r0, {r0, r2, r3, r9, fp}
 8000034:	00000000 	andeq	r0, r0, r0
 8000038:	08000a0d 	stmdaeq	r0, {r0, r2, r3, r9, fp}
 800003c:	08000a0d 	stmdaeq	r0, {r0, r2, r3, r9, fp}
 8000040:	08000a0d 	stmdaeq	r0, {r0, r2, r3, r9, fp}
 8000044:	08000a0d 	stmdaeq	r0, {r0, r2, r3, r9, fp}
 8000048:	08000a0d 	stmdaeq	r0, {r0, r2, r3, r9, fp}
 800004c:	08000a0d 	stmdaeq	r0, {r0, r2, r3, r9, fp}
 8000050:	08000a0d 	stmdaeq	r0, {r0, r2, r3, r9, fp}
 8000054:	08000a0d 	stmdaeq	r0, {r0, r2, r3, r9, fp}
 8000058:	080004fd 	stmdaeq	r0, {r0, r2, r3, r4, r5, r6, r7, sl}
 800005c:	08000521 	stmdaeq	r0, {r0, r5, r8, sl}
 8000060:	08000545 	stmdaeq	r0, {r0, r2, r6, r8, sl}
 8000064:	08000569 	stmdaeq	r0, {r0, r3, r5, r6, r8, sl}
 8000068:	0800058d 	stmdaeq	r0, {r0, r2, r3, r7, r8, sl}
 800006c:	08000a0d 	stmdaeq	r0, {r0, r2, r3, r9, fp}
 8000070:	08000a0d 	stmdaeq	r0, {r0, r2, r3, r9, fp}
 8000074:	08000a0d 	stmdaeq	r0, {r0, r2, r3, r9, fp}
 8000078:	08000a0d 	stmdaeq	r0, {r0, r2, r3, r9, fp}
 800007c:	08000a0d 	stmdaeq	r0, {r0, r2, r3, r9, fp}
 8000080:	08000a0d 	stmdaeq	r0, {r0, r2, r3, r9, fp}
 8000084:	08000a0d 	stmdaeq	r0, {r0, r2, r3, r9, fp}
 8000088:	08000a0d 	stmdaeq	r0, {r0, r2, r3, r9, fp}
 800008c:	08000a0d 	stmdaeq	r0, {r0, r2, r3, r9, fp}
 8000090:	08000a0d 	stmdaeq	r0, {r0, r2, r3, r9, fp}
 8000094:	08000a0d 	stmdaeq	r0, {r0, r2, r3, r9, fp}
 8000098:	08000a0d 	stmdaeq	r0, {r0, r2, r3, r9, fp}
 800009c:	080005b1 	stmdaeq	r0, {r0, r4, r5, r7, r8, sl}
 80000a0:	08000a0d 	stmdaeq	r0, {r0, r2, r3, r9, fp}
 80000a4:	08000a0d 	stmdaeq	r0, {r0, r2, r3, r9, fp}
 80000a8:	08000a0d 	stmdaeq	r0, {r0, r2, r3, r9, fp}
 80000ac:	08000a0d 	stmdaeq	r0, {r0, r2, r3, r9, fp}
 80000b0:	08000a0d 	stmdaeq	r0, {r0, r2, r3, r9, fp}
 80000b4:	08000a0d 	stmdaeq	r0, {r0, r2, r3, r9, fp}
 80000b8:	08000a0d 	stmdaeq	r0, {r0, r2, r3, r9, fp}
 80000bc:	08000a0d 	stmdaeq	r0, {r0, r2, r3, r9, fp}
 80000c0:	08000a0d 	stmdaeq	r0, {r0, r2, r3, r9, fp}
 80000c4:	08000a0d 	stmdaeq	r0, {r0, r2, r3, r9, fp}
 80000c8:	08000a0d 	stmdaeq	r0, {r0, r2, r3, r9, fp}
 80000cc:	08000a0d 	stmdaeq	r0, {r0, r2, r3, r9, fp}
 80000d0:	08000a0d 	stmdaeq	r0, {r0, r2, r3, r9, fp}
 80000d4:	08000a0d 	stmdaeq	r0, {r0, r2, r3, r9, fp}
 80000d8:	08000a0d 	stmdaeq	r0, {r0, r2, r3, r9, fp}
 80000dc:	08000a0d 	stmdaeq	r0, {r0, r2, r3, r9, fp}
 80000e0:	0800066d 	stmdaeq	r0, {r0, r2, r3, r5, r6, r9, sl}
 80000e4:	08000a0d 	stmdaeq	r0, {r0, r2, r3, r9, fp}
 80000e8:	00000000 	andeq	r0, r0, r0
 80000ec:	08000a0d 	stmdaeq	r0, {r0, r2, r3, r9, fp}
 80000f0:	08000a0d 	stmdaeq	r0, {r0, r2, r3, r9, fp}
 80000f4:	08000a0d 	stmdaeq	r0, {r0, r2, r3, r9, fp}
 80000f8:	08000a0d 	stmdaeq	r0, {r0, r2, r3, r9, fp}
 80000fc:	08000a0d 	stmdaeq	r0, {r0, r2, r3, r9, fp}
 8000100:	08000a0d 	stmdaeq	r0, {r0, r2, r3, r9, fp}
 8000104:	08000a0d 	stmdaeq	r0, {r0, r2, r3, r9, fp}
 8000108:	08000a0d 	stmdaeq	r0, {r0, r2, r3, r9, fp}
 800010c:	08000a0d 	stmdaeq	r0, {r0, r2, r3, r9, fp}
 8000110:	08000a0d 	stmdaeq	r0, {r0, r2, r3, r9, fp}
 8000114:	08000a0d 	stmdaeq	r0, {r0, r2, r3, r9, fp}
 8000118:	08000a0d 	stmdaeq	r0, {r0, r2, r3, r9, fp}
 800011c:	08000a0d 	stmdaeq	r0, {r0, r2, r3, r9, fp}
 8000120:	08000a0d 	stmdaeq	r0, {r0, r2, r3, r9, fp}
 8000124:	08000a0d 	stmdaeq	r0, {r0, r2, r3, r9, fp}
 8000128:	08000a0d 	stmdaeq	r0, {r0, r2, r3, r9, fp}
 800012c:	08000a0d 	stmdaeq	r0, {r0, r2, r3, r9, fp}

Disassembly of section .text:

08000130 <__do_global_dtors_aux>:
 8000130:	b510      	push	{r4, lr}
 8000132:	4c05      	ldr	r4, [pc, #20]	; (8000148 <__do_global_dtors_aux+0x18>)
 8000134:	7823      	ldrb	r3, [r4, #0]
 8000136:	b933      	cbnz	r3, 8000146 <__do_global_dtors_aux+0x16>
 8000138:	4b04      	ldr	r3, [pc, #16]	; (800014c <__do_global_dtors_aux+0x1c>)
 800013a:	b113      	cbz	r3, 8000142 <__do_global_dtors_aux+0x12>
 800013c:	4804      	ldr	r0, [pc, #16]	; (8000150 <__do_global_dtors_aux+0x20>)
 800013e:	f3af 8000 	nop.w
 8000142:	2301      	movs	r3, #1
 8000144:	7023      	strb	r3, [r4, #0]
 8000146:	bd10      	pop	{r4, pc}
 8000148:	20000000 	andcs	r0, r0, r0
 800014c:	00000000 	andeq	r0, r0, r0
 8000150:	08000a58 	stmdaeq	r0, {r3, r4, r6, r9, fp}

08000154 <frame_dummy>:
 8000154:	b508      	push	{r3, lr}
 8000156:	4b03      	ldr	r3, [pc, #12]	; (8000164 <frame_dummy+0x10>)
 8000158:	b11b      	cbz	r3, 8000162 <frame_dummy+0xe>
 800015a:	4903      	ldr	r1, [pc, #12]	; (8000168 <frame_dummy+0x14>)
 800015c:	4803      	ldr	r0, [pc, #12]	; (800016c <frame_dummy+0x18>)
 800015e:	f3af 8000 	nop.w
 8000162:	bd08      	pop	{r3, pc}
 8000164:	00000000 	andeq	r0, r0, r0
 8000168:	20000004 	andcs	r0, r0, r4
 800016c:	08000a58 	stmdaeq	r0, {r3, r4, r6, r9, fp}

08000170 <Enable_NVIC>:
 8000170:	b480      	push	{r7}
 8000172:	b083      	sub	sp, #12
 8000174:	af00      	add	r7, sp, #0
 8000176:	4603      	mov	r3, r0
 8000178:	80fb      	strh	r3, [r7, #6]
 800017a:	88fb      	ldrh	r3, [r7, #6]
 800017c:	2b0f      	cmp	r3, #15
 800017e:	d854      	bhi.n	800022a <Enable_NVIC+0xba>
 8000180:	a201      	add	r2, pc, #4	; (adr r2, 8000188 <Enable_NVIC+0x18>)
 8000182:	f852 f023 	ldr.w	pc, [r2, r3, lsl #2]
 8000186:	bf00      	nop
 8000188:	080001c9 	stmdaeq	r0, {r0, r3, r6, r7, r8}
 800018c:	080001d7 	stmdaeq	r0, {r0, r1, r2, r4, r6, r7, r8}
 8000190:	080001e5 	stmdaeq	r0, {r0, r2, r5, r6, r7, r8}
 8000194:	080001f3 	stmdaeq	r0, {r0, r1, r4, r5, r6, r7, r8}
 8000198:	08000201 	stmdaeq	r0, {r0, r9}
 800019c:	0800020f 	stmdaeq	r0, {r0, r1, r2, r3, r9}
 80001a0:	0800020f 	stmdaeq	r0, {r0, r1, r2, r3, r9}
 80001a4:	0800020f 	stmdaeq	r0, {r0, r1, r2, r3, r9}
 80001a8:	0800020f 	stmdaeq	r0, {r0, r1, r2, r3, r9}
 80001ac:	0800020f 	stmdaeq	r0, {r0, r1, r2, r3, r9}
 80001b0:	0800020f 	stmdaeq	r0, {r0, r1, r2, r3, r9}
 80001b4:	0800021d 	stmdaeq	r0, {r0, r2, r3, r4, r9}
 80001b8:	0800021d 	stmdaeq	r0, {r0, r2, r3, r4, r9}
 80001bc:	0800021d 	stmdaeq	r0, {r0, r2, r3, r4, r9}
 80001c0:	0800021d 	stmdaeq	r0, {r0, r2, r3, r4, r9}
 80001c4:	0800021d 	stmdaeq	r0, {r0, r2, r3, r4, r9}
 80001c8:	4b1a      	ldr	r3, [pc, #104]	; (8000234 <Enable_NVIC+0xc4>)
 80001ca:	681b      	ldr	r3, [r3, #0]
 80001cc:	4a19      	ldr	r2, [pc, #100]	; (8000234 <Enable_NVIC+0xc4>)
 80001ce:	f043 0340 	orr.w	r3, r3, #64	; 0x40
 80001d2:	6013      	str	r3, [r2, #0]
 80001d4:	e029      	b.n	800022a <Enable_NVIC+0xba>
 80001d6:	4b17      	ldr	r3, [pc, #92]	; (8000234 <Enable_NVIC+0xc4>)
 80001d8:	681b      	ldr	r3, [r3, #0]
 80001da:	4a16      	ldr	r2, [pc, #88]	; (8000234 <Enable_NVIC+0xc4>)
 80001dc:	f043 0380 	orr.w	r3, r3, #128	; 0x80
 80001e0:	6013      	str	r3, [r2, #0]
 80001e2:	e022      	b.n	800022a <Enable_NVIC+0xba>
 80001e4:	4b13      	ldr	r3, [pc, #76]	; (8000234 <Enable_NVIC+0xc4>)
 80001e6:	681b      	ldr	r3, [r3, #0]
 80001e8:	4a12      	ldr	r2, [pc, #72]	; (8000234 <Enable_NVIC+0xc4>)
 80001ea:	f443 7380 	orr.w	r3, r3, #256	; 0x100
 80001ee:	6013      	str	r3, [r2, #0]
 80001f0:	e01b      	b.n	800022a <Enable_NVIC+0xba>
 80001f2:	4b10      	ldr	r3, [pc, #64]	; (8000234 <Enable_NVIC+0xc4>)
 80001f4:	681b      	ldr	r3, [r3, #0]
 80001f6:	4a0f      	ldr	r2, [pc, #60]	; (8000234 <Enable_NVIC+0xc4>)
 80001f8:	f443 7300 	orr.w	r3, r3, #512	; 0x200
 80001fc:	6013      	str	r3, [r2, #0]
 80001fe:	e014      	b.n	800022a <Enable_NVIC+0xba>
 8000200:	4b0c      	ldr	r3, [pc, #48]	; (8000234 <Enable_NVIC+0xc4>)
 8000202:	681b      	ldr	r3, [r3, #0]
 8000204:	4a0b      	ldr	r2, [pc, #44]	; (8000234 <Enable_NVIC+0xc4>)
 8000206:	f443 6380 	orr.w	r3, r3, #1024	; 0x400
 800020a:	6013      	str	r3, [r2, #0]
 800020c:	e00d      	b.n	800022a <Enable_NVIC+0xba>
 800020e:	4b09      	ldr	r3, [pc, #36]	; (8000234 <Enable_NVIC+0xc4>)
 8000210:	681b      	ldr	r3, [r3, #0]
 8000212:	4a08      	ldr	r2, [pc, #32]	; (8000234 <Enable_NVIC+0xc4>)
 8000214:	f443 0300 	orr.w	r3, r3, #8388608	; 0x800000
 8000218:	6013      	str	r3, [r2, #0]
 800021a:	e006      	b.n	800022a <Enable_NVIC+0xba>
 800021c:	4b06      	ldr	r3, [pc, #24]	; (8000238 <Enable_NVIC+0xc8>)
 800021e:	681b      	ldr	r3, [r3, #0]
 8000220:	4a05      	ldr	r2, [pc, #20]	; (8000238 <Enable_NVIC+0xc8>)
 8000222:	f443 7380 	orr.w	r3, r3, #256	; 0x100
 8000226:	6013      	str	r3, [r2, #0]
 8000228:	bf00      	nop
 800022a:	bf00      	nop
 800022c:	370c      	adds	r7, #12
 800022e:	46bd      	mov	sp, r7
 8000230:	bc80      	pop	{r7}
 8000232:	4770      	bx	lr
 8000234:	e000e100 	and	lr, r0, r0, lsl #2
 8000238:	e000e110 	and	lr, r0, r0, lsl r1

0800023c <Disable_NVIC>:
 800023c:	b480      	push	{r7}
 800023e:	b083      	sub	sp, #12
 8000240:	af00      	add	r7, sp, #0
 8000242:	4603      	mov	r3, r0
 8000244:	80fb      	strh	r3, [r7, #6]
 8000246:	88fb      	ldrh	r3, [r7, #6]
 8000248:	2b0f      	cmp	r3, #15
 800024a:	d854      	bhi.n	80002f6 <Disable_NVIC+0xba>
 800024c:	a201      	add	r2, pc, #4	; (adr r2, 8000254 <Disable_NVIC+0x18>)
 800024e:	f852 f023 	ldr.w	pc, [r2, r3, lsl #2]
 8000252:	bf00      	nop
 8000254:	08000295 	stmdaeq	r0, {r0, r2, r4, r7, r9}
 8000258:	080002a3 	stmdaeq	r0, {r0, r1, r5, r7, r9}
 800025c:	080002b1 	stmdaeq	r0, {r0, r4, r5, r7, r9}
 8000260:	080002bf 	stmdaeq	r0, {r0, r1, r2, r3, r4, r5, r7, r9}
 8000264:	080002cd 	stmdaeq	r0, {r0, r2, r3, r6, r7, r9}
 8000268:	080002db 	stmdaeq	r0, {r0, r1, r3, r4, r6, r7, r9}
 800026c:	080002db 	stmdaeq	r0, {r0, r1, r3, r4, r6, r7, r9}
 8000270:	080002db 	stmdaeq	r0, {r0, r1, r3, r4, r6, r7, r9}
 8000274:	080002db 	stmdaeq	r0, {r0, r1, r3, r4, r6, r7, r9}
 8000278:	080002db 	stmdaeq	r0, {r0, r1, r3, r4, r6, r7, r9}
 800027c:	080002db 	stmdaeq	r0, {r0, r1, r3, r4, r6, r7, r9}
 8000280:	080002e9 	stmdaeq	r0, {r0, r3, r5, r6, r7, r9}
 8000284:	080002e9 	stmdaeq	r0, {r0, r3, r5, r6, r7, r9}
 8000288:	080002e9 	stmdaeq	r0, {r0, r3, r5, r6, r7, r9}
 800028c:	080002e9 	stmdaeq	r0, {r0, r3, r5, r6, r7, r9}
 8000290:	080002e9 	stmdaeq	r0, {r0, r3, r5, r6, r7, r9}
 8000294:	4b1a      	ldr	r3, [pc, #104]	; (8000300 <Disable_NVIC+0xc4>)
 8000296:	681b      	ldr	r3, [r3, #0]
 8000298:	4a19      	ldr	r2, [pc, #100]	; (8000300 <Disable_NVIC+0xc4>)
 800029a:	f043 0340 	orr.w	r3, r3, #64	; 0x40
 800029e:	6013      	str	r3, [r2, #0]
 80002a0:	e029      	b.n	80002f6 <Disable_NVIC+0xba>
 80002a2:	4b17      	ldr	r3, [pc, #92]	; (8000300 <Disable_NVIC+0xc4>)
 80002a4:	681b      	ldr	r3, [r3, #0]
 80002a6:	4a16      	ldr	r2, [pc, #88]	; (8000300 <Disable_NVIC+0xc4>)
 80002a8:	f043 0380 	orr.w	r3, r3, #128	; 0x80
 80002ac:	6013      	str	r3, [r2, #0]
 80002ae:	e022      	b.n	80002f6 <Disable_NVIC+0xba>
 80002b0:	4b13      	ldr	r3, [pc, #76]	; (8000300 <Disable_NVIC+0xc4>)
 80002b2:	681b      	ldr	r3, [r3, #0]
 80002b4:	4a12      	ldr	r2, [pc, #72]	; (8000300 <Disable_NVIC+0xc4>)
 80002b6:	f443 7380 	orr.w	r3, r3, #256	; 0x100
 80002ba:	6013      	str	r3, [r2, #0]
 80002bc:	e01b      	b.n	80002f6 <Disable_NVIC+0xba>
 80002be:	4b10      	ldr	r3, [pc, #64]	; (8000300 <Disable_NVIC+0xc4>)
 80002c0:	681b      	ldr	r3, [r3, #0]
 80002c2:	4a0f      	ldr	r2, [pc, #60]	; (8000300 <Disable_NVIC+0xc4>)
 80002c4:	f443 7300 	orr.w	r3, r3, #512	; 0x200
 80002c8:	6013      	str	r3, [r2, #0]
 80002ca:	e014      	b.n	80002f6 <Disable_NVIC+0xba>
 80002cc:	4b0c      	ldr	r3, [pc, #48]	; (8000300 <Disable_NVIC+0xc4>)
 80002ce:	681b      	ldr	r3, [r3, #0]
 80002d0:	4a0b      	ldr	r2, [pc, #44]	; (8000300 <Disable_NVIC+0xc4>)
 80002d2:	f443 6380 	orr.w	r3, r3, #1024	; 0x400
 80002d6:	6013      	str	r3, [r2, #0]
 80002d8:	e00d      	b.n	80002f6 <Disable_NVIC+0xba>
 80002da:	4b09      	ldr	r3, [pc, #36]	; (8000300 <Disable_NVIC+0xc4>)
 80002dc:	681b      	ldr	r3, [r3, #0]
 80002de:	4a08      	ldr	r2, [pc, #32]	; (8000300 <Disable_NVIC+0xc4>)
 80002e0:	f443 0300 	orr.w	r3, r3, #8388608	; 0x800000
 80002e4:	6013      	str	r3, [r2, #0]
 80002e6:	e006      	b.n	80002f6 <Disable_NVIC+0xba>
 80002e8:	4b06      	ldr	r3, [pc, #24]	; (8000304 <Disable_NVIC+0xc8>)
 80002ea:	681b      	ldr	r3, [r3, #0]
 80002ec:	4a05      	ldr	r2, [pc, #20]	; (8000304 <Disable_NVIC+0xc8>)
 80002ee:	f443 7380 	orr.w	r3, r3, #256	; 0x100
 80002f2:	6013      	str	r3, [r2, #0]
 80002f4:	bf00      	nop
 80002f6:	bf00      	nop
 80002f8:	370c      	adds	r7, #12
 80002fa:	46bd      	mov	sp, r7
 80002fc:	bc80      	pop	{r7}
 80002fe:	4770      	bx	lr
 8000300:	e000e300 	and	lr, r0, r0, lsl #6
 8000304:	e000e310 	and	lr, r0, r0, lsl r3

08000308 <Update_EXTI>:
 8000308:	b580      	push	{r7, lr}
 800030a:	b084      	sub	sp, #16
 800030c:	af00      	add	r7, sp, #0
 800030e:	6078      	str	r0, [r7, #4]
 8000310:	2301      	movs	r3, #1
 8000312:	72bb      	strb	r3, [r7, #10]
 8000314:	687b      	ldr	r3, [r7, #4]
 8000316:	7a1b      	ldrb	r3, [r3, #8]
 8000318:	b29b      	uxth	r3, r3
 800031a:	813b      	strh	r3, [r7, #8]
 800031c:	687b      	ldr	r3, [r7, #4]
 800031e:	685b      	ldr	r3, [r3, #4]
 8000320:	f107 0208 	add.w	r2, r7, #8
 8000324:	4611      	mov	r1, r2
 8000326:	4618      	mov	r0, r3
 8000328:	f000 fa71 	bl	800080e <MCAL_GPIO_INIT>
 800032c:	687b      	ldr	r3, [r7, #4]
 800032e:	781b      	ldrb	r3, [r3, #0]
 8000330:	089b      	lsrs	r3, r3, #2
 8000332:	73fb      	strb	r3, [r7, #15]
 8000334:	687b      	ldr	r3, [r7, #4]
 8000336:	781b      	ldrb	r3, [r3, #0]
 8000338:	f003 0303 	and.w	r3, r3, #3
 800033c:	b2db      	uxtb	r3, r3
 800033e:	009b      	lsls	r3, r3, #2
 8000340:	73bb      	strb	r3, [r7, #14]
 8000342:	4a61      	ldr	r2, [pc, #388]	; (80004c8 <Update_EXTI+0x1c0>)
 8000344:	7bfb      	ldrb	r3, [r7, #15]
 8000346:	3302      	adds	r3, #2
 8000348:	f852 2023 	ldr.w	r2, [r2, r3, lsl #2]
 800034c:	7bbb      	ldrb	r3, [r7, #14]
 800034e:	210f      	movs	r1, #15
 8000350:	fa01 f303 	lsl.w	r3, r1, r3
 8000354:	43db      	mvns	r3, r3
 8000356:	4618      	mov	r0, r3
 8000358:	495b      	ldr	r1, [pc, #364]	; (80004c8 <Update_EXTI+0x1c0>)
 800035a:	7bfb      	ldrb	r3, [r7, #15]
 800035c:	4002      	ands	r2, r0
 800035e:	3302      	adds	r3, #2
 8000360:	f841 2023 	str.w	r2, [r1, r3, lsl #2]
 8000364:	4a58      	ldr	r2, [pc, #352]	; (80004c8 <Update_EXTI+0x1c0>)
 8000366:	7bfb      	ldrb	r3, [r7, #15]
 8000368:	3302      	adds	r3, #2
 800036a:	f852 2023 	ldr.w	r2, [r2, r3, lsl #2]
 800036e:	687b      	ldr	r3, [r7, #4]
 8000370:	685b      	ldr	r3, [r3, #4]
 8000372:	4956      	ldr	r1, [pc, #344]	; (80004cc <Update_EXTI+0x1c4>)
 8000374:	428b      	cmp	r3, r1
 8000376:	d016      	beq.n	80003a6 <Update_EXTI+0x9e>
 8000378:	687b      	ldr	r3, [r7, #4]
 800037a:	685b      	ldr	r3, [r3, #4]
 800037c:	4954      	ldr	r1, [pc, #336]	; (80004d0 <Update_EXTI+0x1c8>)
 800037e:	428b      	cmp	r3, r1
 8000380:	d00f      	beq.n	80003a2 <Update_EXTI+0x9a>
 8000382:	687b      	ldr	r3, [r7, #4]
 8000384:	685b      	ldr	r3, [r3, #4]
 8000386:	4953      	ldr	r1, [pc, #332]	; (80004d4 <Update_EXTI+0x1cc>)
 8000388:	428b      	cmp	r3, r1
 800038a:	d008      	beq.n	800039e <Update_EXTI+0x96>
 800038c:	687b      	ldr	r3, [r7, #4]
 800038e:	685b      	ldr	r3, [r3, #4]
 8000390:	4951      	ldr	r1, [pc, #324]	; (80004d8 <Update_EXTI+0x1d0>)
 8000392:	428b      	cmp	r3, r1
 8000394:	d101      	bne.n	800039a <Update_EXTI+0x92>
 8000396:	2303      	movs	r3, #3
 8000398:	e006      	b.n	80003a8 <Update_EXTI+0xa0>
 800039a:	2300      	movs	r3, #0
 800039c:	e004      	b.n	80003a8 <Update_EXTI+0xa0>
 800039e:	2302      	movs	r3, #2
 80003a0:	e002      	b.n	80003a8 <Update_EXTI+0xa0>
 80003a2:	2301      	movs	r3, #1
 80003a4:	e000      	b.n	80003a8 <Update_EXTI+0xa0>
 80003a6:	2300      	movs	r3, #0
 80003a8:	7bb9      	ldrb	r1, [r7, #14]
 80003aa:	408b      	lsls	r3, r1
 80003ac:	4618      	mov	r0, r3
 80003ae:	4946      	ldr	r1, [pc, #280]	; (80004c8 <Update_EXTI+0x1c0>)
 80003b0:	7bfb      	ldrb	r3, [r7, #15]
 80003b2:	4302      	orrs	r2, r0
 80003b4:	3302      	adds	r3, #2
 80003b6:	f841 2023 	str.w	r2, [r1, r3, lsl #2]
 80003ba:	4b48      	ldr	r3, [pc, #288]	; (80004dc <Update_EXTI+0x1d4>)
 80003bc:	689b      	ldr	r3, [r3, #8]
 80003be:	687a      	ldr	r2, [r7, #4]
 80003c0:	7812      	ldrb	r2, [r2, #0]
 80003c2:	4611      	mov	r1, r2
 80003c4:	2201      	movs	r2, #1
 80003c6:	408a      	lsls	r2, r1
 80003c8:	43d2      	mvns	r2, r2
 80003ca:	4611      	mov	r1, r2
 80003cc:	4a43      	ldr	r2, [pc, #268]	; (80004dc <Update_EXTI+0x1d4>)
 80003ce:	400b      	ands	r3, r1
 80003d0:	6093      	str	r3, [r2, #8]
 80003d2:	4b42      	ldr	r3, [pc, #264]	; (80004dc <Update_EXTI+0x1d4>)
 80003d4:	68db      	ldr	r3, [r3, #12]
 80003d6:	687a      	ldr	r2, [r7, #4]
 80003d8:	7812      	ldrb	r2, [r2, #0]
 80003da:	4611      	mov	r1, r2
 80003dc:	2201      	movs	r2, #1
 80003de:	408a      	lsls	r2, r1
 80003e0:	43d2      	mvns	r2, r2
 80003e2:	4611      	mov	r1, r2
 80003e4:	4a3d      	ldr	r2, [pc, #244]	; (80004dc <Update_EXTI+0x1d4>)
 80003e6:	400b      	ands	r3, r1
 80003e8:	60d3      	str	r3, [r2, #12]
 80003ea:	687b      	ldr	r3, [r7, #4]
 80003ec:	7b1b      	ldrb	r3, [r3, #12]
 80003ee:	2b00      	cmp	r3, #0
 80003f0:	d10b      	bne.n	800040a <Update_EXTI+0x102>
 80003f2:	4b3a      	ldr	r3, [pc, #232]	; (80004dc <Update_EXTI+0x1d4>)
 80003f4:	689b      	ldr	r3, [r3, #8]
 80003f6:	687a      	ldr	r2, [r7, #4]
 80003f8:	7812      	ldrb	r2, [r2, #0]
 80003fa:	4611      	mov	r1, r2
 80003fc:	2201      	movs	r2, #1
 80003fe:	408a      	lsls	r2, r1
 8000400:	4611      	mov	r1, r2
 8000402:	4a36      	ldr	r2, [pc, #216]	; (80004dc <Update_EXTI+0x1d4>)
 8000404:	430b      	orrs	r3, r1
 8000406:	6093      	str	r3, [r2, #8]
 8000408:	e029      	b.n	800045e <Update_EXTI+0x156>
 800040a:	687b      	ldr	r3, [r7, #4]
 800040c:	7b1b      	ldrb	r3, [r3, #12]
 800040e:	2b01      	cmp	r3, #1
 8000410:	d10b      	bne.n	800042a <Update_EXTI+0x122>
 8000412:	4b32      	ldr	r3, [pc, #200]	; (80004dc <Update_EXTI+0x1d4>)
 8000414:	68db      	ldr	r3, [r3, #12]
 8000416:	687a      	ldr	r2, [r7, #4]
 8000418:	7812      	ldrb	r2, [r2, #0]
 800041a:	4611      	mov	r1, r2
 800041c:	2201      	movs	r2, #1
 800041e:	408a      	lsls	r2, r1
 8000420:	4611      	mov	r1, r2
 8000422:	4a2e      	ldr	r2, [pc, #184]	; (80004dc <Update_EXTI+0x1d4>)
 8000424:	430b      	orrs	r3, r1
 8000426:	60d3      	str	r3, [r2, #12]
 8000428:	e019      	b.n	800045e <Update_EXTI+0x156>
 800042a:	687b      	ldr	r3, [r7, #4]
 800042c:	7b1b      	ldrb	r3, [r3, #12]
 800042e:	2b02      	cmp	r3, #2
 8000430:	d115      	bne.n	800045e <Update_EXTI+0x156>
 8000432:	4b2a      	ldr	r3, [pc, #168]	; (80004dc <Update_EXTI+0x1d4>)
 8000434:	689b      	ldr	r3, [r3, #8]
 8000436:	687a      	ldr	r2, [r7, #4]
 8000438:	7812      	ldrb	r2, [r2, #0]
 800043a:	4611      	mov	r1, r2
 800043c:	2201      	movs	r2, #1
 800043e:	408a      	lsls	r2, r1
 8000440:	4611      	mov	r1, r2
 8000442:	4a26      	ldr	r2, [pc, #152]	; (80004dc <Update_EXTI+0x1d4>)
 8000444:	430b      	orrs	r3, r1
 8000446:	6093      	str	r3, [r2, #8]
 8000448:	4b24      	ldr	r3, [pc, #144]	; (80004dc <Update_EXTI+0x1d4>)
 800044a:	68db      	ldr	r3, [r3, #12]
 800044c:	687a      	ldr	r2, [r7, #4]
 800044e:	7812      	ldrb	r2, [r2, #0]
 8000450:	4611      	mov	r1, r2
 8000452:	2201      	movs	r2, #1
 8000454:	408a      	lsls	r2, r1
 8000456:	4611      	mov	r1, r2
 8000458:	4a20      	ldr	r2, [pc, #128]	; (80004dc <Update_EXTI+0x1d4>)
 800045a:	430b      	orrs	r3, r1
 800045c:	60d3      	str	r3, [r2, #12]
 800045e:	687b      	ldr	r3, [r7, #4]
 8000460:	781b      	ldrb	r3, [r3, #0]
 8000462:	4619      	mov	r1, r3
 8000464:	687b      	ldr	r3, [r7, #4]
 8000466:	691b      	ldr	r3, [r3, #16]
 8000468:	4a1d      	ldr	r2, [pc, #116]	; (80004e0 <Update_EXTI+0x1d8>)
 800046a:	f842 3021 	str.w	r3, [r2, r1, lsl #2]
 800046e:	687b      	ldr	r3, [r7, #4]
 8000470:	7b5b      	ldrb	r3, [r3, #13]
 8000472:	2b01      	cmp	r3, #1
 8000474:	d111      	bne.n	800049a <Update_EXTI+0x192>
 8000476:	4b19      	ldr	r3, [pc, #100]	; (80004dc <Update_EXTI+0x1d4>)
 8000478:	681b      	ldr	r3, [r3, #0]
 800047a:	687a      	ldr	r2, [r7, #4]
 800047c:	7812      	ldrb	r2, [r2, #0]
 800047e:	4611      	mov	r1, r2
 8000480:	2201      	movs	r2, #1
 8000482:	408a      	lsls	r2, r1
 8000484:	4611      	mov	r1, r2
 8000486:	4a15      	ldr	r2, [pc, #84]	; (80004dc <Update_EXTI+0x1d4>)
 8000488:	430b      	orrs	r3, r1
 800048a:	6013      	str	r3, [r2, #0]
 800048c:	687b      	ldr	r3, [r7, #4]
 800048e:	781b      	ldrb	r3, [r3, #0]
 8000490:	b29b      	uxth	r3, r3
 8000492:	4618      	mov	r0, r3
 8000494:	f7ff fe6c 	bl	8000170 <Enable_NVIC>
 8000498:	e011      	b.n	80004be <Update_EXTI+0x1b6>
 800049a:	4b10      	ldr	r3, [pc, #64]	; (80004dc <Update_EXTI+0x1d4>)
 800049c:	681b      	ldr	r3, [r3, #0]
 800049e:	687a      	ldr	r2, [r7, #4]
 80004a0:	7812      	ldrb	r2, [r2, #0]
 80004a2:	4611      	mov	r1, r2
 80004a4:	2201      	movs	r2, #1
 80004a6:	408a      	lsls	r2, r1
 80004a8:	43d2      	mvns	r2, r2
 80004aa:	4611      	mov	r1, r2
 80004ac:	4a0b      	ldr	r2, [pc, #44]	; (80004dc <Update_EXTI+0x1d4>)
 80004ae:	400b      	ands	r3, r1
 80004b0:	6013      	str	r3, [r2, #0]
 80004b2:	687b      	ldr	r3, [r7, #4]
 80004b4:	781b      	ldrb	r3, [r3, #0]
 80004b6:	b29b      	uxth	r3, r3
 80004b8:	4618      	mov	r0, r3
 80004ba:	f7ff febf 	bl	800023c <Disable_NVIC>
 80004be:	bf00      	nop
 80004c0:	3710      	adds	r7, #16
 80004c2:	46bd      	mov	sp, r7
 80004c4:	bd80      	pop	{r7, pc}
 80004c6:	bf00      	nop
 80004c8:	40010000 	andmi	r0, r1, r0
 80004cc:	40010800 	andmi	r0, r1, r0, lsl #16
 80004d0:	40010c00 	andmi	r0, r1, r0, lsl #24
 80004d4:	40011000 	andmi	r1, r1, r0
 80004d8:	40011400 	andmi	r1, r1, r0, lsl #8
 80004dc:	40010400 	andmi	r0, r1, r0, lsl #8
 80004e0:	20000024 	andcs	r0, r0, r4, lsr #32

080004e4 <MCAL_EXTI_GPIO_Init>:
 80004e4:	b580      	push	{r7, lr}
 80004e6:	b082      	sub	sp, #8
 80004e8:	af00      	add	r7, sp, #0
 80004ea:	6078      	str	r0, [r7, #4]
 80004ec:	6878      	ldr	r0, [r7, #4]
 80004ee:	f7ff ff0b 	bl	8000308 <Update_EXTI>
 80004f2:	bf00      	nop
 80004f4:	3708      	adds	r7, #8
 80004f6:	46bd      	mov	sp, r7
 80004f8:	bd80      	pop	{r7, pc}
	...

080004fc <EXTI0_IRQHandler>:
 80004fc:	b580      	push	{r7, lr}
 80004fe:	af00      	add	r7, sp, #0
 8000500:	4b05      	ldr	r3, [pc, #20]	; (8000518 <EXTI0_IRQHandler+0x1c>)
 8000502:	695b      	ldr	r3, [r3, #20]
 8000504:	4a04      	ldr	r2, [pc, #16]	; (8000518 <EXTI0_IRQHandler+0x1c>)
 8000506:	f043 0301 	orr.w	r3, r3, #1
 800050a:	6153      	str	r3, [r2, #20]
 800050c:	4b03      	ldr	r3, [pc, #12]	; (800051c <EXTI0_IRQHandler+0x20>)
 800050e:	681b      	ldr	r3, [r3, #0]
 8000510:	4798      	blx	r3
 8000512:	bf00      	nop
 8000514:	bd80      	pop	{r7, pc}
 8000516:	bf00      	nop
 8000518:	40010400 	andmi	r0, r1, r0, lsl #8
 800051c:	20000024 	andcs	r0, r0, r4, lsr #32

08000520 <EXTI1_IRQHandler>:
 8000520:	b580      	push	{r7, lr}
 8000522:	af00      	add	r7, sp, #0
 8000524:	4b05      	ldr	r3, [pc, #20]	; (800053c <EXTI1_IRQHandler+0x1c>)
 8000526:	695b      	ldr	r3, [r3, #20]
 8000528:	4a04      	ldr	r2, [pc, #16]	; (800053c <EXTI1_IRQHandler+0x1c>)
 800052a:	f043 0302 	orr.w	r3, r3, #2
 800052e:	6153      	str	r3, [r2, #20]
 8000530:	4b03      	ldr	r3, [pc, #12]	; (8000540 <EXTI1_IRQHandler+0x20>)
 8000532:	685b      	ldr	r3, [r3, #4]
 8000534:	4798      	blx	r3
 8000536:	bf00      	nop
 8000538:	bd80      	pop	{r7, pc}
 800053a:	bf00      	nop
 800053c:	40010400 	andmi	r0, r1, r0, lsl #8
 8000540:	20000024 	andcs	r0, r0, r4, lsr #32

08000544 <EXTI2_IRQHandler>:
 8000544:	b580      	push	{r7, lr}
 8000546:	af00      	add	r7, sp, #0
 8000548:	4b05      	ldr	r3, [pc, #20]	; (8000560 <EXTI2_IRQHandler+0x1c>)
 800054a:	695b      	ldr	r3, [r3, #20]
 800054c:	4a04      	ldr	r2, [pc, #16]	; (8000560 <EXTI2_IRQHandler+0x1c>)
 800054e:	f043 0304 	orr.w	r3, r3, #4
 8000552:	6153      	str	r3, [r2, #20]
 8000554:	4b03      	ldr	r3, [pc, #12]	; (8000564 <EXTI2_IRQHandler+0x20>)
 8000556:	689b      	ldr	r3, [r3, #8]
 8000558:	4798      	blx	r3
 800055a:	bf00      	nop
 800055c:	bd80      	pop	{r7, pc}
 800055e:	bf00      	nop
 8000560:	40010400 	andmi	r0, r1, r0, lsl #8
 8000564:	20000024 	andcs	r0, r0, r4, lsr #32

08000568 <EXTI3_IRQHandler>:
 8000568:	b580      	push	{r7, lr}
 800056a:	af00      	add	r7, sp, #0
 800056c:	4b05      	ldr	r3, [pc, #20]	; (8000584 <EXTI3_IRQHandler+0x1c>)
 800056e:	695b      	ldr	r3, [r3, #20]
 8000570:	4a04      	ldr	r2, [pc, #16]	; (8000584 <EXTI3_IRQHandler+0x1c>)
 8000572:	f043 0308 	orr.w	r3, r3, #8
 8000576:	6153      	str	r3, [r2, #20]
 8000578:	4b03      	ldr	r3, [pc, #12]	; (8000588 <EXTI3_IRQHandler+0x20>)
 800057a:	68db      	ldr	r3, [r3, #12]
 800057c:	4798      	blx	r3
 800057e:	bf00      	nop
 8000580:	bd80      	pop	{r7, pc}
 8000582:	bf00      	nop
 8000584:	40010400 	andmi	r0, r1, r0, lsl #8
 8000588:	20000024 	andcs	r0, r0, r4, lsr #32

0800058c <EXTI4_IRQHandler>:
 800058c:	b580      	push	{r7, lr}
 800058e:	af00      	add	r7, sp, #0
 8000590:	4b05      	ldr	r3, [pc, #20]	; (80005a8 <EXTI4_IRQHandler+0x1c>)
 8000592:	695b      	ldr	r3, [r3, #20]
 8000594:	4a04      	ldr	r2, [pc, #16]	; (80005a8 <EXTI4_IRQHandler+0x1c>)
 8000596:	f043 0310 	orr.w	r3, r3, #16
 800059a:	6153      	str	r3, [r2, #20]
 800059c:	4b03      	ldr	r3, [pc, #12]	; (80005ac <EXTI4_IRQHandler+0x20>)
 800059e:	691b      	ldr	r3, [r3, #16]
 80005a0:	4798      	blx	r3
 80005a2:	bf00      	nop
 80005a4:	bd80      	pop	{r7, pc}
 80005a6:	bf00      	nop
 80005a8:	40010400 	andmi	r0, r1, r0, lsl #8
 80005ac:	20000024 	andcs	r0, r0, r4, lsr #32

080005b0 <EXTI9_5_IRQHandler>:
 80005b0:	b580      	push	{r7, lr}
 80005b2:	af00      	add	r7, sp, #0
 80005b4:	4b2b      	ldr	r3, [pc, #172]	; (8000664 <EXTI9_5_IRQHandler+0xb4>)
 80005b6:	695b      	ldr	r3, [r3, #20]
 80005b8:	4a2a      	ldr	r2, [pc, #168]	; (8000664 <EXTI9_5_IRQHandler+0xb4>)
 80005ba:	f003 0320 	and.w	r3, r3, #32
 80005be:	6153      	str	r3, [r2, #20]
 80005c0:	2b00      	cmp	r3, #0
 80005c2:	d008      	beq.n	80005d6 <EXTI9_5_IRQHandler+0x26>
 80005c4:	4b27      	ldr	r3, [pc, #156]	; (8000664 <EXTI9_5_IRQHandler+0xb4>)
 80005c6:	695b      	ldr	r3, [r3, #20]
 80005c8:	4a26      	ldr	r2, [pc, #152]	; (8000664 <EXTI9_5_IRQHandler+0xb4>)
 80005ca:	f043 0320 	orr.w	r3, r3, #32
 80005ce:	6153      	str	r3, [r2, #20]
 80005d0:	4b25      	ldr	r3, [pc, #148]	; (8000668 <EXTI9_5_IRQHandler+0xb8>)
 80005d2:	695b      	ldr	r3, [r3, #20]
 80005d4:	4798      	blx	r3
 80005d6:	4b23      	ldr	r3, [pc, #140]	; (8000664 <EXTI9_5_IRQHandler+0xb4>)
 80005d8:	695b      	ldr	r3, [r3, #20]
 80005da:	4a22      	ldr	r2, [pc, #136]	; (8000664 <EXTI9_5_IRQHandler+0xb4>)
 80005dc:	f003 0340 	and.w	r3, r3, #64	; 0x40
 80005e0:	6153      	str	r3, [r2, #20]
 80005e2:	2b00      	cmp	r3, #0
 80005e4:	d008      	beq.n	80005f8 <EXTI9_5_IRQHandler+0x48>
 80005e6:	4b1f      	ldr	r3, [pc, #124]	; (8000664 <EXTI9_5_IRQHandler+0xb4>)
 80005e8:	695b      	ldr	r3, [r3, #20]
 80005ea:	4a1e      	ldr	r2, [pc, #120]	; (8000664 <EXTI9_5_IRQHandler+0xb4>)
 80005ec:	f043 0340 	orr.w	r3, r3, #64	; 0x40
 80005f0:	6153      	str	r3, [r2, #20]
 80005f2:	4b1d      	ldr	r3, [pc, #116]	; (8000668 <EXTI9_5_IRQHandler+0xb8>)
 80005f4:	699b      	ldr	r3, [r3, #24]
 80005f6:	4798      	blx	r3
 80005f8:	4b1a      	ldr	r3, [pc, #104]	; (8000664 <EXTI9_5_IRQHandler+0xb4>)
 80005fa:	695b      	ldr	r3, [r3, #20]
 80005fc:	4a19      	ldr	r2, [pc, #100]	; (8000664 <EXTI9_5_IRQHandler+0xb4>)
 80005fe:	f003 0380 	and.w	r3, r3, #128	; 0x80
 8000602:	6153      	str	r3, [r2, #20]
 8000604:	2b00      	cmp	r3, #0
 8000606:	d008      	beq.n	800061a <EXTI9_5_IRQHandler+0x6a>
 8000608:	4b16      	ldr	r3, [pc, #88]	; (8000664 <EXTI9_5_IRQHandler+0xb4>)
 800060a:	695b      	ldr	r3, [r3, #20]
 800060c:	4a15      	ldr	r2, [pc, #84]	; (8000664 <EXTI9_5_IRQHandler+0xb4>)
 800060e:	f043 0380 	orr.w	r3, r3, #128	; 0x80
 8000612:	6153      	str	r3, [r2, #20]
 8000614:	4b14      	ldr	r3, [pc, #80]	; (8000668 <EXTI9_5_IRQHandler+0xb8>)
 8000616:	69db      	ldr	r3, [r3, #28]
 8000618:	4798      	blx	r3
 800061a:	4b12      	ldr	r3, [pc, #72]	; (8000664 <EXTI9_5_IRQHandler+0xb4>)
 800061c:	695b      	ldr	r3, [r3, #20]
 800061e:	4a11      	ldr	r2, [pc, #68]	; (8000664 <EXTI9_5_IRQHandler+0xb4>)
 8000620:	f403 7380 	and.w	r3, r3, #256	; 0x100
 8000624:	6153      	str	r3, [r2, #20]
 8000626:	2b00      	cmp	r3, #0
 8000628:	d008      	beq.n	800063c <EXTI9_5_IRQHandler+0x8c>
 800062a:	4b0e      	ldr	r3, [pc, #56]	; (8000664 <EXTI9_5_IRQHandler+0xb4>)
 800062c:	695b      	ldr	r3, [r3, #20]
 800062e:	4a0d      	ldr	r2, [pc, #52]	; (8000664 <EXTI9_5_IRQHandler+0xb4>)
 8000630:	f443 7380 	orr.w	r3, r3, #256	; 0x100
 8000634:	6153      	str	r3, [r2, #20]
 8000636:	4b0c      	ldr	r3, [pc, #48]	; (8000668 <EXTI9_5_IRQHandler+0xb8>)
 8000638:	6a1b      	ldr	r3, [r3, #32]
 800063a:	4798      	blx	r3
 800063c:	4b09      	ldr	r3, [pc, #36]	; (8000664 <EXTI9_5_IRQHandler+0xb4>)
 800063e:	695b      	ldr	r3, [r3, #20]
 8000640:	4a08      	ldr	r2, [pc, #32]	; (8000664 <EXTI9_5_IRQHandler+0xb4>)
 8000642:	f403 7300 	and.w	r3, r3, #512	; 0x200
 8000646:	6153      	str	r3, [r2, #20]
 8000648:	2b00      	cmp	r3, #0
 800064a:	d008      	beq.n	800065e <EXTI9_5_IRQHandler+0xae>
 800064c:	4b05      	ldr	r3, [pc, #20]	; (8000664 <EXTI9_5_IRQHandler+0xb4>)
 800064e:	695b      	ldr	r3, [r3, #20]
 8000650:	4a04      	ldr	r2, [pc, #16]	; (8000664 <EXTI9_5_IRQHandler+0xb4>)
 8000652:	f443 7300 	orr.w	r3, r3, #512	; 0x200
 8000656:	6153      	str	r3, [r2, #20]
 8000658:	4b03      	ldr	r3, [pc, #12]	; (8000668 <EXTI9_5_IRQHandler+0xb8>)
 800065a:	6a5b      	ldr	r3, [r3, #36]	; 0x24
 800065c:	4798      	blx	r3
 800065e:	bf00      	nop
 8000660:	bd80      	pop	{r7, pc}
 8000662:	bf00      	nop
 8000664:	40010400 	andmi	r0, r1, r0, lsl #8
 8000668:	20000024 	andcs	r0, r0, r4, lsr #32

0800066c <EXTI15_10_IRQHandler>:
 800066c:	b580      	push	{r7, lr}
 800066e:	af00      	add	r7, sp, #0
 8000670:	4b33      	ldr	r3, [pc, #204]	; (8000740 <EXTI15_10_IRQHandler+0xd4>)
 8000672:	695b      	ldr	r3, [r3, #20]
 8000674:	4a32      	ldr	r2, [pc, #200]	; (8000740 <EXTI15_10_IRQHandler+0xd4>)
 8000676:	f403 6380 	and.w	r3, r3, #1024	; 0x400
 800067a:	6153      	str	r3, [r2, #20]
 800067c:	2b00      	cmp	r3, #0
 800067e:	d008      	beq.n	8000692 <EXTI15_10_IRQHandler+0x26>
 8000680:	4b2f      	ldr	r3, [pc, #188]	; (8000740 <EXTI15_10_IRQHandler+0xd4>)
 8000682:	695b      	ldr	r3, [r3, #20]
 8000684:	4a2e      	ldr	r2, [pc, #184]	; (8000740 <EXTI15_10_IRQHandler+0xd4>)
 8000686:	f443 6380 	orr.w	r3, r3, #1024	; 0x400
 800068a:	6153      	str	r3, [r2, #20]
 800068c:	4b2d      	ldr	r3, [pc, #180]	; (8000744 <EXTI15_10_IRQHandler+0xd8>)
 800068e:	6a9b      	ldr	r3, [r3, #40]	; 0x28
 8000690:	4798      	blx	r3
 8000692:	4b2b      	ldr	r3, [pc, #172]	; (8000740 <EXTI15_10_IRQHandler+0xd4>)
 8000694:	695b      	ldr	r3, [r3, #20]
 8000696:	4a2a      	ldr	r2, [pc, #168]	; (8000740 <EXTI15_10_IRQHandler+0xd4>)
 8000698:	f403 6300 	and.w	r3, r3, #2048	; 0x800
 800069c:	6153      	str	r3, [r2, #20]
 800069e:	2b00      	cmp	r3, #0
 80006a0:	d008      	beq.n	80006b4 <EXTI15_10_IRQHandler+0x48>
 80006a2:	4b27      	ldr	r3, [pc, #156]	; (8000740 <EXTI15_10_IRQHandler+0xd4>)
 80006a4:	695b      	ldr	r3, [r3, #20]
 80006a6:	4a26      	ldr	r2, [pc, #152]	; (8000740 <EXTI15_10_IRQHandler+0xd4>)
 80006a8:	f443 6300 	orr.w	r3, r3, #2048	; 0x800
 80006ac:	6153      	str	r3, [r2, #20]
 80006ae:	4b25      	ldr	r3, [pc, #148]	; (8000744 <EXTI15_10_IRQHandler+0xd8>)
 80006b0:	6adb      	ldr	r3, [r3, #44]	; 0x2c
 80006b2:	4798      	blx	r3
 80006b4:	4b22      	ldr	r3, [pc, #136]	; (8000740 <EXTI15_10_IRQHandler+0xd4>)
 80006b6:	695b      	ldr	r3, [r3, #20]
 80006b8:	4a21      	ldr	r2, [pc, #132]	; (8000740 <EXTI15_10_IRQHandler+0xd4>)
 80006ba:	f403 5380 	and.w	r3, r3, #4096	; 0x1000
 80006be:	6153      	str	r3, [r2, #20]
 80006c0:	2b00      	cmp	r3, #0
 80006c2:	d008      	beq.n	80006d6 <EXTI15_10_IRQHandler+0x6a>
 80006c4:	4b1e      	ldr	r3, [pc, #120]	; (8000740 <EXTI15_10_IRQHandler+0xd4>)
 80006c6:	695b      	ldr	r3, [r3, #20]
 80006c8:	4a1d      	ldr	r2, [pc, #116]	; (8000740 <EXTI15_10_IRQHandler+0xd4>)
 80006ca:	f443 5380 	orr.w	r3, r3, #4096	; 0x1000
 80006ce:	6153      	str	r3, [r2, #20]
 80006d0:	4b1c      	ldr	r3, [pc, #112]	; (8000744 <EXTI15_10_IRQHandler+0xd8>)
 80006d2:	6b1b      	ldr	r3, [r3, #48]	; 0x30
 80006d4:	4798      	blx	r3
 80006d6:	4b1a      	ldr	r3, [pc, #104]	; (8000740 <EXTI15_10_IRQHandler+0xd4>)
 80006d8:	695b      	ldr	r3, [r3, #20]
 80006da:	4a19      	ldr	r2, [pc, #100]	; (8000740 <EXTI15_10_IRQHandler+0xd4>)
 80006dc:	f403 5300 	and.w	r3, r3, #8192	; 0x2000
 80006e0:	6153      	str	r3, [r2, #20]
 80006e2:	2b00      	cmp	r3, #0
 80006e4:	d008      	beq.n	80006f8 <EXTI15_10_IRQHandler+0x8c>
 80006e6:	4b16      	ldr	r3, [pc, #88]	; (8000740 <EXTI15_10_IRQHandler+0xd4>)
 80006e8:	695b      	ldr	r3, [r3, #20]
 80006ea:	4a15      	ldr	r2, [pc, #84]	; (8000740 <EXTI15_10_IRQHandler+0xd4>)
 80006ec:	f443 5300 	orr.w	r3, r3, #8192	; 0x2000
 80006f0:	6153      	str	r3, [r2, #20]
 80006f2:	4b14      	ldr	r3, [pc, #80]	; (8000744 <EXTI15_10_IRQHandler+0xd8>)
 80006f4:	6b5b      	ldr	r3, [r3, #52]	; 0x34
 80006f6:	4798      	blx	r3
 80006f8:	4b11      	ldr	r3, [pc, #68]	; (8000740 <EXTI15_10_IRQHandler+0xd4>)
 80006fa:	695b      	ldr	r3, [r3, #20]
 80006fc:	4a10      	ldr	r2, [pc, #64]	; (8000740 <EXTI15_10_IRQHandler+0xd4>)
 80006fe:	f403 4380 	and.w	r3, r3, #16384	; 0x4000
 8000702:	6153      	str	r3, [r2, #20]
 8000704:	2b00      	cmp	r3, #0
 8000706:	d008      	beq.n	800071a <EXTI15_10_IRQHandler+0xae>
 8000708:	4b0d      	ldr	r3, [pc, #52]	; (8000740 <EXTI15_10_IRQHandler+0xd4>)
 800070a:	695b      	ldr	r3, [r3, #20]
 800070c:	4a0c      	ldr	r2, [pc, #48]	; (8000740 <EXTI15_10_IRQHandler+0xd4>)
 800070e:	f443 4380 	orr.w	r3, r3, #16384	; 0x4000
 8000712:	6153      	str	r3, [r2, #20]
 8000714:	4b0b      	ldr	r3, [pc, #44]	; (8000744 <EXTI15_10_IRQHandler+0xd8>)
 8000716:	6b9b      	ldr	r3, [r3, #56]	; 0x38
 8000718:	4798      	blx	r3
 800071a:	4b09      	ldr	r3, [pc, #36]	; (8000740 <EXTI15_10_IRQHandler+0xd4>)
 800071c:	695b      	ldr	r3, [r3, #20]
 800071e:	4a08      	ldr	r2, [pc, #32]	; (8000740 <EXTI15_10_IRQHandler+0xd4>)
 8000720:	f403 4300 	and.w	r3, r3, #32768	; 0x8000
 8000724:	6153      	str	r3, [r2, #20]
 8000726:	2b00      	cmp	r3, #0
 8000728:	d008      	beq.n	800073c <EXTI15_10_IRQHandler+0xd0>
 800072a:	4b05      	ldr	r3, [pc, #20]	; (8000740 <EXTI15_10_IRQHandler+0xd4>)
 800072c:	695b      	ldr	r3, [r3, #20]
 800072e:	4a04      	ldr	r2, [pc, #16]	; (8000740 <EXTI15_10_IRQHandler+0xd4>)
 8000730:	f443 4300 	orr.w	r3, r3, #32768	; 0x8000
 8000734:	6153      	str	r3, [r2, #20]
 8000736:	4b03      	ldr	r3, [pc, #12]	; (8000744 <EXTI15_10_IRQHandler+0xd8>)
 8000738:	6bdb      	ldr	r3, [r3, #60]	; 0x3c
 800073a:	4798      	blx	r3
 800073c:	bf00      	nop
 800073e:	bd80      	pop	{r7, pc}
 8000740:	40010400 	andmi	r0, r1, r0, lsl #8
 8000744:	20000024 	andcs	r0, r0, r4, lsr #32

08000748 <Get_CRLH_Postion>:
 8000748:	b480      	push	{r7}
 800074a:	b083      	sub	sp, #12
 800074c:	af00      	add	r7, sp, #0
 800074e:	4603      	mov	r3, r0
 8000750:	80fb      	strh	r3, [r7, #6]
 8000752:	88fb      	ldrh	r3, [r7, #6]
 8000754:	2b80      	cmp	r3, #128	; 0x80
 8000756:	d042      	beq.n	80007de <Get_CRLH_Postion+0x96>
 8000758:	2b80      	cmp	r3, #128	; 0x80
 800075a:	dc11      	bgt.n	8000780 <Get_CRLH_Postion+0x38>
 800075c:	2b08      	cmp	r3, #8
 800075e:	d036      	beq.n	80007ce <Get_CRLH_Postion+0x86>
 8000760:	2b08      	cmp	r3, #8
 8000762:	dc06      	bgt.n	8000772 <Get_CRLH_Postion+0x2a>
 8000764:	2b02      	cmp	r3, #2
 8000766:	d02e      	beq.n	80007c6 <Get_CRLH_Postion+0x7e>
 8000768:	2b04      	cmp	r3, #4
 800076a:	d02e      	beq.n	80007ca <Get_CRLH_Postion+0x82>
 800076c:	2b01      	cmp	r3, #1
 800076e:	d028      	beq.n	80007c2 <Get_CRLH_Postion+0x7a>
 8000770:	e047      	b.n	8000802 <Get_CRLH_Postion+0xba>
 8000772:	2b20      	cmp	r3, #32
 8000774:	d02f      	beq.n	80007d6 <Get_CRLH_Postion+0x8e>
 8000776:	2b40      	cmp	r3, #64	; 0x40
 8000778:	d02f      	beq.n	80007da <Get_CRLH_Postion+0x92>
 800077a:	2b10      	cmp	r3, #16
 800077c:	d029      	beq.n	80007d2 <Get_CRLH_Postion+0x8a>
 800077e:	e040      	b.n	8000802 <Get_CRLH_Postion+0xba>
 8000780:	f5b3 6f00 	cmp.w	r3, #2048	; 0x800
 8000784:	d033      	beq.n	80007ee <Get_CRLH_Postion+0xa6>
 8000786:	f5b3 6f00 	cmp.w	r3, #2048	; 0x800
 800078a:	dc09      	bgt.n	80007a0 <Get_CRLH_Postion+0x58>
 800078c:	f5b3 7f00 	cmp.w	r3, #512	; 0x200
 8000790:	d029      	beq.n	80007e6 <Get_CRLH_Postion+0x9e>
 8000792:	f5b3 6f80 	cmp.w	r3, #1024	; 0x400
 8000796:	d028      	beq.n	80007ea <Get_CRLH_Postion+0xa2>
 8000798:	f5b3 7f80 	cmp.w	r3, #256	; 0x100
 800079c:	d021      	beq.n	80007e2 <Get_CRLH_Postion+0x9a>
 800079e:	e030      	b.n	8000802 <Get_CRLH_Postion+0xba>
 80007a0:	f5b3 5f00 	cmp.w	r3, #8192	; 0x2000
 80007a4:	d027      	beq.n	80007f6 <Get_CRLH_Postion+0xae>
 80007a6:	f5b3 5f00 	cmp.w	r3, #8192	; 0x2000
 80007aa:	dc03      	bgt.n	80007b4 <Get_CRLH_Postion+0x6c>
 80007ac:	f5b3 5f80 	cmp.w	r3, #4096	; 0x1000
 80007b0:	d01f      	beq.n	80007f2 <Get_CRLH_Postion+0xaa>
 80007b2:	e026      	b.n	8000802 <Get_CRLH_Postion+0xba>
 80007b4:	f5b3 4f80 	cmp.w	r3, #16384	; 0x4000
 80007b8:	d01f      	beq.n	80007fa <Get_CRLH_Postion+0xb2>
 80007ba:	f5b3 4f00 	cmp.w	r3, #32768	; 0x8000
 80007be:	d01e      	beq.n	80007fe <Get_CRLH_Postion+0xb6>
 80007c0:	e01f      	b.n	8000802 <Get_CRLH_Postion+0xba>
 80007c2:	2300      	movs	r3, #0
 80007c4:	e01e      	b.n	8000804 <Get_CRLH_Postion+0xbc>
 80007c6:	2304      	movs	r3, #4
 80007c8:	e01c      	b.n	8000804 <Get_CRLH_Postion+0xbc>
 80007ca:	2308      	movs	r3, #8
 80007cc:	e01a      	b.n	8000804 <Get_CRLH_Postion+0xbc>
 80007ce:	230c      	movs	r3, #12
 80007d0:	e018      	b.n	8000804 <Get_CRLH_Postion+0xbc>
 80007d2:	2310      	movs	r3, #16
 80007d4:	e016      	b.n	8000804 <Get_CRLH_Postion+0xbc>
 80007d6:	2314      	movs	r3, #20
 80007d8:	e014      	b.n	8000804 <Get_CRLH_Postion+0xbc>
 80007da:	2318      	movs	r3, #24
 80007dc:	e012      	b.n	8000804 <Get_CRLH_Postion+0xbc>
 80007de:	231c      	movs	r3, #28
 80007e0:	e010      	b.n	8000804 <Get_CRLH_Postion+0xbc>
 80007e2:	2300      	movs	r3, #0
 80007e4:	e00e      	b.n	8000804 <Get_CRLH_Postion+0xbc>
 80007e6:	2304      	movs	r3, #4
 80007e8:	e00c      	b.n	8000804 <Get_CRLH_Postion+0xbc>
 80007ea:	2308      	movs	r3, #8
 80007ec:	e00a      	b.n	8000804 <Get_CRLH_Postion+0xbc>
 80007ee:	230c      	movs	r3, #12
 80007f0:	e008      	b.n	8000804 <Get_CRLH_Postion+0xbc>
 80007f2:	2310      	movs	r3, #16
 80007f4:	e006      	b.n	8000804 <Get_CRLH_Postion+0xbc>
 80007f6:	2314      	movs	r3, #20
 80007f8:	e004      	b.n	8000804 <Get_CRLH_Postion+0xbc>
 80007fa:	2318      	movs	r3, #24
 80007fc:	e002      	b.n	8000804 <Get_CRLH_Postion+0xbc>
 80007fe:	231c      	movs	r3, #28
 8000800:	e000      	b.n	8000804 <Get_CRLH_Postion+0xbc>
 8000802:	2300      	movs	r3, #0
 8000804:	4618      	mov	r0, r3
 8000806:	370c      	adds	r7, #12
 8000808:	46bd      	mov	sp, r7
 800080a:	bc80      	pop	{r7}
 800080c:	4770      	bx	lr

0800080e <MCAL_GPIO_INIT>:
 800080e:	b590      	push	{r4, r7, lr}
 8000810:	b085      	sub	sp, #20
 8000812:	af00      	add	r7, sp, #0
 8000814:	6078      	str	r0, [r7, #4]
 8000816:	6039      	str	r1, [r7, #0]
 8000818:	2300      	movs	r3, #0
 800081a:	60bb      	str	r3, [r7, #8]
 800081c:	2300      	movs	r3, #0
 800081e:	73fb      	strb	r3, [r7, #15]
 8000820:	683b      	ldr	r3, [r7, #0]
 8000822:	881b      	ldrh	r3, [r3, #0]
 8000824:	2bff      	cmp	r3, #255	; 0xff
 8000826:	d801      	bhi.n	800082c <MCAL_GPIO_INIT+0x1e>
 8000828:	687b      	ldr	r3, [r7, #4]
 800082a:	e001      	b.n	8000830 <MCAL_GPIO_INIT+0x22>
 800082c:	687b      	ldr	r3, [r7, #4]
 800082e:	3304      	adds	r3, #4
 8000830:	60bb      	str	r3, [r7, #8]
 8000832:	683b      	ldr	r3, [r7, #0]
 8000834:	881b      	ldrh	r3, [r3, #0]
 8000836:	4618      	mov	r0, r3
 8000838:	f7ff ff86 	bl	8000748 <Get_CRLH_Postion>
 800083c:	4603      	mov	r3, r0
 800083e:	461a      	mov	r2, r3
 8000840:	230f      	movs	r3, #15
 8000842:	4093      	lsls	r3, r2
 8000844:	43da      	mvns	r2, r3
 8000846:	68bb      	ldr	r3, [r7, #8]
 8000848:	681b      	ldr	r3, [r3, #0]
 800084a:	401a      	ands	r2, r3
 800084c:	68bb      	ldr	r3, [r7, #8]
 800084e:	601a      	str	r2, [r3, #0]
 8000850:	683b      	ldr	r3, [r7, #0]
 8000852:	789b      	ldrb	r3, [r3, #2]
 8000854:	2b04      	cmp	r3, #4
 8000856:	d00b      	beq.n	8000870 <MCAL_GPIO_INIT+0x62>
 8000858:	683b      	ldr	r3, [r7, #0]
 800085a:	789b      	ldrb	r3, [r3, #2]
 800085c:	2b05      	cmp	r3, #5
 800085e:	d007      	beq.n	8000870 <MCAL_GPIO_INIT+0x62>
 8000860:	683b      	ldr	r3, [r7, #0]
 8000862:	789b      	ldrb	r3, [r3, #2]
 8000864:	2b06      	cmp	r3, #6
 8000866:	d003      	beq.n	8000870 <MCAL_GPIO_INIT+0x62>
 8000868:	683b      	ldr	r3, [r7, #0]
 800086a:	789b      	ldrb	r3, [r3, #2]
 800086c:	2b07      	cmp	r3, #7
 800086e:	d10e      	bne.n	800088e <MCAL_GPIO_INIT+0x80>
 8000870:	683b      	ldr	r3, [r7, #0]
 8000872:	789b      	ldrb	r3, [r3, #2]
 8000874:	3b04      	subs	r3, #4
 8000876:	009b      	lsls	r3, r3, #2
 8000878:	b25a      	sxtb	r2, r3
 800087a:	683b      	ldr	r3, [r7, #0]
 800087c:	78db      	ldrb	r3, [r3, #3]
 800087e:	b25b      	sxtb	r3, r3
 8000880:	4313      	orrs	r3, r2
 8000882:	b25b      	sxtb	r3, r3
 8000884:	b2db      	uxtb	r3, r3
 8000886:	f003 030f 	and.w	r3, r3, #15
 800088a:	73fb      	strb	r3, [r7, #15]
 800088c:	e02c      	b.n	80008e8 <MCAL_GPIO_INIT+0xda>
 800088e:	683b      	ldr	r3, [r7, #0]
 8000890:	789b      	ldrb	r3, [r3, #2]
 8000892:	2b00      	cmp	r3, #0
 8000894:	d003      	beq.n	800089e <MCAL_GPIO_INIT+0x90>
 8000896:	683b      	ldr	r3, [r7, #0]
 8000898:	789b      	ldrb	r3, [r3, #2]
 800089a:	2b01      	cmp	r3, #1
 800089c:	d107      	bne.n	80008ae <MCAL_GPIO_INIT+0xa0>
 800089e:	683b      	ldr	r3, [r7, #0]
 80008a0:	789b      	ldrb	r3, [r3, #2]
 80008a2:	009b      	lsls	r3, r3, #2
 80008a4:	b2db      	uxtb	r3, r3
 80008a6:	f003 030f 	and.w	r3, r3, #15
 80008aa:	73fb      	strb	r3, [r7, #15]
 80008ac:	e01c      	b.n	80008e8 <MCAL_GPIO_INIT+0xda>
 80008ae:	683b      	ldr	r3, [r7, #0]
 80008b0:	789b      	ldrb	r3, [r3, #2]
 80008b2:	2b08      	cmp	r3, #8
 80008b4:	d102      	bne.n	80008bc <MCAL_GPIO_INIT+0xae>
 80008b6:	2304      	movs	r3, #4
 80008b8:	73fb      	strb	r3, [r7, #15]
 80008ba:	e015      	b.n	80008e8 <MCAL_GPIO_INIT+0xda>
 80008bc:	2308      	movs	r3, #8
 80008be:	73fb      	strb	r3, [r7, #15]
 80008c0:	683b      	ldr	r3, [r7, #0]
 80008c2:	789b      	ldrb	r3, [r3, #2]
 80008c4:	2b02      	cmp	r3, #2
 80008c6:	d107      	bne.n	80008d8 <MCAL_GPIO_INIT+0xca>
 80008c8:	687b      	ldr	r3, [r7, #4]
 80008ca:	68db      	ldr	r3, [r3, #12]
 80008cc:	683a      	ldr	r2, [r7, #0]
 80008ce:	8812      	ldrh	r2, [r2, #0]
 80008d0:	431a      	orrs	r2, r3
 80008d2:	687b      	ldr	r3, [r7, #4]
 80008d4:	60da      	str	r2, [r3, #12]
 80008d6:	e007      	b.n	80008e8 <MCAL_GPIO_INIT+0xda>
 80008d8:	687b      	ldr	r3, [r7, #4]
 80008da:	68db      	ldr	r3, [r3, #12]
 80008dc:	683a      	ldr	r2, [r7, #0]
 80008de:	8812      	ldrh	r2, [r2, #0]
 80008e0:	43d2      	mvns	r2, r2
 80008e2:	401a      	ands	r2, r3
 80008e4:	687b      	ldr	r3, [r7, #4]
 80008e6:	60da      	str	r2, [r3, #12]
 80008e8:	7bfc      	ldrb	r4, [r7, #15]
 80008ea:	683b      	ldr	r3, [r7, #0]
 80008ec:	881b      	ldrh	r3, [r3, #0]
 80008ee:	4618      	mov	r0, r3
 80008f0:	f7ff ff2a 	bl	8000748 <Get_CRLH_Postion>
 80008f4:	4603      	mov	r3, r0
 80008f6:	fa04 f203 	lsl.w	r2, r4, r3
 80008fa:	68bb      	ldr	r3, [r7, #8]
 80008fc:	681b      	ldr	r3, [r3, #0]
 80008fe:	431a      	orrs	r2, r3
 8000900:	68bb      	ldr	r3, [r7, #8]
 8000902:	601a      	str	r2, [r3, #0]
 8000904:	bf00      	nop
 8000906:	3714      	adds	r7, #20
 8000908:	46bd      	mov	sp, r7
 800090a:	bd90      	pop	{r4, r7, pc}

0800090c <clk_init>:
 800090c:	b480      	push	{r7}
 800090e:	af00      	add	r7, sp, #0
 8000910:	4b07      	ldr	r3, [pc, #28]	; (8000930 <clk_init+0x24>)
 8000912:	699b      	ldr	r3, [r3, #24]
 8000914:	4a06      	ldr	r2, [pc, #24]	; (8000930 <clk_init+0x24>)
 8000916:	f043 0308 	orr.w	r3, r3, #8
 800091a:	6193      	str	r3, [r2, #24]
 800091c:	4b04      	ldr	r3, [pc, #16]	; (8000930 <clk_init+0x24>)
 800091e:	699b      	ldr	r3, [r3, #24]
 8000920:	4a03      	ldr	r2, [pc, #12]	; (8000930 <clk_init+0x24>)
 8000922:	f043 0301 	orr.w	r3, r3, #1
 8000926:	6193      	str	r3, [r2, #24]
 8000928:	bf00      	nop
 800092a:	46bd      	mov	sp, r7
 800092c:	bc80      	pop	{r7}
 800092e:	4770      	bx	lr
 8000930:	40021000 	andmi	r1, r2, r0

08000934 <EXTI_CallBack>:
 8000934:	b480      	push	{r7}
 8000936:	af00      	add	r7, sp, #0
 8000938:	4b05      	ldr	r3, [pc, #20]	; (8000950 <EXTI_CallBack+0x1c>)
 800093a:	2201      	movs	r2, #1
 800093c:	701a      	strb	r2, [r3, #0]
 800093e:	f3ef 8305 	mrs	r3, IPSR
 8000942:	4a04      	ldr	r2, [pc, #16]	; (8000954 <EXTI_CallBack+0x20>)
 8000944:	6013      	str	r3, [r2, #0]
 8000946:	bf00      	nop
 8000948:	46bd      	mov	sp, r7
 800094a:	bc80      	pop	{r7}
 800094c:	4770      	bx	lr
 800094e:	bf00      	nop
 8000950:	20000060 	andcs	r0, r0, r0, rrx
 8000954:	20000020 	andcs	r0, r0, r0, lsr #32

08000958 <main>:
 8000958:	b580      	push	{r7, lr}
 800095a:	b086      	sub	sp, #24
 800095c:	af00      	add	r7, sp, #0
 800095e:	f7ff ffd5 	bl	800090c <clk_init>
 8000962:	4a12      	ldr	r2, [pc, #72]	; (80009ac <main+0x54>)
 8000964:	1d3b      	adds	r3, r7, #4
 8000966:	ca07      	ldmia	r2, {r0, r1, r2}
 8000968:	e883 0007 	stmia.w	r3, {r0, r1, r2}
 800096c:	2300      	movs	r3, #0
 800096e:	743b      	strb	r3, [r7, #16]
 8000970:	2301      	movs	r3, #1
 8000972:	747b      	strb	r3, [r7, #17]
 8000974:	4b0e      	ldr	r3, [pc, #56]	; (80009b0 <main+0x58>)
 8000976:	617b      	str	r3, [r7, #20]
 8000978:	1d3b      	adds	r3, r7, #4
 800097a:	4618      	mov	r0, r3
 800097c:	f7ff fdb2 	bl	80004e4 <MCAL_EXTI_GPIO_Init>
 8000980:	4b0c      	ldr	r3, [pc, #48]	; (80009b4 <main+0x5c>)
 8000982:	2201      	movs	r2, #1
 8000984:	701a      	strb	r2, [r3, #0]
 8000986:	bf00      	nop
 8000988:	bf00      	nop
 800098a:	bf00      	nop
 800098c:	f3ef 8314 	mrs	r3, CONTROL
 8000990:	4a09      	ldr	r2, [pc, #36]	; (80009b8 <main+0x60>)
 8000992:	6013      	str	r3, [r2, #0]
 8000994:	bf00      	nop
 8000996:	bf00      	nop
 8000998:	bf00      	nop
 800099a:	4b06      	ldr	r3, [pc, #24]	; (80009b4 <main+0x5c>)
 800099c:	781b      	ldrb	r3, [r3, #0]
 800099e:	2b01      	cmp	r3, #1
 80009a0:	d1fb      	bne.n	800099a <main+0x42>
 80009a2:	4b04      	ldr	r3, [pc, #16]	; (80009b4 <main+0x5c>)
 80009a4:	2200      	movs	r2, #0
 80009a6:	701a      	strb	r2, [r3, #0]
 80009a8:	e7f7      	b.n	800099a <main+0x42>
 80009aa:	bf00      	nop
 80009ac:	08000a70 	stmdaeq	r0, {r4, r5, r6, r9, fp}
 80009b0:	08000935 	stmdaeq	r0, {r0, r2, r4, r5, r8, fp}
 80009b4:	20000060 	andcs	r0, r0, r0, rrx
 80009b8:	2000001c 	andcs	r0, r0, ip, lsl r0

080009bc <Reset_Handler>:
 80009bc:	480d      	ldr	r0, [pc, #52]	; (80009f4 <LoopForever+0x2>)
 80009be:	4685      	mov	sp, r0
 80009c0:	f3af 8000 	nop.w
 80009c4:	480c      	ldr	r0, [pc, #48]	; (80009f8 <LoopForever+0x6>)
 80009c6:	490d      	ldr	r1, [pc, #52]	; (80009fc <LoopForever+0xa>)
 80009c8:	4a0d      	ldr	r2, [pc, #52]	; (8000a00 <LoopForever+0xe>)
 80009ca:	2300      	movs	r3, #0
 80009cc:	e002      	b.n	80009d4 <LoopCopyDataInit>

080009ce <CopyDataInit>:
 80009ce:	58d4      	ldr	r4, [r2, r3]
 80009d0:	50c4      	str	r4, [r0, r3]
 80009d2:	3304      	adds	r3, #4

080009d4 <LoopCopyDataInit>:
 80009d4:	18c4      	adds	r4, r0, r3
 80009d6:	428c      	cmp	r4, r1
 80009d8:	d3f9      	bcc.n	80009ce <CopyDataInit>
 80009da:	4a0a      	ldr	r2, [pc, #40]	; (8000a04 <LoopForever+0x12>)
 80009dc:	4c0a      	ldr	r4, [pc, #40]	; (8000a08 <LoopForever+0x16>)
 80009de:	2300      	movs	r3, #0
 80009e0:	e001      	b.n	80009e6 <LoopFillZerobss>

080009e2 <FillZerobss>:
 80009e2:	6013      	str	r3, [r2, #0]
 80009e4:	3204      	adds	r2, #4

080009e6 <LoopFillZerobss>:
 80009e6:	42a2      	cmp	r2, r4
 80009e8:	d3fb      	bcc.n	80009e2 <FillZerobss>
 80009ea:	f000 f811 	bl	8000a10 <__libc_init_array>
 80009ee:	f7ff ffb3 	bl	8000958 <main>

080009f2 <LoopForever>:
 80009f2:	e7fe      	b.n	80009f2 <LoopForever>
 80009f4:	20002800 	andcs	r2, r0, r0, lsl #16
 80009f8:	20000000 	andcs	r0, r0, r0
 80009fc:	20000000 	andcs	r0, r0, r0
 8000a00:	08000a84 	stmdaeq	r0, {r2, r7, r9, fp}
 8000a04:	20000000 	andcs	r0, r0, r0
 8000a08:	20000064 	andcs	r0, r0, r4, rrx

08000a0c <ADC1_2_IRQHandler>:
 8000a0c:	e7fe      	b.n	8000a0c <ADC1_2_IRQHandler>
	...

08000a10 <__libc_init_array>:
 8000a10:	b570      	push	{r4, r5, r6, lr}
 8000a12:	2500      	movs	r5, #0
 8000a14:	4e0c      	ldr	r6, [pc, #48]	; (8000a48 <__libc_init_array+0x38>)
 8000a16:	4c0d      	ldr	r4, [pc, #52]	; (8000a4c <__libc_init_array+0x3c>)
 8000a18:	1ba4      	subs	r4, r4, r6
 8000a1a:	10a4      	asrs	r4, r4, #2
 8000a1c:	42a5      	cmp	r5, r4
 8000a1e:	d109      	bne.n	8000a34 <__libc_init_array+0x24>
 8000a20:	f000 f81a 	bl	8000a58 <_init>
 8000a24:	2500      	movs	r5, #0
 8000a26:	4e0a      	ldr	r6, [pc, #40]	; (8000a50 <__libc_init_array+0x40>)
 8000a28:	4c0a      	ldr	r4, [pc, #40]	; (8000a54 <__libc_init_array+0x44>)
 8000a2a:	1ba4      	subs	r4, r4, r6
 8000a2c:	10a4      	asrs	r4, r4, #2
 8000a2e:	42a5      	cmp	r5, r4
 8000a30:	d105      	bne.n	8000a3e <__libc_init_array+0x2e>
 8000a32:	bd70      	pop	{r4, r5, r6, pc}
 8000a34:	f856 3025 	ldr.w	r3, [r6, r5, lsl #2]
 8000a38:	4798      	blx	r3
 8000a3a:	3501      	adds	r5, #1
 8000a3c:	e7ee      	b.n	8000a1c <__libc_init_array+0xc>
 8000a3e:	f856 3025 	ldr.w	r3, [r6, r5, lsl #2]
 8000a42:	4798      	blx	r3
 8000a44:	3501      	adds	r5, #1
 8000a46:	e7f2      	b.n	8000a2e <__libc_init_array+0x1e>
 8000a48:	08000a7c 	stmdaeq	r0, {r2, r3, r4, r5, r6, r9, fp}
 8000a4c:	08000a7c 	stmdaeq	r0, {r2, r3, r4, r5, r6, r9, fp}
 8000a50:	08000a7c 	stmdaeq	r0, {r2, r3, r4, r5, r6, r9, fp}
 8000a54:	08000a80 	stmdaeq	r0, {r7, r9, fp}

08000a58 <_init>:
 8000a58:	b5f8      	push	{r3, r4, r5, r6, r7, lr}
 8000a5a:	bf00      	nop
 8000a5c:	bcf8      	pop	{r3, r4, r5, r6, r7}
 8000a5e:	bc08      	pop	{r3}
 8000a60:	469e      	mov	lr, r3
 8000a62:	4770      	bx	lr

08000a64 <_fini>:
 8000a64:	b5f8      	push	{r3, r4, r5, r6, r7, lr}
 8000a66:	bf00      	nop
 8000a68:	bcf8      	pop	{r3, r4, r5, r6, r7}
 8000a6a:	bc08      	pop	{r3}
 8000a6c:	469e      	mov	lr, r3
 8000a6e:	4770      	bx	lr
