
Lecture4.axf:     file format elf32-littlearm


Disassembly of section .isr_vector:

08000000 <g_pfnVectors>:
 8000000:	20002800 	andcs	r2, r0, r0, lsl #16
 8000004:	080009dd 	stmdaeq	r0, {r0, r2, r3, r4, r6, r7, r8, fp}
 8000008:	08000a2d 	stmdaeq	r0, {r0, r2, r3, r5, r9, fp}
 800000c:	08000a2d 	stmdaeq	r0, {r0, r2, r3, r5, r9, fp}
 8000010:	08000a2d 	stmdaeq	r0, {r0, r2, r3, r5, r9, fp}
 8000014:	08000a2d 	stmdaeq	r0, {r0, r2, r3, r5, r9, fp}
 8000018:	08000a2d 	stmdaeq	r0, {r0, r2, r3, r5, r9, fp}
	...
 800002c:	08000a2d 	stmdaeq	r0, {r0, r2, r3, r5, r9, fp}
 8000030:	08000a2d 	stmdaeq	r0, {r0, r2, r3, r5, r9, fp}
 8000034:	00000000 	andeq	r0, r0, r0
 8000038:	08000a2d 	stmdaeq	r0, {r0, r2, r3, r5, r9, fp}
 800003c:	08000a2d 	stmdaeq	r0, {r0, r2, r3, r5, r9, fp}
 8000040:	08000a2d 	stmdaeq	r0, {r0, r2, r3, r5, r9, fp}
 8000044:	08000a2d 	stmdaeq	r0, {r0, r2, r3, r5, r9, fp}
 8000048:	08000a2d 	stmdaeq	r0, {r0, r2, r3, r5, r9, fp}
 800004c:	08000a2d 	stmdaeq	r0, {r0, r2, r3, r5, r9, fp}
 8000050:	08000a2d 	stmdaeq	r0, {r0, r2, r3, r5, r9, fp}
 8000054:	08000a2d 	stmdaeq	r0, {r0, r2, r3, r5, r9, fp}
 8000058:	080004fd 	stmdaeq	r0, {r0, r2, r3, r4, r5, r6, r7, sl}
 800005c:	08000521 	stmdaeq	r0, {r0, r5, r8, sl}
 8000060:	08000545 	stmdaeq	r0, {r0, r2, r6, r8, sl}
 8000064:	08000569 	stmdaeq	r0, {r0, r3, r5, r6, r8, sl}
 8000068:	0800058d 	stmdaeq	r0, {r0, r2, r3, r7, r8, sl}
 800006c:	08000a2d 	stmdaeq	r0, {r0, r2, r3, r5, r9, fp}
 8000070:	08000a2d 	stmdaeq	r0, {r0, r2, r3, r5, r9, fp}
 8000074:	08000a2d 	stmdaeq	r0, {r0, r2, r3, r5, r9, fp}
 8000078:	08000a2d 	stmdaeq	r0, {r0, r2, r3, r5, r9, fp}
 800007c:	08000a2d 	stmdaeq	r0, {r0, r2, r3, r5, r9, fp}
 8000080:	08000a2d 	stmdaeq	r0, {r0, r2, r3, r5, r9, fp}
 8000084:	08000a2d 	stmdaeq	r0, {r0, r2, r3, r5, r9, fp}
 8000088:	08000a2d 	stmdaeq	r0, {r0, r2, r3, r5, r9, fp}
 800008c:	08000a2d 	stmdaeq	r0, {r0, r2, r3, r5, r9, fp}
 8000090:	08000a2d 	stmdaeq	r0, {r0, r2, r3, r5, r9, fp}
 8000094:	08000a2d 	stmdaeq	r0, {r0, r2, r3, r5, r9, fp}
 8000098:	08000a2d 	stmdaeq	r0, {r0, r2, r3, r5, r9, fp}
 800009c:	080005b1 	stmdaeq	r0, {r0, r4, r5, r7, r8, sl}
 80000a0:	08000a2d 	stmdaeq	r0, {r0, r2, r3, r5, r9, fp}
 80000a4:	08000a2d 	stmdaeq	r0, {r0, r2, r3, r5, r9, fp}
 80000a8:	08000a2d 	stmdaeq	r0, {r0, r2, r3, r5, r9, fp}
 80000ac:	08000a2d 	stmdaeq	r0, {r0, r2, r3, r5, r9, fp}
 80000b0:	08000a2d 	stmdaeq	r0, {r0, r2, r3, r5, r9, fp}
 80000b4:	08000a2d 	stmdaeq	r0, {r0, r2, r3, r5, r9, fp}
 80000b8:	08000a2d 	stmdaeq	r0, {r0, r2, r3, r5, r9, fp}
 80000bc:	08000a2d 	stmdaeq	r0, {r0, r2, r3, r5, r9, fp}
 80000c0:	08000a2d 	stmdaeq	r0, {r0, r2, r3, r5, r9, fp}
 80000c4:	08000a2d 	stmdaeq	r0, {r0, r2, r3, r5, r9, fp}
 80000c8:	08000a2d 	stmdaeq	r0, {r0, r2, r3, r5, r9, fp}
 80000cc:	08000a2d 	stmdaeq	r0, {r0, r2, r3, r5, r9, fp}
 80000d0:	08000a2d 	stmdaeq	r0, {r0, r2, r3, r5, r9, fp}
 80000d4:	08000a2d 	stmdaeq	r0, {r0, r2, r3, r5, r9, fp}
 80000d8:	08000a2d 	stmdaeq	r0, {r0, r2, r3, r5, r9, fp}
 80000dc:	08000a2d 	stmdaeq	r0, {r0, r2, r3, r5, r9, fp}
 80000e0:	0800066d 	stmdaeq	r0, {r0, r2, r3, r5, r6, r9, sl}
 80000e4:	08000a2d 	stmdaeq	r0, {r0, r2, r3, r5, r9, fp}
 80000e8:	00000000 	andeq	r0, r0, r0
 80000ec:	08000a2d 	stmdaeq	r0, {r0, r2, r3, r5, r9, fp}
 80000f0:	08000a2d 	stmdaeq	r0, {r0, r2, r3, r5, r9, fp}
 80000f4:	08000a2d 	stmdaeq	r0, {r0, r2, r3, r5, r9, fp}
 80000f8:	08000a2d 	stmdaeq	r0, {r0, r2, r3, r5, r9, fp}
 80000fc:	08000a2d 	stmdaeq	r0, {r0, r2, r3, r5, r9, fp}
 8000100:	08000a2d 	stmdaeq	r0, {r0, r2, r3, r5, r9, fp}
 8000104:	08000a2d 	stmdaeq	r0, {r0, r2, r3, r5, r9, fp}
 8000108:	08000a2d 	stmdaeq	r0, {r0, r2, r3, r5, r9, fp}
 800010c:	08000a2d 	stmdaeq	r0, {r0, r2, r3, r5, r9, fp}
 8000110:	08000a2d 	stmdaeq	r0, {r0, r2, r3, r5, r9, fp}
 8000114:	08000a2d 	stmdaeq	r0, {r0, r2, r3, r5, r9, fp}
 8000118:	08000a2d 	stmdaeq	r0, {r0, r2, r3, r5, r9, fp}
 800011c:	08000a2d 	stmdaeq	r0, {r0, r2, r3, r5, r9, fp}
 8000120:	08000a2d 	stmdaeq	r0, {r0, r2, r3, r5, r9, fp}
 8000124:	08000a2d 	stmdaeq	r0, {r0, r2, r3, r5, r9, fp}
 8000128:	08000a2d 	stmdaeq	r0, {r0, r2, r3, r5, r9, fp}
 800012c:	08000a2d 	stmdaeq	r0, {r0, r2, r3, r5, r9, fp}

Disassembly of section .text:

08000130 <__do_global_dtors_aux>:
 8000130:	b510      	push	{r4, lr}
 8000132:	4c05      	ldr	r4, [pc, #20]	; (8000148 <__do_global_dtors_aux+0x18>)
 8000134:	7823      	ldrb	r3, [r4, #0]
 8000136:	b933      	cbnz	r3, 8000146 <__do_global_dtors_aux+0x16>
 8000138:	4b04      	ldr	r3, [pc, #16]	; (800014c <__do_global_dtors_aux+0x1c>)
 800013a:	b113      	cbz	r3, 8000142 <__do_global_dtors_aux+0x12>
 800013c:	4804      	ldr	r0, [pc, #16]	; (8000150 <__do_global_dtors_aux+0x20>)
 800013e:	f3af 8000 	nop.w
 8000142:	2301      	movs	r3, #1
 8000144:	7023      	strb	r3, [r4, #0]
 8000146:	bd10      	pop	{r4, pc}
 8000148:	20000000 	andcs	r0, r0, r0
 800014c:	00000000 	andeq	r0, r0, r0
 8000150:	08000a78 	stmdaeq	r0, {r3, r4, r5, r6, r9, fp}

08000154 <frame_dummy>:
 8000154:	b508      	push	{r3, lr}
 8000156:	4b03      	ldr	r3, [pc, #12]	; (8000164 <frame_dummy+0x10>)
 8000158:	b11b      	cbz	r3, 8000162 <frame_dummy+0xe>
 800015a:	4903      	ldr	r1, [pc, #12]	; (8000168 <frame_dummy+0x14>)
 800015c:	4803      	ldr	r0, [pc, #12]	; (800016c <frame_dummy+0x18>)
 800015e:	f3af 8000 	nop.w
 8000162:	bd08      	pop	{r3, pc}
 8000164:	00000000 	andeq	r0, r0, r0
 8000168:	20000004 	andcs	r0, r0, r4
 800016c:	08000a78 	stmdaeq	r0, {r3, r4, r5, r6, r9, fp}

08000170 <Enable_NVIC>:
 8000170:	b480      	push	{r7}
 8000172:	b083      	sub	sp, #12
 8000174:	af00      	add	r7, sp, #0
 8000176:	4603      	mov	r3, r0
 8000178:	80fb      	strh	r3, [r7, #6]
 800017a:	88fb      	ldrh	r3, [r7, #6]
 800017c:	2b0f      	cmp	r3, #15
 800017e:	d854      	bhi.n	800022a <Enable_NVIC+0xba>
 8000180:	a201      	add	r2, pc, #4	; (adr r2, 8000188 <Enable_NVIC+0x18>)
 8000182:	f852 f023 	ldr.w	pc, [r2, r3, lsl #2]
 8000186:	bf00      	nop
 8000188:	080001c9 	stmdaeq	r0, {r0, r3, r6, r7, r8}
 800018c:	080001d7 	stmdaeq	r0, {r0, r1, r2, r4, r6, r7, r8}
 8000190:	080001e5 	stmdaeq	r0, {r0, r2, r5, r6, r7, r8}
 8000194:	080001f3 	stmdaeq	r0, {r0, r1, r4, r5, r6, r7, r8}
 8000198:	08000201 	stmdaeq	r0, {r0, r9}
 800019c:	0800020f 	stmdaeq	r0, {r0, r1, r2, r3, r9}
 80001a0:	0800020f 	stmdaeq	r0, {r0, r1, r2, r3, r9}
 80001a4:	0800020f 	stmdaeq	r0, {r0, r1, r2, r3, r9}
 80001a8:	0800020f 	stmdaeq	r0, {r0, r1, r2, r3, r9}
 80001ac:	0800020f 	stmdaeq	r0, {r0, r1, r2, r3, r9}
 80001b0:	0800020f 	stmdaeq	r0, {r0, r1, r2, r3, r9}
 80001b4:	0800021d 	stmdaeq	r0, {r0, r2, r3, r4, r9}
 80001b8:	0800021d 	stmdaeq	r0, {r0, r2, r3, r4, r9}
 80001bc:	0800021d 	stmdaeq	r0, {r0, r2, r3, r4, r9}
 80001c0:	0800021d 	stmdaeq	r0, {r0, r2, r3, r4, r9}
 80001c4:	0800021d 	stmdaeq	r0, {r0, r2, r3, r4, r9}
 80001c8:	4b1a      	ldr	r3, [pc, #104]	; (8000234 <Enable_NVIC+0xc4>)
 80001ca:	681b      	ldr	r3, [r3, #0]
 80001cc:	4a19      	ldr	r2, [pc, #100]	; (8000234 <Enable_NVIC+0xc4>)
 80001ce:	f043 0340 	orr.w	r3, r3, #64	; 0x40
 80001d2:	6013      	str	r3, [r2, #0]
 80001d4:	e029      	b.n	800022a <Enable_NVIC+0xba>
 80001d6:	4b17      	ldr	r3, [pc, #92]	; (8000234 <Enable_NVIC+0xc4>)
 80001d8:	681b      	ldr	r3, [r3, #0]
 80001da:	4a16      	ldr	r2, [pc, #88]	; (8000234 <Enable_NVIC+0xc4>)
 80001dc:	f043 0380 	orr.w	r3, r3, #128	; 0x80
 80001e0:	6013      	str	r3, [r2, #0]
 80001e2:	e022      	b.n	800022a <Enable_NVIC+0xba>
 80001e4:	4b13      	ldr	r3, [pc, #76]	; (8000234 <Enable_NVIC+0xc4>)
 80001e6:	681b      	ldr	r3, [r3, #0]
 80001e8:	4a12      	ldr	r2, [pc, #72]	; (8000234 <Enable_NVIC+0xc4>)
 80001ea:	f443 7380 	orr.w	r3, r3, #256	; 0x100
 80001ee:	6013      	str	r3, [r2, #0]
 80001f0:	e01b      	b.n	800022a <Enable_NVIC+0xba>
 80001f2:	4b10      	ldr	r3, [pc, #64]	; (8000234 <Enable_NVIC+0xc4>)
 80001f4:	681b      	ldr	r3, [r3, #0]
 80001f6:	4a0f      	ldr	r2, [pc, #60]	; (8000234 <Enable_NVIC+0xc4>)
 80001f8:	f443 7300 	orr.w	r3, r3, #512	; 0x200
 80001fc:	6013      	str	r3, [r2, #0]
 80001fe:	e014      	b.n	800022a <Enable_NVIC+0xba>
 8000200:	4b0c      	ldr	r3, [pc, #48]	; (8000234 <Enable_NVIC+0xc4>)
 8000202:	681b      	ldr	r3, [r3, #0]
 8000204:	4a0b      	ldr	r2, [pc, #44]	; (8000234 <Enable_NVIC+0xc4>)
 8000206:	f443 6380 	orr.w	r3, r3, #1024	; 0x400
 800020a:	6013      	str	r3, [r2, #0]
 800020c:	e00d      	b.n	800022a <Enable_NVIC+0xba>
 800020e:	4b09      	ldr	r3, [pc, #36]	; (8000234 <Enable_NVIC+0xc4>)
 8000210:	681b      	ldr	r3, [r3, #0]
 8000212:	4a08      	ldr	r2, [pc, #32]	; (8000234 <Enable_NVIC+0xc4>)
 8000214:	f443 0300 	orr.w	r3, r3, #8388608	; 0x800000
 8000218:	6013      	str	r3, [r2, #0]
 800021a:	e006      	b.n	800022a <Enable_NVIC+0xba>
 800021c:	4b06      	ldr	r3, [pc, #24]	; (8000238 <Enable_NVIC+0xc8>)
 800021e:	681b      	ldr	r3, [r3, #0]
 8000220:	4a05      	ldr	r2, [pc, #20]	; (8000238 <Enable_NVIC+0xc8>)
 8000222:	f443 7380 	orr.w	r3, r3, #256	; 0x100
 8000226:	6013      	str	r3, [r2, #0]
 8000228:	bf00      	nop
 800022a:	bf00      	nop
 800022c:	370c      	adds	r7, #12
 800022e:	46bd      	mov	sp, r7
 8000230:	bc80      	pop	{r7}
 8000232:	4770      	bx	lr
 8000234:	e000e100 	and	lr, r0, r0, lsl #2
 8000238:	e000e110 	and	lr, r0, r0, lsl r1

0800023c <Disable_NVIC>:
 800023c:	b480      	push	{r7}
 800023e:	b083      	sub	sp, #12
 8000240:	af00      	add	r7, sp, #0
 8000242:	4603      	mov	r3, r0
 8000244:	80fb      	strh	r3, [r7, #6]
 8000246:	88fb      	ldrh	r3, [r7, #6]
 8000248:	2b0f      	cmp	r3, #15
 800024a:	d854      	bhi.n	80002f6 <Disable_NVIC+0xba>
 800024c:	a201      	add	r2, pc, #4	; (adr r2, 8000254 <Disable_NVIC+0x18>)
 800024e:	f852 f023 	ldr.w	pc, [r2, r3, lsl #2]
 8000252:	bf00      	nop
 8000254:	08000295 	stmdaeq	r0, {r0, r2, r4, r7, r9}
 8000258:	080002a3 	stmdaeq	r0, {r0, r1, r5, r7, r9}
 800025c:	080002b1 	stmdaeq	r0, {r0, r4, r5, r7, r9}
 8000260:	080002bf 	stmdaeq	r0, {r0, r1, r2, r3, r4, r5, r7, r9}
 8000264:	080002cd 	stmdaeq	r0, {r0, r2, r3, r6, r7, r9}
 8000268:	080002db 	stmdaeq	r0, {r0, r1, r3, r4, r6, r7, r9}
 800026c:	080002db 	stmdaeq	r0, {r0, r1, r3, r4, r6, r7, r9}
 8000270:	080002db 	stmdaeq	r0, {r0, r1, r3, r4, r6, r7, r9}
 8000274:	080002db 	stmdaeq	r0, {r0, r1, r3, r4, r6, r7, r9}
 8000278:	080002db 	stmdaeq	r0, {r0, r1, r3, r4, r6, r7, r9}
 800027c:	080002db 	stmdaeq	r0, {r0, r1, r3, r4, r6, r7, r9}
 8000280:	080002e9 	stmdaeq	r0, {r0, r3, r5, r6, r7, r9}
 8000284:	080002e9 	stmdaeq	r0, {r0, r3, r5, r6, r7, r9}
 8000288:	080002e9 	stmdaeq	r0, {r0, r3, r5, r6, r7, r9}
 800028c:	080002e9 	stmdaeq	r0, {r0, r3, r5, r6, r7, r9}
 8000290:	080002e9 	stmdaeq	r0, {r0, r3, r5, r6, r7, r9}
 8000294:	4b1a      	ldr	r3, [pc, #104]	; (8000300 <Disable_NVIC+0xc4>)
 8000296:	681b      	ldr	r3, [r3, #0]
 8000298:	4a19      	ldr	r2, [pc, #100]	; (8000300 <Disable_NVIC+0xc4>)
 800029a:	f043 0340 	orr.w	r3, r3, #64	; 0x40
 800029e:	6013      	str	r3, [r2, #0]
 80002a0:	e029      	b.n	80002f6 <Disable_NVIC+0xba>
 80002a2:	4b17      	ldr	r3, [pc, #92]	; (8000300 <Disable_NVIC+0xc4>)
 80002a4:	681b      	ldr	r3, [r3, #0]
 80002a6:	4a16      	ldr	r2, [pc, #88]	; (8000300 <Disable_NVIC+0xc4>)
 80002a8:	f043 0380 	orr.w	r3, r3, #128	; 0x80
 80002ac:	6013      	str	r3, [r2, #0]
 80002ae:	e022      	b.n	80002f6 <Disable_NVIC+0xba>
 80002b0:	4b13      	ldr	r3, [pc, #76]	; (8000300 <Disable_NVIC+0xc4>)
 80002b2:	681b      	ldr	r3, [r3, #0]
 80002b4:	4a12      	ldr	r2, [pc, #72]	; (8000300 <Disable_NVIC+0xc4>)
 80002b6:	f443 7380 	orr.w	r3, r3, #256	; 0x100
 80002ba:	6013      	str	r3, [r2, #0]
 80002bc:	e01b      	b.n	80002f6 <Disable_NVIC+0xba>
 80002be:	4b10      	ldr	r3, [pc, #64]	; (8000300 <Disable_NVIC+0xc4>)
 80002c0:	681b      	ldr	r3, [r3, #0]
 80002c2:	4a0f      	ldr	r2, [pc, #60]	; (8000300 <Disable_NVIC+0xc4>)
 80002c4:	f443 7300 	orr.w	r3, r3, #512	; 0x200
 80002c8:	6013      	str	r3, [r2, #0]
 80002ca:	e014      	b.n	80002f6 <Disable_NVIC+0xba>
 80002cc:	4b0c      	ldr	r3, [pc, #48]	; (8000300 <Disable_NVIC+0xc4>)
 80002ce:	681b      	ldr	r3, [r3, #0]
 80002d0:	4a0b      	ldr	r2, [pc, #44]	; (8000300 <Disable_NVIC+0xc4>)
 80002d2:	f443 6380 	orr.w	r3, r3, #1024	; 0x400
 80002d6:	6013      	str	r3, [r2, #0]
 80002d8:	e00d      	b.n	80002f6 <Disable_NVIC+0xba>
 80002da:	4b09      	ldr	r3, [pc, #36]	; (8000300 <Disable_NVIC+0xc4>)
 80002dc:	681b      	ldr	r3, [r3, #0]
 80002de:	4a08      	ldr	r2, [pc, #32]	; (8000300 <Disable_NVIC+0xc4>)
 80002e0:	f443 0300 	orr.w	r3, r3, #8388608	; 0x800000
 80002e4:	6013      	str	r3, [r2, #0]
 80002e6:	e006      	b.n	80002f6 <Disable_NVIC+0xba>
 80002e8:	4b06      	ldr	r3, [pc, #24]	; (8000304 <Disable_NVIC+0xc8>)
 80002ea:	681b      	ldr	r3, [r3, #0]
 80002ec:	4a05      	ldr	r2, [pc, #20]	; (8000304 <Disable_NVIC+0xc8>)
 80002ee:	f443 7380 	orr.w	r3, r3, #256	; 0x100
 80002f2:	6013      	str	r3, [r2, #0]
 80002f4:	bf00      	nop
 80002f6:	bf00      	nop
 80002f8:	370c      	adds	r7, #12
 80002fa:	46bd      	mov	sp, r7
 80002fc:	bc80      	pop	{r7}
 80002fe:	4770      	bx	lr
 8000300:	e000e300 	and	lr, r0, r0, lsl #6
 8000304:	e000e310 	and	lr, r0, r0, lsl r3

08000308 <Update_EXTI>:
 8000308:	b580      	push	{r7, lr}
 800030a:	b084      	sub	sp, #16
 800030c:	af00      	add	r7, sp, #0
 800030e:	6078      	str	r0, [r7, #4]
 8000310:	2301      	movs	r3, #1
 8000312:	72bb      	strb	r3, [r7, #10]
 8000314:	687b      	ldr	r3, [r7, #4]
 8000316:	7a1b      	ldrb	r3, [r3, #8]
 8000318:	b29b      	uxth	r3, r3
 800031a:	813b      	strh	r3, [r7, #8]
 800031c:	687b      	ldr	r3, [r7, #4]
 800031e:	685b      	ldr	r3, [r3, #4]
 8000320:	f107 0208 	add.w	r2, r7, #8
 8000324:	4611      	mov	r1, r2
 8000326:	4618      	mov	r0, r3
 8000328:	f000 fa71 	bl	800080e <MCAL_GPIO_INIT>
 800032c:	687b      	ldr	r3, [r7, #4]
 800032e:	781b      	ldrb	r3, [r3, #0]
 8000330:	089b      	lsrs	r3, r3, #2
 8000332:	73fb      	strb	r3, [r7, #15]
 8000334:	687b      	ldr	r3, [r7, #4]
 8000336:	781b      	ldrb	r3, [r3, #0]
 8000338:	f003 0303 	and.w	r3, r3, #3
 800033c:	b2db      	uxtb	r3, r3
 800033e:	009b      	lsls	r3, r3, #2
 8000340:	73bb      	strb	r3, [r7, #14]
 8000342:	4a61      	ldr	r2, [pc, #388]	; (80004c8 <Update_EXTI+0x1c0>)
 8000344:	7bfb      	ldrb	r3, [r7, #15]
 8000346:	3302      	adds	r3, #2
 8000348:	f852 2023 	ldr.w	r2, [r2, r3, lsl #2]
 800034c:	7bbb      	ldrb	r3, [r7, #14]
 800034e:	210f      	movs	r1, #15
 8000350:	fa01 f303 	lsl.w	r3, r1, r3
 8000354:	43db      	mvns	r3, r3
 8000356:	4618      	mov	r0, r3
 8000358:	495b      	ldr	r1, [pc, #364]	; (80004c8 <Update_EXTI+0x1c0>)
 800035a:	7bfb      	ldrb	r3, [r7, #15]
 800035c:	4002      	ands	r2, r0
 800035e:	3302      	adds	r3, #2
 8000360:	f841 2023 	str.w	r2, [r1, r3, lsl #2]
 8000364:	4a58      	ldr	r2, [pc, #352]	; (80004c8 <Update_EXTI+0x1c0>)
 8000366:	7bfb      	ldrb	r3, [r7, #15]
 8000368:	3302      	adds	r3, #2
 800036a:	f852 2023 	ldr.w	r2, [r2, r3, lsl #2]
 800036e:	687b      	ldr	r3, [r7, #4]
 8000370:	685b      	ldr	r3, [r3, #4]
 8000372:	4956      	ldr	r1, [pc, #344]	; (80004cc <Update_EXTI+0x1c4>)
 8000374:	428b      	cmp	r3, r1
 8000376:	d016      	beq.n	80003a6 <Update_EXTI+0x9e>
 8000378:	687b      	ldr	r3, [r7, #4]
 800037a:	685b      	ldr	r3, [r3, #4]
 800037c:	4954      	ldr	r1, [pc, #336]	; (80004d0 <Update_EXTI+0x1c8>)
 800037e:	428b      	cmp	r3, r1
 8000380:	d00f      	beq.n	80003a2 <Update_EXTI+0x9a>
 8000382:	687b      	ldr	r3, [r7, #4]
 8000384:	685b      	ldr	r3, [r3, #4]
 8000386:	4953      	ldr	r1, [pc, #332]	; (80004d4 <Update_EXTI+0x1cc>)
 8000388:	428b      	cmp	r3, r1
 800038a:	d008      	beq.n	800039e <Update_EXTI+0x96>
 800038c:	687b      	ldr	r3, [r7, #4]
 800038e:	685b      	ldr	r3, [r3, #4]
 8000390:	4951      	ldr	r1, [pc, #324]	; (80004d8 <Update_EXTI+0x1d0>)
 8000392:	428b      	cmp	r3, r1
 8000394:	d101      	bne.n	800039a <Update_EXTI+0x92>
 8000396:	2303      	movs	r3, #3
 8000398:	e006      	b.n	80003a8 <Update_EXTI+0xa0>
 800039a:	2300      	movs	r3, #0
 800039c:	e004      	b.n	80003a8 <Update_EXTI+0xa0>
 800039e:	2302      	movs	r3, #2
 80003a0:	e002      	b.n	80003a8 <Update_EXTI+0xa0>
 80003a2:	2301      	movs	r3, #1
 80003a4:	e000      	b.n	80003a8 <Update_EXTI+0xa0>
 80003a6:	2300      	movs	r3, #0
 80003a8:	7bb9      	ldrb	r1, [r7, #14]
 80003aa:	408b      	lsls	r3, r1
 80003ac:	4618      	mov	r0, r3
 80003ae:	4946      	ldr	r1, [pc, #280]	; (80004c8 <Update_EXTI+0x1c0>)
 80003b0:	7bfb      	ldrb	r3, [r7, #15]
 80003b2:	4302      	orrs	r2, r0
 80003b4:	3302      	adds	r3, #2
 80003b6:	f841 2023 	str.w	r2, [r1, r3, lsl #2]
 80003ba:	4b48      	ldr	r3, [pc, #288]	; (80004dc <Update_EXTI+0x1d4>)
 80003bc:	689b      	ldr	r3, [r3, #8]
 80003be:	687a      	ldr	r2, [r7, #4]
 80003c0:	7812      	ldrb	r2, [r2, #0]
 80003c2:	4611      	mov	r1, r2
 80003c4:	2201      	movs	r2, #1
 80003c6:	408a      	lsls	r2, r1
 80003c8:	43d2      	mvns	r2, r2
 80003ca:	4611      	mov	r1, r2
 80003cc:	4a43      	ldr	r2, [pc, #268]	; (80004dc <Update_EXTI+0x1d4>)
 80003ce:	400b      	ands	r3, r1
 80003d0:	6093      	str	r3, [r2, #8]
 80003d2:	4b42      	ldr	r3, [pc, #264]	; (80004dc <Update_EXTI+0x1d4>)
 80003d4:	68db      	ldr	r3, [r3, #12]
 80003d6:	687a      	ldr	r2, [r7, #4]
 80003d8:	7812      	ldrb	r2, [r2, #0]
 80003da:	4611      	mov	r1, r2
 80003dc:	2201      	movs	r2, #1
 80003de:	408a      	lsls	r2, r1
 80003e0:	43d2      	mvns	r2, r2
 80003e2:	4611      	mov	r1, r2
 80003e4:	4a3d      	ldr	r2, [pc, #244]	; (80004dc <Update_EXTI+0x1d4>)
 80003e6:	400b      	ands	r3, r1
 80003e8:	60d3      	str	r3, [r2, #12]
 80003ea:	687b      	ldr	r3, [r7, #4]
 80003ec:	7b1b      	ldrb	r3, [r3, #12]
 80003ee:	2b00      	cmp	r3, #0
 80003f0:	d10b      	bne.n	800040a <Update_EXTI+0x102>
 80003f2:	4b3a      	ldr	r3, [pc, #232]	; (80004dc <Update_EXTI+0x1d4>)
 80003f4:	689b      	ldr	r3, [r3, #8]
 80003f6:	687a      	ldr	r2, [r7, #4]
 80003f8:	7812      	ldrb	r2, [r2, #0]
 80003fa:	4611      	mov	r1, r2
 80003fc:	2201      	movs	r2, #1
 80003fe:	408a      	lsls	r2, r1
 8000400:	4611      	mov	r1, r2
 8000402:	4a36      	ldr	r2, [pc, #216]	; (80004dc <Update_EXTI+0x1d4>)
 8000404:	430b      	orrs	r3, r1
 8000406:	6093      	str	r3, [r2, #8]
 8000408:	e029      	b.n	800045e <Update_EXTI+0x156>
 800040a:	687b      	ldr	r3, [r7, #4]
 800040c:	7b1b      	ldrb	r3, [r3, #12]
 800040e:	2b01      	cmp	r3, #1
 8000410:	d10b      	bne.n	800042a <Update_EXTI+0x122>
 8000412:	4b32      	ldr	r3, [pc, #200]	; (80004dc <Update_EXTI+0x1d4>)
 8000414:	68db      	ldr	r3, [r3, #12]
 8000416:	687a      	ldr	r2, [r7, #4]
 8000418:	7812      	ldrb	r2, [r2, #0]
 800041a:	4611      	mov	r1, r2
 800041c:	2201      	movs	r2, #1
 800041e:	408a      	lsls	r2, r1
 8000420:	4611      	mov	r1, r2
 8000422:	4a2e      	ldr	r2, [pc, #184]	; (80004dc <Update_EXTI+0x1d4>)
 8000424:	430b      	orrs	r3, r1
 8000426:	60d3      	str	r3, [r2, #12]
 8000428:	e019      	b.n	800045e <Update_EXTI+0x156>
 800042a:	687b      	ldr	r3, [r7, #4]
 800042c:	7b1b      	ldrb	r3, [r3, #12]
 800042e:	2b02      	cmp	r3, #2
 8000430:	d115      	bne.n	800045e <Update_EXTI+0x156>
 8000432:	4b2a      	ldr	r3, [pc, #168]	; (80004dc <Update_EXTI+0x1d4>)
 8000434:	689b      	ldr	r3, [r3, #8]
 8000436:	687a      	ldr	r2, [r7, #4]
 8000438:	7812      	ldrb	r2, [r2, #0]
 800043a:	4611      	mov	r1, r2
 800043c:	2201      	movs	r2, #1
 800043e:	408a      	lsls	r2, r1
 8000440:	4611      	mov	r1, r2
 8000442:	4a26      	ldr	r2, [pc, #152]	; (80004dc <Update_EXTI+0x1d4>)
 8000444:	430b      	orrs	r3, r1
 8000446:	6093      	str	r3, [r2, #8]
 8000448:	4b24      	ldr	r3, [pc, #144]	; (80004dc <Update_EXTI+0x1d4>)
 800044a:	68db      	ldr	r3, [r3, #12]
 800044c:	687a      	ldr	r2, [r7, #4]
 800044e:	7812      	ldrb	r2, [r2, #0]
 8000450:	4611      	mov	r1, r2
 8000452:	2201      	movs	r2, #1
 8000454:	408a      	lsls	r2, r1
 8000456:	4611      	mov	r1, r2
 8000458:	4a20      	ldr	r2, [pc, #128]	; (80004dc <Update_EXTI+0x1d4>)
 800045a:	430b      	orrs	r3, r1
 800045c:	60d3      	str	r3, [r2, #12]
 800045e:	687b      	ldr	r3, [r7, #4]
 8000460:	781b      	ldrb	r3, [r3, #0]
 8000462:	4619      	mov	r1, r3
 8000464:	687b      	ldr	r3, [r7, #4]
 8000466:	691b      	ldr	r3, [r3, #16]
 8000468:	4a1d      	ldr	r2, [pc, #116]	; (80004e0 <Update_EXTI+0x1d8>)
 800046a:	f842 3021 	str.w	r3, [r2, r1, lsl #2]
 800046e:	687b      	ldr	r3, [r7, #4]
 8000470:	7b5b      	ldrb	r3, [r3, #13]
 8000472:	2b01      	cmp	r3, #1
 8000474:	d111      	bne.n	800049a <Update_EXTI+0x192>
 8000476:	4b19      	ldr	r3, [pc, #100]	; (80004dc <Update_EXTI+0x1d4>)
 8000478:	681b      	ldr	r3, [r3, #0]
 800047a:	687a      	ldr	r2, [r7, #4]
 800047c:	7812      	ldrb	r2, [r2, #0]
 800047e:	4611      	mov	r1, r2
 8000480:	2201      	movs	r2, #1
 8000482:	408a      	lsls	r2, r1
 8000484:	4611      	mov	r1, r2
 8000486:	4a15      	ldr	r2, [pc, #84]	; (80004dc <Update_EXTI+0x1d4>)
 8000488:	430b      	orrs	r3, r1
 800048a:	6013      	str	r3, [r2, #0]
 800048c:	687b      	ldr	r3, [r7, #4]
 800048e:	781b      	ldrb	r3, [r3, #0]
 8000490:	b29b      	uxth	r3, r3
 8000492:	4618      	mov	r0, r3
 8000494:	f7ff fe6c 	bl	8000170 <Enable_NVIC>
 8000498:	e011      	b.n	80004be <Update_EXTI+0x1b6>
 800049a:	4b10      	ldr	r3, [pc, #64]	; (80004dc <Update_EXTI+0x1d4>)
 800049c:	681b      	ldr	r3, [r3, #0]
 800049e:	687a      	ldr	r2, [r7, #4]
 80004a0:	7812      	ldrb	r2, [r2, #0]
 80004a2:	4611      	mov	r1, r2
 80004a4:	2201      	movs	r2, #1
 80004a6:	408a      	lsls	r2, r1
 80004a8:	43d2      	mvns	r2, r2
 80004aa:	4611      	mov	r1, r2
 80004ac:	4a0b      	ldr	r2, [pc, #44]	; (80004dc <Update_EXTI+0x1d4>)
 80004ae:	400b      	ands	r3, r1
 80004b0:	6013      	str	r3, [r2, #0]
 80004b2:	687b      	ldr	r3, [r7, #4]
 80004b4:	781b      	ldrb	r3, [r3, #0]
 80004b6:	b29b      	uxth	r3, r3
 80004b8:	4618      	mov	r0, r3
 80004ba:	f7ff febf 	bl	800023c <Disable_NVIC>
 80004be:	bf00      	nop
 80004c0:	3710      	adds	r7, #16
 80004c2:	46bd      	mov	sp, r7
 80004c4:	bd80      	pop	{r7, pc}
 80004c6:	bf00      	nop
 80004c8:	40010000 	andmi	r0, r1, r0
 80004cc:	40010800 	andmi	r0, r1, r0, lsl #16
 80004d0:	40010c00 	andmi	r0, r1, r0, lsl #24
 80004d4:	40011000 	andmi	r1, r1, r0
 80004d8:	40011400 	andmi	r1, r1, r0, lsl #8
 80004dc:	40010400 	andmi	r0, r1, r0, lsl #8
 80004e0:	2000001c 	andcs	r0, r0, ip, lsl r0

080004e4 <MCAL_EXTI_GPIO_Init>:
 80004e4:	b580      	push	{r7, lr}
 80004e6:	b082      	sub	sp, #8
 80004e8:	af00      	add	r7, sp, #0
 80004ea:	6078      	str	r0, [r7, #4]
 80004ec:	6878      	ldr	r0, [r7, #4]
 80004ee:	f7ff ff0b 	bl	8000308 <Update_EXTI>
 80004f2:	bf00      	nop
 80004f4:	3708      	adds	r7, #8
 80004f6:	46bd      	mov	sp, r7
 80004f8:	bd80      	pop	{r7, pc}
	...

080004fc <EXTI0_IRQHandler>:
 80004fc:	b580      	push	{r7, lr}
 80004fe:	af00      	add	r7, sp, #0
 8000500:	4b05      	ldr	r3, [pc, #20]	; (8000518 <EXTI0_IRQHandler+0x1c>)
 8000502:	695b      	ldr	r3, [r3, #20]
 8000504:	4a04      	ldr	r2, [pc, #16]	; (8000518 <EXTI0_IRQHandler+0x1c>)
 8000506:	f043 0301 	orr.w	r3, r3, #1
 800050a:	6153      	str	r3, [r2, #20]
 800050c:	4b03      	ldr	r3, [pc, #12]	; (800051c <EXTI0_IRQHandler+0x20>)
 800050e:	681b      	ldr	r3, [r3, #0]
 8000510:	4798      	blx	r3
 8000512:	bf00      	nop
 8000514:	bd80      	pop	{r7, pc}
 8000516:	bf00      	nop
 8000518:	40010400 	andmi	r0, r1, r0, lsl #8
 800051c:	2000001c 	andcs	r0, r0, ip, lsl r0

08000520 <EXTI1_IRQHandler>:
 8000520:	b580      	push	{r7, lr}
 8000522:	af00      	add	r7, sp, #0
 8000524:	4b05      	ldr	r3, [pc, #20]	; (800053c <EXTI1_IRQHandler+0x1c>)
 8000526:	695b      	ldr	r3, [r3, #20]
 8000528:	4a04      	ldr	r2, [pc, #16]	; (800053c <EXTI1_IRQHandler+0x1c>)
 800052a:	f043 0302 	orr.w	r3, r3, #2
 800052e:	6153      	str	r3, [r2, #20]
 8000530:	4b03      	ldr	r3, [pc, #12]	; (8000540 <EXTI1_IRQHandler+0x20>)
 8000532:	685b      	ldr	r3, [r3, #4]
 8000534:	4798      	blx	r3
 8000536:	bf00      	nop
 8000538:	bd80      	pop	{r7, pc}
 800053a:	bf00      	nop
 800053c:	40010400 	andmi	r0, r1, r0, lsl #8
 8000540:	2000001c 	andcs	r0, r0, ip, lsl r0

08000544 <EXTI2_IRQHandler>:
 8000544:	b580      	push	{r7, lr}
 8000546:	af00      	add	r7, sp, #0
 8000548:	4b05      	ldr	r3, [pc, #20]	; (8000560 <EXTI2_IRQHandler+0x1c>)
 800054a:	695b      	ldr	r3, [r3, #20]
 800054c:	4a04      	ldr	r2, [pc, #16]	; (8000560 <EXTI2_IRQHandler+0x1c>)
 800054e:	f043 0304 	orr.w	r3, r3, #4
 8000552:	6153      	str	r3, [r2, #20]
 8000554:	4b03      	ldr	r3, [pc, #12]	; (8000564 <EXTI2_IRQHandler+0x20>)
 8000556:	689b      	ldr	r3, [r3, #8]
 8000558:	4798      	blx	r3
 800055a:	bf00      	nop
 800055c:	bd80      	pop	{r7, pc}
 800055e:	bf00      	nop
 8000560:	40010400 	andmi	r0, r1, r0, lsl #8
 8000564:	2000001c 	andcs	r0, r0, ip, lsl r0

08000568 <EXTI3_IRQHandler>:
 8000568:	b580      	push	{r7, lr}
 800056a:	af00      	add	r7, sp, #0
 800056c:	4b05      	ldr	r3, [pc, #20]	; (8000584 <EXTI3_IRQHandler+0x1c>)
 800056e:	695b      	ldr	r3, [r3, #20]
 8000570:	4a04      	ldr	r2, [pc, #16]	; (8000584 <EXTI3_IRQHandler+0x1c>)
 8000572:	f043 0308 	orr.w	r3, r3, #8
 8000576:	6153      	str	r3, [r2, #20]
 8000578:	4b03      	ldr	r3, [pc, #12]	; (8000588 <EXTI3_IRQHandler+0x20>)
 800057a:	68db      	ldr	r3, [r3, #12]
 800057c:	4798      	blx	r3
 800057e:	bf00      	nop
 8000580:	bd80      	pop	{r7, pc}
 8000582:	bf00      	nop
 8000584:	40010400 	andmi	r0, r1, r0, lsl #8
 8000588:	2000001c 	andcs	r0, r0, ip, lsl r0

0800058c <EXTI4_IRQHandler>:
 800058c:	b580      	push	{r7, lr}
 800058e:	af00      	add	r7, sp, #0
 8000590:	4b05      	ldr	r3, [pc, #20]	; (80005a8 <EXTI4_IRQHandler+0x1c>)
 8000592:	695b      	ldr	r3, [r3, #20]
 8000594:	4a04      	ldr	r2, [pc, #16]	; (80005a8 <EXTI4_IRQHandler+0x1c>)
 8000596:	f043 0310 	orr.w	r3, r3, #16
 800059a:	6153      	str	r3, [r2, #20]
 800059c:	4b03      	ldr	r3, [pc, #12]	; (80005ac <EXTI4_IRQHandler+0x20>)
 800059e:	691b      	ldr	r3, [r3, #16]
 80005a0:	4798      	blx	r3
 80005a2:	bf00      	nop
 80005a4:	bd80      	pop	{r7, pc}
 80005a6:	bf00      	nop
 80005a8:	40010400 	andmi	r0, r1, r0, lsl #8
 80005ac:	2000001c 	andcs	r0, r0, ip, lsl r0

080005b0 <EXTI9_5_IRQHandler>:
 80005b0:	b580      	push	{r7, lr}
 80005b2:	af00      	add	r7, sp, #0
 80005b4:	4b2b      	ldr	r3, [pc, #172]	; (8000664 <EXTI9_5_IRQHandler+0xb4>)
 80005b6:	695b      	ldr	r3, [r3, #20]
 80005b8:	4a2a      	ldr	r2, [pc, #168]	; (8000664 <EXTI9_5_IRQHandler+0xb4>)
 80005ba:	f003 0320 	and.w	r3, r3, #32
 80005be:	6153      	str	r3, [r2, #20]
 80005c0:	2b00      	cmp	r3, #0
 80005c2:	d008      	beq.n	80005d6 <EXTI9_5_IRQHandler+0x26>
 80005c4:	4b27      	ldr	r3, [pc, #156]	; (8000664 <EXTI9_5_IRQHandler+0xb4>)
 80005c6:	695b      	ldr	r3, [r3, #20]
 80005c8:	4a26      	ldr	r2, [pc, #152]	; (8000664 <EXTI9_5_IRQHandler+0xb4>)
 80005ca:	f043 0320 	orr.w	r3, r3, #32
 80005ce:	6153      	str	r3, [r2, #20]
 80005d0:	4b25      	ldr	r3, [pc, #148]	; (8000668 <EXTI9_5_IRQHandler+0xb8>)
 80005d2:	695b      	ldr	r3, [r3, #20]
 80005d4:	4798      	blx	r3
 80005d6:	4b23      	ldr	r3, [pc, #140]	; (8000664 <EXTI9_5_IRQHandler+0xb4>)
 80005d8:	695b      	ldr	r3, [r3, #20]
 80005da:	4a22      	ldr	r2, [pc, #136]	; (8000664 <EXTI9_5_IRQHandler+0xb4>)
 80005dc:	f003 0340 	and.w	r3, r3, #64	; 0x40
 80005e0:	6153      	str	r3, [r2, #20]
 80005e2:	2b00      	cmp	r3, #0
 80005e4:	d008      	beq.n	80005f8 <EXTI9_5_IRQHandler+0x48>
 80005e6:	4b1f      	ldr	r3, [pc, #124]	; (8000664 <EXTI9_5_IRQHandler+0xb4>)
 80005e8:	695b      	ldr	r3, [r3, #20]
 80005ea:	4a1e      	ldr	r2, [pc, #120]	; (8000664 <EXTI9_5_IRQHandler+0xb4>)
 80005ec:	f043 0340 	orr.w	r3, r3, #64	; 0x40
 80005f0:	6153      	str	r3, [r2, #20]
 80005f2:	4b1d      	ldr	r3, [pc, #116]	; (8000668 <EXTI9_5_IRQHandler+0xb8>)
 80005f4:	699b      	ldr	r3, [r3, #24]
 80005f6:	4798      	blx	r3
 80005f8:	4b1a      	ldr	r3, [pc, #104]	; (8000664 <EXTI9_5_IRQHandler+0xb4>)
 80005fa:	695b      	ldr	r3, [r3, #20]
 80005fc:	4a19      	ldr	r2, [pc, #100]	; (8000664 <EXTI9_5_IRQHandler+0xb4>)
 80005fe:	f003 0380 	and.w	r3, r3, #128	; 0x80
 8000602:	6153      	str	r3, [r2, #20]
 8000604:	2b00      	cmp	r3, #0
 8000606:	d008      	beq.n	800061a <EXTI9_5_IRQHandler+0x6a>
 8000608:	4b16      	ldr	r3, [pc, #88]	; (8000664 <EXTI9_5_IRQHandler+0xb4>)
 800060a:	695b      	ldr	r3, [r3, #20]
 800060c:	4a15      	ldr	r2, [pc, #84]	; (8000664 <EXTI9_5_IRQHandler+0xb4>)
 800060e:	f043 0380 	orr.w	r3, r3, #128	; 0x80
 8000612:	6153      	str	r3, [r2, #20]
 8000614:	4b14      	ldr	r3, [pc, #80]	; (8000668 <EXTI9_5_IRQHandler+0xb8>)
 8000616:	69db      	ldr	r3, [r3, #28]
 8000618:	4798      	blx	r3
 800061a:	4b12      	ldr	r3, [pc, #72]	; (8000664 <EXTI9_5_IRQHandler+0xb4>)
 800061c:	695b      	ldr	r3, [r3, #20]
 800061e:	4a11      	ldr	r2, [pc, #68]	; (8000664 <EXTI9_5_IRQHandler+0xb4>)
 8000620:	f403 7380 	and.w	r3, r3, #256	; 0x100
 8000624:	6153      	str	r3, [r2, #20]
 8000626:	2b00      	cmp	r3, #0
 8000628:	d008      	beq.n	800063c <EXTI9_5_IRQHandler+0x8c>
 800062a:	4b0e      	ldr	r3, [pc, #56]	; (8000664 <EXTI9_5_IRQHandler+0xb4>)
 800062c:	695b      	ldr	r3, [r3, #20]
 800062e:	4a0d      	ldr	r2, [pc, #52]	; (8000664 <EXTI9_5_IRQHandler+0xb4>)
 8000630:	f443 7380 	orr.w	r3, r3, #256	; 0x100
 8000634:	6153      	str	r3, [r2, #20]
 8000636:	4b0c      	ldr	r3, [pc, #48]	; (8000668 <EXTI9_5_IRQHandler+0xb8>)
 8000638:	6a1b      	ldr	r3, [r3, #32]
 800063a:	4798      	blx	r3
 800063c:	4b09      	ldr	r3, [pc, #36]	; (8000664 <EXTI9_5_IRQHandler+0xb4>)
 800063e:	695b      	ldr	r3, [r3, #20]
 8000640:	4a08      	ldr	r2, [pc, #32]	; (8000664 <EXTI9_5_IRQHandler+0xb4>)
 8000642:	f403 7300 	and.w	r3, r3, #512	; 0x200
 8000646:	6153      	str	r3, [r2, #20]
 8000648:	2b00      	cmp	r3, #0
 800064a:	d008      	beq.n	800065e <EXTI9_5_IRQHandler+0xae>
 800064c:	4b05      	ldr	r3, [pc, #20]	; (8000664 <EXTI9_5_IRQHandler+0xb4>)
 800064e:	695b      	ldr	r3, [r3, #20]
 8000650:	4a04      	ldr	r2, [pc, #16]	; (8000664 <EXTI9_5_IRQHandler+0xb4>)
 8000652:	f443 7300 	orr.w	r3, r3, #512	; 0x200
 8000656:	6153      	str	r3, [r2, #20]
 8000658:	4b03      	ldr	r3, [pc, #12]	; (8000668 <EXTI9_5_IRQHandler+0xb8>)
 800065a:	6a5b      	ldr	r3, [r3, #36]	; 0x24
 800065c:	4798      	blx	r3
 800065e:	bf00      	nop
 8000660:	bd80      	pop	{r7, pc}
 8000662:	bf00      	nop
 8000664:	40010400 	andmi	r0, r1, r0, lsl #8
 8000668:	2000001c 	andcs	r0, r0, ip, lsl r0

0800066c <EXTI15_10_IRQHandler>:
 800066c:	b580      	push	{r7, lr}
 800066e:	af00      	add	r7, sp, #0
 8000670:	4b33      	ldr	r3, [pc, #204]	; (8000740 <EXTI15_10_IRQHandler+0xd4>)
 8000672:	695b      	ldr	r3, [r3, #20]
 8000674:	4a32      	ldr	r2, [pc, #200]	; (8000740 <EXTI15_10_IRQHandler+0xd4>)
 8000676:	f403 6380 	and.w	r3, r3, #1024	; 0x400
 800067a:	6153      	str	r3, [r2, #20]
 800067c:	2b00      	cmp	r3, #0
 800067e:	d008      	beq.n	8000692 <EXTI15_10_IRQHandler+0x26>
 8000680:	4b2f      	ldr	r3, [pc, #188]	; (8000740 <EXTI15_10_IRQHandler+0xd4>)
 8000682:	695b      	ldr	r3, [r3, #20]
 8000684:	4a2e      	ldr	r2, [pc, #184]	; (8000740 <EXTI15_10_IRQHandler+0xd4>)
 8000686:	f443 6380 	orr.w	r3, r3, #1024	; 0x400
 800068a:	6153      	str	r3, [r2, #20]
 800068c:	4b2d      	ldr	r3, [pc, #180]	; (8000744 <EXTI15_10_IRQHandler+0xd8>)
 800068e:	6a9b      	ldr	r3, [r3, #40]	; 0x28
 8000690:	4798      	blx	r3
 8000692:	4b2b      	ldr	r3, [pc, #172]	; (8000740 <EXTI15_10_IRQHandler+0xd4>)
 8000694:	695b      	ldr	r3, [r3, #20]
 8000696:	4a2a      	ldr	r2, [pc, #168]	; (8000740 <EXTI15_10_IRQHandler+0xd4>)
 8000698:	f403 6300 	and.w	r3, r3, #2048	; 0x800
 800069c:	6153      	str	r3, [r2, #20]
 800069e:	2b00      	cmp	r3, #0
 80006a0:	d008      	beq.n	80006b4 <EXTI15_10_IRQHandler+0x48>
 80006a2:	4b27      	ldr	r3, [pc, #156]	; (8000740 <EXTI15_10_IRQHandler+0xd4>)
 80006a4:	695b      	ldr	r3, [r3, #20]
 80006a6:	4a26      	ldr	r2, [pc, #152]	; (8000740 <EXTI15_10_IRQHandler+0xd4>)
 80006a8:	f443 6300 	orr.w	r3, r3, #2048	; 0x800
 80006ac:	6153      	str	r3, [r2, #20]
 80006ae:	4b25      	ldr	r3, [pc, #148]	; (8000744 <EXTI15_10_IRQHandler+0xd8>)
 80006b0:	6adb      	ldr	r3, [r3, #44]	; 0x2c
 80006b2:	4798      	blx	r3
 80006b4:	4b22      	ldr	r3, [pc, #136]	; (8000740 <EXTI15_10_IRQHandler+0xd4>)
 80006b6:	695b      	ldr	r3, [r3, #20]
 80006b8:	4a21      	ldr	r2, [pc, #132]	; (8000740 <EXTI15_10_IRQHandler+0xd4>)
 80006ba:	f403 5380 	and.w	r3, r3, #4096	; 0x1000
 80006be:	6153      	str	r3, [r2, #20]
 80006c0:	2b00      	cmp	r3, #0
 80006c2:	d008      	beq.n	80006d6 <EXTI15_10_IRQHandler+0x6a>
 80006c4:	4b1e      	ldr	r3, [pc, #120]	; (8000740 <EXTI15_10_IRQHandler+0xd4>)
 80006c6:	695b      	ldr	r3, [r3, #20]
 80006c8:	4a1d      	ldr	r2, [pc, #116]	; (8000740 <EXTI15_10_IRQHandler+0xd4>)
 80006ca:	f443 5380 	orr.w	r3, r3, #4096	; 0x1000
 80006ce:	6153      	str	r3, [r2, #20]
 80006d0:	4b1c      	ldr	r3, [pc, #112]	; (8000744 <EXTI15_10_IRQHandler+0xd8>)
 80006d2:	6b1b      	ldr	r3, [r3, #48]	; 0x30
 80006d4:	4798      	blx	r3
 80006d6:	4b1a      	ldr	r3, [pc, #104]	; (8000740 <EXTI15_10_IRQHandler+0xd4>)
 80006d8:	695b      	ldr	r3, [r3, #20]
 80006da:	4a19      	ldr	r2, [pc, #100]	; (8000740 <EXTI15_10_IRQHandler+0xd4>)
 80006dc:	f403 5300 	and.w	r3, r3, #8192	; 0x2000
 80006e0:	6153      	str	r3, [r2, #20]
 80006e2:	2b00      	cmp	r3, #0
 80006e4:	d008      	beq.n	80006f8 <EXTI15_10_IRQHandler+0x8c>
 80006e6:	4b16      	ldr	r3, [pc, #88]	; (8000740 <EXTI15_10_IRQHandler+0xd4>)
 80006e8:	695b      	ldr	r3, [r3, #20]
 80006ea:	4a15      	ldr	r2, [pc, #84]	; (8000740 <EXTI15_10_IRQHandler+0xd4>)
 80006ec:	f443 5300 	orr.w	r3, r3, #8192	; 0x2000
 80006f0:	6153      	str	r3, [r2, #20]
 80006f2:	4b14      	ldr	r3, [pc, #80]	; (8000744 <EXTI15_10_IRQHandler+0xd8>)
 80006f4:	6b5b      	ldr	r3, [r3, #52]	; 0x34
 80006f6:	4798      	blx	r3
 80006f8:	4b11      	ldr	r3, [pc, #68]	; (8000740 <EXTI15_10_IRQHandler+0xd4>)
 80006fa:	695b      	ldr	r3, [r3, #20]
 80006fc:	4a10      	ldr	r2, [pc, #64]	; (8000740 <EXTI15_10_IRQHandler+0xd4>)
 80006fe:	f403 4380 	and.w	r3, r3, #16384	; 0x4000
 8000702:	6153      	str	r3, [r2, #20]
 8000704:	2b00      	cmp	r3, #0
 8000706:	d008      	beq.n	800071a <EXTI15_10_IRQHandler+0xae>
 8000708:	4b0d      	ldr	r3, [pc, #52]	; (8000740 <EXTI15_10_IRQHandler+0xd4>)
 800070a:	695b      	ldr	r3, [r3, #20]
 800070c:	4a0c      	ldr	r2, [pc, #48]	; (8000740 <EXTI15_10_IRQHandler+0xd4>)
 800070e:	f443 4380 	orr.w	r3, r3, #16384	; 0x4000
 8000712:	6153      	str	r3, [r2, #20]
 8000714:	4b0b      	ldr	r3, [pc, #44]	; (8000744 <EXTI15_10_IRQHandler+0xd8>)
 8000716:	6b9b      	ldr	r3, [r3, #56]	; 0x38
 8000718:	4798      	blx	r3
 800071a:	4b09      	ldr	r3, [pc, #36]	; (8000740 <EXTI15_10_IRQHandler+0xd4>)
 800071c:	695b      	ldr	r3, [r3, #20]
 800071e:	4a08      	ldr	r2, [pc, #32]	; (8000740 <EXTI15_10_IRQHandler+0xd4>)
 8000720:	f403 4300 	and.w	r3, r3, #32768	; 0x8000
 8000724:	6153      	str	r3, [r2, #20]
 8000726:	2b00      	cmp	r3, #0
 8000728:	d008      	beq.n	800073c <EXTI15_10_IRQHandler+0xd0>
 800072a:	4b05      	ldr	r3, [pc, #20]	; (8000740 <EXTI15_10_IRQHandler+0xd4>)
 800072c:	695b      	ldr	r3, [r3, #20]
 800072e:	4a04      	ldr	r2, [pc, #16]	; (8000740 <EXTI15_10_IRQHandler+0xd4>)
 8000730:	f443 4300 	orr.w	r3, r3, #32768	; 0x8000
 8000734:	6153      	str	r3, [r2, #20]
 8000736:	4b03      	ldr	r3, [pc, #12]	; (8000744 <EXTI15_10_IRQHandler+0xd8>)
 8000738:	6bdb      	ldr	r3, [r3, #60]	; 0x3c
 800073a:	4798      	blx	r3
 800073c:	bf00      	nop
 800073e:	bd80      	pop	{r7, pc}
 8000740:	40010400 	andmi	r0, r1, r0, lsl #8
 8000744:	2000001c 	andcs	r0, r0, ip, lsl r0

08000748 <Get_CRLH_Postion>:
 8000748:	b480      	push	{r7}
 800074a:	b083      	sub	sp, #12
 800074c:	af00      	add	r7, sp, #0
 800074e:	4603      	mov	r3, r0
 8000750:	80fb      	strh	r3, [r7, #6]
 8000752:	88fb      	ldrh	r3, [r7, #6]
 8000754:	2b80      	cmp	r3, #128	; 0x80
 8000756:	d042      	beq.n	80007de <Get_CRLH_Postion+0x96>
 8000758:	2b80      	cmp	r3, #128	; 0x80
 800075a:	dc11      	bgt.n	8000780 <Get_CRLH_Postion+0x38>
 800075c:	2b08      	cmp	r3, #8
 800075e:	d036      	beq.n	80007ce <Get_CRLH_Postion+0x86>
 8000760:	2b08      	cmp	r3, #8
 8000762:	dc06      	bgt.n	8000772 <Get_CRLH_Postion+0x2a>
 8000764:	2b02      	cmp	r3, #2
 8000766:	d02e      	beq.n	80007c6 <Get_CRLH_Postion+0x7e>
 8000768:	2b04      	cmp	r3, #4
 800076a:	d02e      	beq.n	80007ca <Get_CRLH_Postion+0x82>
 800076c:	2b01      	cmp	r3, #1
 800076e:	d028      	beq.n	80007c2 <Get_CRLH_Postion+0x7a>
 8000770:	e047      	b.n	8000802 <Get_CRLH_Postion+0xba>
 8000772:	2b20      	cmp	r3, #32
 8000774:	d02f      	beq.n	80007d6 <Get_CRLH_Postion+0x8e>
 8000776:	2b40      	cmp	r3, #64	; 0x40
 8000778:	d02f      	beq.n	80007da <Get_CRLH_Postion+0x92>
 800077a:	2b10      	cmp	r3, #16
 800077c:	d029      	beq.n	80007d2 <Get_CRLH_Postion+0x8a>
 800077e:	e040      	b.n	8000802 <Get_CRLH_Postion+0xba>
 8000780:	f5b3 6f00 	cmp.w	r3, #2048	; 0x800
 8000784:	d033      	beq.n	80007ee <Get_CRLH_Postion+0xa6>
 8000786:	f5b3 6f00 	cmp.w	r3, #2048	; 0x800
 800078a:	dc09      	bgt.n	80007a0 <Get_CRLH_Postion+0x58>
 800078c:	f5b3 7f00 	cmp.w	r3, #512	; 0x200
 8000790:	d029      	beq.n	80007e6 <Get_CRLH_Postion+0x9e>
 8000792:	f5b3 6f80 	cmp.w	r3, #1024	; 0x400
 8000796:	d028      	beq.n	80007ea <Get_CRLH_Postion+0xa2>
 8000798:	f5b3 7f80 	cmp.w	r3, #256	; 0x100
 800079c:	d021      	beq.n	80007e2 <Get_CRLH_Postion+0x9a>
 800079e:	e030      	b.n	8000802 <Get_CRLH_Postion+0xba>
 80007a0:	f5b3 5f00 	cmp.w	r3, #8192	; 0x2000
 80007a4:	d027      	beq.n	80007f6 <Get_CRLH_Postion+0xae>
 80007a6:	f5b3 5f00 	cmp.w	r3, #8192	; 0x2000
 80007aa:	dc03      	bgt.n	80007b4 <Get_CRLH_Postion+0x6c>
 80007ac:	f5b3 5f80 	cmp.w	r3, #4096	; 0x1000
 80007b0:	d01f      	beq.n	80007f2 <Get_CRLH_Postion+0xaa>
 80007b2:	e026      	b.n	8000802 <Get_CRLH_Postion+0xba>
 80007b4:	f5b3 4f80 	cmp.w	r3, #16384	; 0x4000
 80007b8:	d01f      	beq.n	80007fa <Get_CRLH_Postion+0xb2>
 80007ba:	f5b3 4f00 	cmp.w	r3, #32768	; 0x8000
 80007be:	d01e      	beq.n	80007fe <Get_CRLH_Postion+0xb6>
 80007c0:	e01f      	b.n	8000802 <Get_CRLH_Postion+0xba>
 80007c2:	2300      	movs	r3, #0
 80007c4:	e01e      	b.n	8000804 <Get_CRLH_Postion+0xbc>
 80007c6:	2304      	movs	r3, #4
 80007c8:	e01c      	b.n	8000804 <Get_CRLH_Postion+0xbc>
 80007ca:	2308      	movs	r3, #8
 80007cc:	e01a      	b.n	8000804 <Get_CRLH_Postion+0xbc>
 80007ce:	230c      	movs	r3, #12
 80007d0:	e018      	b.n	8000804 <Get_CRLH_Postion+0xbc>
 80007d2:	2310      	movs	r3, #16
 80007d4:	e016      	b.n	8000804 <Get_CRLH_Postion+0xbc>
 80007d6:	2314      	movs	r3, #20
 80007d8:	e014      	b.n	8000804 <Get_CRLH_Postion+0xbc>
 80007da:	2318      	movs	r3, #24
 80007dc:	e012      	b.n	8000804 <Get_CRLH_Postion+0xbc>
 80007de:	231c      	movs	r3, #28
 80007e0:	e010      	b.n	8000804 <Get_CRLH_Postion+0xbc>
 80007e2:	2300      	movs	r3, #0
 80007e4:	e00e      	b.n	8000804 <Get_CRLH_Postion+0xbc>
 80007e6:	2304      	movs	r3, #4
 80007e8:	e00c      	b.n	8000804 <Get_CRLH_Postion+0xbc>
 80007ea:	2308      	movs	r3, #8
 80007ec:	e00a      	b.n	8000804 <Get_CRLH_Postion+0xbc>
 80007ee:	230c      	movs	r3, #12
 80007f0:	e008      	b.n	8000804 <Get_CRLH_Postion+0xbc>
 80007f2:	2310      	movs	r3, #16
 80007f4:	e006      	b.n	8000804 <Get_CRLH_Postion+0xbc>
 80007f6:	2314      	movs	r3, #20
 80007f8:	e004      	b.n	8000804 <Get_CRLH_Postion+0xbc>
 80007fa:	2318      	movs	r3, #24
 80007fc:	e002      	b.n	8000804 <Get_CRLH_Postion+0xbc>
 80007fe:	231c      	movs	r3, #28
 8000800:	e000      	b.n	8000804 <Get_CRLH_Postion+0xbc>
 8000802:	2300      	movs	r3, #0
 8000804:	4618      	mov	r0, r3
 8000806:	370c      	adds	r7, #12
 8000808:	46bd      	mov	sp, r7
 800080a:	bc80      	pop	{r7}
 800080c:	4770      	bx	lr

0800080e <MCAL_GPIO_INIT>:
 800080e:	b590      	push	{r4, r7, lr}
 8000810:	b085      	sub	sp, #20
 8000812:	af00      	add	r7, sp, #0
 8000814:	6078      	str	r0, [r7, #4]
 8000816:	6039      	str	r1, [r7, #0]
 8000818:	2300      	movs	r3, #0
 800081a:	60bb      	str	r3, [r7, #8]
 800081c:	2300      	movs	r3, #0
 800081e:	73fb      	strb	r3, [r7, #15]
 8000820:	683b      	ldr	r3, [r7, #0]
 8000822:	881b      	ldrh	r3, [r3, #0]
 8000824:	2bff      	cmp	r3, #255	; 0xff
 8000826:	d801      	bhi.n	800082c <MCAL_GPIO_INIT+0x1e>
 8000828:	687b      	ldr	r3, [r7, #4]
 800082a:	e001      	b.n	8000830 <MCAL_GPIO_INIT+0x22>
 800082c:	687b      	ldr	r3, [r7, #4]
 800082e:	3304      	adds	r3, #4
 8000830:	60bb      	str	r3, [r7, #8]
 8000832:	683b      	ldr	r3, [r7, #0]
 8000834:	881b      	ldrh	r3, [r3, #0]
 8000836:	4618      	mov	r0, r3
 8000838:	f7ff ff86 	bl	8000748 <Get_CRLH_Postion>
 800083c:	4603      	mov	r3, r0
 800083e:	461a      	mov	r2, r3
 8000840:	230f      	movs	r3, #15
 8000842:	4093      	lsls	r3, r2
 8000844:	43da      	mvns	r2, r3
 8000846:	68bb      	ldr	r3, [r7, #8]
 8000848:	681b      	ldr	r3, [r3, #0]
 800084a:	401a      	ands	r2, r3
 800084c:	68bb      	ldr	r3, [r7, #8]
 800084e:	601a      	str	r2, [r3, #0]
 8000850:	683b      	ldr	r3, [r7, #0]
 8000852:	789b      	ldrb	r3, [r3, #2]
 8000854:	2b04      	cmp	r3, #4
 8000856:	d00b      	beq.n	8000870 <MCAL_GPIO_INIT+0x62>
 8000858:	683b      	ldr	r3, [r7, #0]
 800085a:	789b      	ldrb	r3, [r3, #2]
 800085c:	2b05      	cmp	r3, #5
 800085e:	d007      	beq.n	8000870 <MCAL_GPIO_INIT+0x62>
 8000860:	683b      	ldr	r3, [r7, #0]
 8000862:	789b      	ldrb	r3, [r3, #2]
 8000864:	2b06      	cmp	r3, #6
 8000866:	d003      	beq.n	8000870 <MCAL_GPIO_INIT+0x62>
 8000868:	683b      	ldr	r3, [r7, #0]
 800086a:	789b      	ldrb	r3, [r3, #2]
 800086c:	2b07      	cmp	r3, #7
 800086e:	d10e      	bne.n	800088e <MCAL_GPIO_INIT+0x80>
 8000870:	683b      	ldr	r3, [r7, #0]
 8000872:	789b      	ldrb	r3, [r3, #2]
 8000874:	3b04      	subs	r3, #4
 8000876:	009b      	lsls	r3, r3, #2
 8000878:	b25a      	sxtb	r2, r3
 800087a:	683b      	ldr	r3, [r7, #0]
 800087c:	78db      	ldrb	r3, [r3, #3]
 800087e:	b25b      	sxtb	r3, r3
 8000880:	4313      	orrs	r3, r2
 8000882:	b25b      	sxtb	r3, r3
 8000884:	b2db      	uxtb	r3, r3
 8000886:	f003 030f 	and.w	r3, r3, #15
 800088a:	73fb      	strb	r3, [r7, #15]
 800088c:	e02c      	b.n	80008e8 <MCAL_GPIO_INIT+0xda>
 800088e:	683b      	ldr	r3, [r7, #0]
 8000890:	789b      	ldrb	r3, [r3, #2]
 8000892:	2b00      	cmp	r3, #0
 8000894:	d003      	beq.n	800089e <MCAL_GPIO_INIT+0x90>
 8000896:	683b      	ldr	r3, [r7, #0]
 8000898:	789b      	ldrb	r3, [r3, #2]
 800089a:	2b01      	cmp	r3, #1
 800089c:	d107      	bne.n	80008ae <MCAL_GPIO_INIT+0xa0>
 800089e:	683b      	ldr	r3, [r7, #0]
 80008a0:	789b      	ldrb	r3, [r3, #2]
 80008a2:	009b      	lsls	r3, r3, #2
 80008a4:	b2db      	uxtb	r3, r3
 80008a6:	f003 030f 	and.w	r3, r3, #15
 80008aa:	73fb      	strb	r3, [r7, #15]
 80008ac:	e01c      	b.n	80008e8 <MCAL_GPIO_INIT+0xda>
 80008ae:	683b      	ldr	r3, [r7, #0]
 80008b0:	789b      	ldrb	r3, [r3, #2]
 80008b2:	2b08      	cmp	r3, #8
 80008b4:	d102      	bne.n	80008bc <MCAL_GPIO_INIT+0xae>
 80008b6:	2304      	movs	r3, #4
 80008b8:	73fb      	strb	r3, [r7, #15]
 80008ba:	e015      	b.n	80008e8 <MCAL_GPIO_INIT+0xda>
 80008bc:	2308      	movs	r3, #8
 80008be:	73fb      	strb	r3, [r7, #15]
 80008c0:	683b      	ldr	r3, [r7, #0]
 80008c2:	789b      	ldrb	r3, [r3, #2]
 80008c4:	2b02      	cmp	r3, #2
 80008c6:	d107      	bne.n	80008d8 <MCAL_GPIO_INIT+0xca>
 80008c8:	687b      	ldr	r3, [r7, #4]
 80008ca:	68db      	ldr	r3, [r3, #12]
 80008cc:	683a      	ldr	r2, [r7, #0]
 80008ce:	8812      	ldrh	r2, [r2, #0]
 80008d0:	431a      	orrs	r2, r3
 80008d2:	687b      	ldr	r3, [r7, #4]
 80008d4:	60da      	str	r2, [r3, #12]
 80008d6:	e007      	b.n	80008e8 <MCAL_GPIO_INIT+0xda>
 80008d8:	687b      	ldr	r3, [r7, #4]
 80008da:	68db      	ldr	r3, [r3, #12]
 80008dc:	683a      	ldr	r2, [r7, #0]
 80008de:	8812      	ldrh	r2, [r2, #0]
 80008e0:	43d2      	mvns	r2, r2
 80008e2:	401a      	ands	r2, r3
 80008e4:	687b      	ldr	r3, [r7, #4]
 80008e6:	60da      	str	r2, [r3, #12]
 80008e8:	7bfc      	ldrb	r4, [r7, #15]
 80008ea:	683b      	ldr	r3, [r7, #0]
 80008ec:	881b      	ldrh	r3, [r3, #0]
 80008ee:	4618      	mov	r0, r3
 80008f0:	f7ff ff2a 	bl	8000748 <Get_CRLH_Postion>
 80008f4:	4603      	mov	r3, r0
 80008f6:	fa04 f203 	lsl.w	r2, r4, r3
 80008fa:	68bb      	ldr	r3, [r7, #8]
 80008fc:	681b      	ldr	r3, [r3, #0]
 80008fe:	431a      	orrs	r2, r3
 8000900:	68bb      	ldr	r3, [r7, #8]
 8000902:	601a      	str	r2, [r3, #0]
 8000904:	bf00      	nop
 8000906:	3714      	adds	r7, #20
 8000908:	46bd      	mov	sp, r7
 800090a:	bd90      	pop	{r4, r7, pc}

0800090c <Switch_CPU_AccessLevel>:
 800090c:	b480      	push	{r7}
 800090e:	b083      	sub	sp, #12
 8000910:	af00      	add	r7, sp, #0
 8000912:	4603      	mov	r3, r0
 8000914:	71fb      	strb	r3, [r7, #7]
 8000916:	79fb      	ldrb	r3, [r7, #7]
 8000918:	2b00      	cmp	r3, #0
 800091a:	d002      	beq.n	8000922 <Switch_CPU_AccessLevel+0x16>
 800091c:	2b01      	cmp	r3, #1
 800091e:	d009      	beq.n	8000934 <Switch_CPU_AccessLevel+0x28>
 8000920:	e00f      	b.n	8000942 <Switch_CPU_AccessLevel+0x36>
 8000922:	f3ef 8314 	mrs	r3, CONTROL
 8000926:	ea4f 0353 	mov.w	r3, r3, lsr #1
 800092a:	ea4f 0343 	mov.w	r3, r3, lsl #1
 800092e:	f383 8814 	msr	CONTROL, r3
 8000932:	e006      	b.n	8000942 <Switch_CPU_AccessLevel+0x36>
 8000934:	f3ef 8314 	mrs	r3, CONTROL
 8000938:	f043 0301 	orr.w	r3, r3, #1
 800093c:	f383 8814 	msr	CONTROL, r3
 8000940:	bf00      	nop
 8000942:	bf00      	nop
 8000944:	370c      	adds	r7, #12
 8000946:	46bd      	mov	sp, r7
 8000948:	bc80      	pop	{r7}
 800094a:	4770      	bx	lr

0800094c <clk_init>:
 800094c:	b480      	push	{r7}
 800094e:	af00      	add	r7, sp, #0
 8000950:	4b07      	ldr	r3, [pc, #28]	; (8000970 <clk_init+0x24>)
 8000952:	699b      	ldr	r3, [r3, #24]
 8000954:	4a06      	ldr	r2, [pc, #24]	; (8000970 <clk_init+0x24>)
 8000956:	f043 0308 	orr.w	r3, r3, #8
 800095a:	6193      	str	r3, [r2, #24]
 800095c:	4b04      	ldr	r3, [pc, #16]	; (8000970 <clk_init+0x24>)
 800095e:	699b      	ldr	r3, [r3, #24]
 8000960:	4a03      	ldr	r2, [pc, #12]	; (8000970 <clk_init+0x24>)
 8000962:	f043 0301 	orr.w	r3, r3, #1
 8000966:	6193      	str	r3, [r2, #24]
 8000968:	bf00      	nop
 800096a:	46bd      	mov	sp, r7
 800096c:	bc80      	pop	{r7}
 800096e:	4770      	bx	lr
 8000970:	40021000 	andmi	r1, r2, r0

08000974 <EXTI_CallBack>:
 8000974:	b580      	push	{r7, lr}
 8000976:	af00      	add	r7, sp, #0
 8000978:	4b03      	ldr	r3, [pc, #12]	; (8000988 <EXTI_CallBack+0x14>)
 800097a:	2201      	movs	r2, #1
 800097c:	701a      	strb	r2, [r3, #0]
 800097e:	2000      	movs	r0, #0
 8000980:	f7ff ffc4 	bl	800090c <Switch_CPU_AccessLevel>
 8000984:	bf00      	nop
 8000986:	bd80      	pop	{r7, pc}
 8000988:	20000058 	andcs	r0, r0, r8, asr r0

0800098c <main>:
 800098c:	b580      	push	{r7, lr}
 800098e:	b086      	sub	sp, #24
 8000990:	af00      	add	r7, sp, #0
 8000992:	f7ff ffdb 	bl	800094c <clk_init>
 8000996:	4a0e      	ldr	r2, [pc, #56]	; (80009d0 <main+0x44>)
 8000998:	1d3b      	adds	r3, r7, #4
 800099a:	ca07      	ldmia	r2, {r0, r1, r2}
 800099c:	e883 0007 	stmia.w	r3, {r0, r1, r2}
 80009a0:	2300      	movs	r3, #0
 80009a2:	743b      	strb	r3, [r7, #16]
 80009a4:	2301      	movs	r3, #1
 80009a6:	747b      	strb	r3, [r7, #17]
 80009a8:	4b0a      	ldr	r3, [pc, #40]	; (80009d4 <main+0x48>)
 80009aa:	617b      	str	r3, [r7, #20]
 80009ac:	1d3b      	adds	r3, r7, #4
 80009ae:	4618      	mov	r0, r3
 80009b0:	f7ff fd98 	bl	80004e4 <MCAL_EXTI_GPIO_Init>
 80009b4:	4b08      	ldr	r3, [pc, #32]	; (80009d8 <main+0x4c>)
 80009b6:	2201      	movs	r2, #1
 80009b8:	701a      	strb	r2, [r3, #0]
 80009ba:	2001      	movs	r0, #1
 80009bc:	f7ff ffa6 	bl	800090c <Switch_CPU_AccessLevel>
 80009c0:	4b05      	ldr	r3, [pc, #20]	; (80009d8 <main+0x4c>)
 80009c2:	781b      	ldrb	r3, [r3, #0]
 80009c4:	2b01      	cmp	r3, #1
 80009c6:	d1fb      	bne.n	80009c0 <main+0x34>
 80009c8:	4b03      	ldr	r3, [pc, #12]	; (80009d8 <main+0x4c>)
 80009ca:	2200      	movs	r2, #0
 80009cc:	701a      	strb	r2, [r3, #0]
 80009ce:	e7f7      	b.n	80009c0 <main+0x34>
 80009d0:	08000a90 	stmdaeq	r0, {r4, r7, r9, fp}
 80009d4:	08000975 	stmdaeq	r0, {r0, r2, r4, r5, r6, r8, fp}
 80009d8:	20000058 	andcs	r0, r0, r8, asr r0

080009dc <Reset_Handler>:
 80009dc:	480d      	ldr	r0, [pc, #52]	; (8000a14 <LoopForever+0x2>)
 80009de:	4685      	mov	sp, r0
 80009e0:	f3af 8000 	nop.w
 80009e4:	480c      	ldr	r0, [pc, #48]	; (8000a18 <LoopForever+0x6>)
 80009e6:	490d      	ldr	r1, [pc, #52]	; (8000a1c <LoopForever+0xa>)
 80009e8:	4a0d      	ldr	r2, [pc, #52]	; (8000a20 <LoopForever+0xe>)
 80009ea:	2300      	movs	r3, #0
 80009ec:	e002      	b.n	80009f4 <LoopCopyDataInit>

080009ee <CopyDataInit>:
 80009ee:	58d4      	ldr	r4, [r2, r3]
 80009f0:	50c4      	str	r4, [r0, r3]
 80009f2:	3304      	adds	r3, #4

080009f4 <LoopCopyDataInit>:
 80009f4:	18c4      	adds	r4, r0, r3
 80009f6:	428c      	cmp	r4, r1
 80009f8:	d3f9      	bcc.n	80009ee <CopyDataInit>
 80009fa:	4a0a      	ldr	r2, [pc, #40]	; (8000a24 <LoopForever+0x12>)
 80009fc:	4c0a      	ldr	r4, [pc, #40]	; (8000a28 <LoopForever+0x16>)
 80009fe:	2300      	movs	r3, #0
 8000a00:	e001      	b.n	8000a06 <LoopFillZerobss>

08000a02 <FillZerobss>:
 8000a02:	6013      	str	r3, [r2, #0]
 8000a04:	3204      	adds	r2, #4

08000a06 <LoopFillZerobss>:
 8000a06:	42a2      	cmp	r2, r4
 8000a08:	d3fb      	bcc.n	8000a02 <FillZerobss>
 8000a0a:	f000 f811 	bl	8000a30 <__libc_init_array>
 8000a0e:	f7ff ffbd 	bl	800098c <main>

08000a12 <LoopForever>:
 8000a12:	e7fe      	b.n	8000a12 <LoopForever>
 8000a14:	20002800 	andcs	r2, r0, r0, lsl #16
 8000a18:	20000000 	andcs	r0, r0, r0
 8000a1c:	20000000 	andcs	r0, r0, r0
 8000a20:	08000aa4 	stmdaeq	r0, {r2, r5, r7, r9, fp}
 8000a24:	20000000 	andcs	r0, r0, r0
 8000a28:	2000005c 	andcs	r0, r0, ip, asr r0

08000a2c <ADC1_2_IRQHandler>:
 8000a2c:	e7fe      	b.n	8000a2c <ADC1_2_IRQHandler>
	...

08000a30 <__libc_init_array>:
 8000a30:	b570      	push	{r4, r5, r6, lr}
 8000a32:	2500      	movs	r5, #0
 8000a34:	4e0c      	ldr	r6, [pc, #48]	; (8000a68 <__libc_init_array+0x38>)
 8000a36:	4c0d      	ldr	r4, [pc, #52]	; (8000a6c <__libc_init_array+0x3c>)
 8000a38:	1ba4      	subs	r4, r4, r6
 8000a3a:	10a4      	asrs	r4, r4, #2
 8000a3c:	42a5      	cmp	r5, r4
 8000a3e:	d109      	bne.n	8000a54 <__libc_init_array+0x24>
 8000a40:	f000 f81a 	bl	8000a78 <_init>
 8000a44:	2500      	movs	r5, #0
 8000a46:	4e0a      	ldr	r6, [pc, #40]	; (8000a70 <__libc_init_array+0x40>)
 8000a48:	4c0a      	ldr	r4, [pc, #40]	; (8000a74 <__libc_init_array+0x44>)
 8000a4a:	1ba4      	subs	r4, r4, r6
 8000a4c:	10a4      	asrs	r4, r4, #2
 8000a4e:	42a5      	cmp	r5, r4
 8000a50:	d105      	bne.n	8000a5e <__libc_init_array+0x2e>
 8000a52:	bd70      	pop	{r4, r5, r6, pc}
 8000a54:	f856 3025 	ldr.w	r3, [r6, r5, lsl #2]
 8000a58:	4798      	blx	r3
 8000a5a:	3501      	adds	r5, #1
 8000a5c:	e7ee      	b.n	8000a3c <__libc_init_array+0xc>
 8000a5e:	f856 3025 	ldr.w	r3, [r6, r5, lsl #2]
 8000a62:	4798      	blx	r3
 8000a64:	3501      	adds	r5, #1
 8000a66:	e7f2      	b.n	8000a4e <__libc_init_array+0x1e>
 8000a68:	08000a9c 	stmdaeq	r0, {r2, r3, r4, r7, r9, fp}
 8000a6c:	08000a9c 	stmdaeq	r0, {r2, r3, r4, r7, r9, fp}
 8000a70:	08000a9c 	stmdaeq	r0, {r2, r3, r4, r7, r9, fp}
 8000a74:	08000aa0 	stmdaeq	r0, {r5, r7, r9, fp}

08000a78 <_init>:
 8000a78:	b5f8      	push	{r3, r4, r5, r6, r7, lr}
 8000a7a:	bf00      	nop
 8000a7c:	bcf8      	pop	{r3, r4, r5, r6, r7}
 8000a7e:	bc08      	pop	{r3}
 8000a80:	469e      	mov	lr, r3
 8000a82:	4770      	bx	lr

08000a84 <_fini>:
 8000a84:	b5f8      	push	{r3, r4, r5, r6, r7, lr}
 8000a86:	bf00      	nop
 8000a88:	bcf8      	pop	{r3, r4, r5, r6, r7}
 8000a8a:	bc08      	pop	{r3}
 8000a8c:	469e      	mov	lr, r3
 8000a8e:	4770      	bx	lr

Disassembly of section .rodata:

08000a90 <.rodata>:
 8000a90:	00000009 	andeq	r0, r0, r9
 8000a94:	40010c00 	andmi	r0, r1, r0, lsl #24
 8000a98:	00001700 	andeq	r1, r0, r0, lsl #14

Disassembly of section .init_array:

08000a9c <__frame_dummy_init_array_entry>:
 8000a9c:	08000155 	stmdaeq	r0, {r0, r2, r4, r6, r8}

Disassembly of section .fini_array:

08000aa0 <__do_global_dtors_aux_fini_array_entry>:
 8000aa0:	08000131 	stmdaeq	r0, {r0, r4, r5, r8}

Disassembly of section .bss:

20000000 <__bss_start__>:
20000000:	00000000 	andeq	r0, r0, r0

20000004 <object.8661>:
	...

2000001c <GP_IRQ_CallBack>:
	...

20000058 <IRQ_Flag>:
20000058:	00000000 	andeq	r0, r0, r0

Disassembly of section ._user_heap_stack:

2000005c <_end-0x4>:
2000005c:	00000000 	andeq	r0, r0, r0

20000060 <_end>:
	...

Disassembly of section .ARM.attributes:

00000000 <.ARM.attributes>:
   0:	00002841 	andeq	r2, r0, r1, asr #16
   4:	61656100 	cmnvs	r5, r0, lsl #2
   8:	01006962 	tsteq	r0, r2, ror #18
   c:	0000001e 	andeq	r0, r0, lr, lsl r0
  10:	4d2d3705 	stcmi	7, cr3, [sp, #-20]!	; 0xffffffec
  14:	070a0600 	streq	r0, [sl, -r0, lsl #12]
  18:	1202094d 	andne	r0, r2, #1261568	; 0x134000
  1c:	15011404 	strne	r1, [r1, #-1028]	; 0xfffffbfc
  20:	18031701 	stmdane	r3, {r0, r8, r9, sl, ip}
  24:	22011a01 	andcs	r1, r1, #4096	; 0x1000
  28:	Address 0x0000000000000028 is out of bounds.


Disassembly of section .debug_info:

00000000 <.debug_info>:
       0:	00000c54 	andeq	r0, r0, r4, asr ip
       4:	00000004 	andeq	r0, r0, r4
       8:	01040000 	mrseq	r0, (UNDEF: 4)
       c:	00003781 	andeq	r3, r0, r1, lsl #15
      10:	0030680c 	eorseq	r6, r0, ip, lsl #16
      14:	00082100 	andeq	r2, r8, r0, lsl #2
	...
      28:	07040200 	streq	r0, [r4, -r0, lsl #4]
      2c:	00002321 	andeq	r2, r0, r1, lsr #6
      30:	69050403 	stmdbvs	r5, {r0, r1, sl}
      34:	0200746e 	andeq	r7, r0, #1845493760	; 0x6e000000
      38:	54510508 	ldrbpl	r0, [r1], #-1288	; 0xfffffaf8
      3c:	08020000 	stmdaeq	r2, {}	; <UNPREDICTABLE>
      40:	0002db04 	andeq	sp, r2, r4, lsl #22
      44:	06010200 	streq	r0, [r1], -r0, lsl #4
      48:	00000766 	andeq	r0, r0, r6, ror #14
      4c:	00131e04 	andseq	r1, r3, r4, lsl #28
      50:	572b0200 	strpl	r0, [fp, -r0, lsl #4]!
      54:	02000000 	andeq	r0, r0, #0
      58:	317b0801 	cmncc	fp, r1, lsl #16
      5c:	02020000 	andeq	r0, r2, #0
      60:	000a5f05 	andeq	r5, sl, r5, lsl #30
      64:	2b9f0400 	blcs	fe7c106c <_estack+0xde7be86c>
      68:	39020000 	stmdbcc	r2, {}	; <UNPREDICTABLE>
      6c:	00000070 	andeq	r0, r0, r0, ror r0
      70:	44070202 	strmi	r0, [r7], #-514	; 0xfffffdfe
      74:	0200006d 	andeq	r0, r0, #109	; 0x6d
      78:	6ff10504 	svcvs	0x00f10504
      7c:	99040000 	stmdbls	r4, {}	; <UNPREDICTABLE>
      80:	02000043 	andeq	r0, r0, #67	; 0x43
      84:	0000894f 	andeq	r8, r0, pc, asr #18
      88:	07040200 	streq	r0, [r4, -r0, lsl #4]
      8c:	00001aa8 	andeq	r1, r0, r8, lsr #21
      90:	ed070802 	stc	8, cr0, [r7, #-8]
      94:	04000079 	streq	r0, [r0], #-121	; 0xffffff87
      98:	00004610 	andeq	r4, r0, r0, lsl r6
      9c:	00300c03 	eorseq	r0, r0, r3, lsl #24
      a0:	da040000 	ble	1000a8 <_Min_Stack_Size+0xffca8>
      a4:	04000089 	streq	r0, [r0], #-137	; 0xffffff77
      a8:	0000772c 	andeq	r7, r0, ip, lsr #14
      ac:	676b0400 	strbvs	r0, [fp, -r0, lsl #8]!
      b0:	72040000 	andvc	r0, r4, #0
      b4:	00000077 	andeq	r0, r0, r7, ror r0
      b8:	00251305 	eoreq	r1, r5, r5, lsl #6
      bc:	01650500 	cmneq	r5, r0, lsl #10
      c0:	00000029 	andeq	r0, r0, r9, lsr #32
      c4:	a6040406 	strge	r0, [r4], -r6, lsl #8
      c8:	000000e3 	andeq	r0, r0, r3, ror #1
      cc:	00153b07 	andseq	r3, r5, r7, lsl #22
      d0:	b8a80400 	stmialt	r8!, {sl}
      d4:	07000000 	streq	r0, [r0, -r0]
      d8:	0000753f 	andeq	r7, r0, pc, lsr r5
      dc:	00e3a904 	rsceq	sl, r3, r4, lsl #18
      e0:	08000000 	stmdaeq	r0, {}	; <UNPREDICTABLE>
      e4:	00000057 	andeq	r0, r0, r7, asr r0
      e8:	000000f3 	strdeq	r0, [r0], -r3
      ec:	00002909 	andeq	r2, r0, r9, lsl #18
      f0:	0a000300 	beq	cf8 <_Min_Stack_Size+0x8f8>
      f4:	14a30408 	strtne	r0, [r3], #1032	; 0x408
      f8:	0b000001 	bleq	104 <_Min_Heap_Size-0xfc>
      fc:	000061ef 	andeq	r6, r0, pc, ror #3
     100:	0030a504 	eorseq	sl, r0, r4, lsl #10
     104:	0b000000 	bleq	10c <_Min_Heap_Size-0xf4>
     108:	000001e4 	andeq	r0, r0, r4, ror #3
     10c:	00c4aa04 	sbceq	sl, r4, r4, lsl #20
     110:	00040000 	andeq	r0, r4, r0
     114:	00559e04 	subseq	r9, r5, r4, lsl #28
     118:	f3ab0400 	vraddhn.i64	d0, <illegal reg q5.5>, q0
     11c:	04000000 	streq	r0, [r0], #-0
     120:	0000717d 	andeq	r7, r0, sp, ror r1
     124:	0097af04 	addseq	sl, r7, r4, lsl #30
     128:	040c0000 	streq	r0, [ip], #-0
     12c:	0132040d 	teqeq	r2, sp, lsl #8
     130:	01020000 	mrseq	r0, (UNDEF: 2)
     134:	00076d08 	andeq	r6, r7, r8, lsl #26
     138:	01320e00 	teqeq	r2, r0, lsl #28
     13c:	84040000 	strhi	r0, [r4], #-0
     140:	06000087 	streq	r0, [r0], -r7, lsl #1
     144:	00008916 	andeq	r8, r0, r6, lsl r9
     148:	4ac20f00 	bmi	ff083d50 <_estack+0xdf081550>
     14c:	06180000 	ldreq	r0, [r8], -r0
     150:	00019c2f 	andeq	r9, r1, pc, lsr #24
     154:	5e880b00 	vdivpl.f64	d0, d8, d0
     158:	31060000 	mrscc	r0, (UNDEF: 6)
     15c:	0000019c 	muleq	r0, ip, r1
     160:	6b5f1000 	blvs	17c4168 <_Min_Stack_Size+0x17c3d68>
     164:	30320600 	eorscc	r0, r2, r0, lsl #12
     168:	04000000 	streq	r0, [r0], #-0
     16c:	007fcd0b 	rsbseq	ip, pc, fp, lsl #26
     170:	30320600 	eorscc	r0, r2, r0, lsl #12
     174:	08000000 	stmdaeq	r0, {}	; <UNPREDICTABLE>
     178:	0055a90b 	subseq	sl, r5, fp, lsl #18
     17c:	30320600 	eorscc	r0, r2, r0, lsl #12
     180:	0c000000 	stceq	0, cr0, [r0], {-0}
     184:	0036270b 	eorseq	r2, r6, fp, lsl #14
     188:	30320600 	eorscc	r0, r2, r0, lsl #12
     18c:	10000000 	andne	r0, r0, r0
     190:	00785f10 	rsbseq	r5, r8, r0, lsl pc
     194:	01a23306 			; <UNDEFINED> instruction: 0x01a23306
     198:	00140000 	andseq	r0, r4, r0
     19c:	0149040d 	cmpeq	r9, sp, lsl #8
     1a0:	3e080000 	cdpcc	0, 0, cr0, cr8, cr0, {0}
     1a4:	b2000001 	andlt	r0, r0, #1
     1a8:	09000001 	stmdbeq	r0, {r0}
     1ac:	00000029 	andeq	r0, r0, r9, lsr #32
     1b0:	1c0f0000 	stcne	0, cr0, [pc], {-0}
     1b4:	2400000a 	strcs	r0, [r0], #-10
     1b8:	022b3706 	eoreq	r3, fp, #1572864	; 0x180000
     1bc:	380b0000 	stmdacc	fp, {}	; <UNPREDICTABLE>
     1c0:	0600000a 	streq	r0, [r0], -sl
     1c4:	00003039 	andeq	r3, r0, r9, lsr r0
     1c8:	6d0b0000 	stcvs	0, cr0, [fp, #-0]
     1cc:	06000091 			; <UNDEFINED> instruction: 0x06000091
     1d0:	0000303a 	andeq	r3, r0, sl, lsr r0
     1d4:	f30b0400 	vshl.u8	d0, d0, d11
     1d8:	0600008a 	streq	r0, [r0], -sl, lsl #1
     1dc:	0000303b 	andeq	r3, r0, fp, lsr r0
     1e0:	330b0800 	movwcc	r0, #47104	; 0xb800
     1e4:	0600005c 			; <UNDEFINED> instruction: 0x0600005c
     1e8:	0000303c 	andeq	r3, r0, ip, lsr r0
     1ec:	3a0b0c00 	bcc	2c31f4 <_Min_Stack_Size+0x2c2df4>
     1f0:	0600001b 			; <UNDEFINED> instruction: 0x0600001b
     1f4:	0000303d 	andeq	r3, r0, sp, lsr r0
     1f8:	450b1000 	strmi	r1, [fp, #-0]
     1fc:	06000080 	streq	r0, [r0], -r0, lsl #1
     200:	0000303e 	andeq	r3, r0, lr, lsr r0
     204:	c90b1400 	stmdbgt	fp, {sl, ip}
     208:	06000063 	streq	r0, [r0], -r3, rrx
     20c:	0000303f 	andeq	r3, r0, pc, lsr r0
     210:	960b1800 	strls	r1, [fp], -r0, lsl #16
     214:	06000064 	streq	r0, [r0], -r4, rrx
     218:	00003040 	andeq	r3, r0, r0, asr #32
     21c:	4e0b1c00 	cdpmi	12, 0, cr1, cr11, cr0, {0}
     220:	0600008f 	streq	r0, [r0], -pc, lsl #1
     224:	00003041 	andeq	r3, r0, r1, asr #32
     228:	11002000 	mrsne	r2, (UNDEF: 0)
     22c:	00001458 	andeq	r1, r0, r8, asr r4
     230:	4a060108 	bmi	180658 <_Min_Stack_Size+0x180258>
     234:	0000026b 	andeq	r0, r0, fp, ror #4
     238:	000d460b 	andeq	r4, sp, fp, lsl #12
     23c:	6b4b0600 	blvs	12c1a44 <_Min_Stack_Size+0x12c1644>
     240:	00000002 	andeq	r0, r0, r2
     244:	006c6e0b 	rsbeq	r6, ip, fp, lsl #28
     248:	6b4c0600 	blvs	1301a50 <_Min_Stack_Size+0x1301650>
     24c:	80000002 	andhi	r0, r0, r2
     250:	001a1512 	andseq	r1, sl, r2, lsl r5
     254:	3e4e0600 	cdpcc	6, 4, cr0, cr14, cr0, {0}
     258:	00000001 	andeq	r0, r0, r1
     25c:	86241201 	strthi	r1, [r4], -r1, lsl #4
     260:	51060000 	mrspl	r0, (UNDEF: 6)
     264:	0000013e 	andeq	r0, r0, lr, lsr r1
     268:	08000104 	stmdaeq	r0, {r2, r8}
     26c:	0000012a 	andeq	r0, r0, sl, lsr #2
     270:	0000027b 	andeq	r0, r0, fp, ror r2
     274:	00002909 	andeq	r2, r0, r9, lsl #18
     278:	0f001f00 	svceq	0x00001f00
     27c:	000049eb 	andeq	r4, r0, fp, ror #19
     280:	b855068c 	ldmdalt	r5, {r2, r3, r7, r9, sl}^
     284:	0b000002 	bleq	294 <_Min_Heap_Size+0x94>
     288:	00005e88 	andeq	r5, r0, r8, lsl #29
     28c:	02b85606 	adcseq	r5, r8, #6291456	; 0x600000
     290:	0b000000 	bleq	298 <_Min_Heap_Size+0x98>
     294:	00002780 	andeq	r2, r0, r0, lsl #15
     298:	00305706 	eorseq	r5, r0, r6, lsl #14
     29c:	0b040000 	bleq	1002a4 <_Min_Stack_Size+0xffea4>
     2a0:	000028dc 	ldrdeq	r2, [r0], -ip
     2a4:	02be5806 	adcseq	r5, lr, #393216	; 0x60000
     2a8:	0b080000 	bleq	2002b0 <_Min_Stack_Size+0x1ffeb0>
     2ac:	00002e3a 	andeq	r2, r0, sl, lsr lr
     2b0:	02d55906 	sbcseq	r5, r5, #98304	; 0x18000
     2b4:	00880000 	addeq	r0, r8, r0
     2b8:	027b040d 	rsbseq	r0, fp, #218103808	; 0xd000000
     2bc:	ce080000 	cdpgt	0, 0, cr0, cr8, cr0, {0}
     2c0:	ce000002 	cdpgt	0, 0, cr0, cr0, cr2, {0}
     2c4:	09000002 	stmdbeq	r0, {r1}
     2c8:	00000029 	andeq	r0, r0, r9, lsr #32
     2cc:	040d001f 	streq	r0, [sp], #-31	; 0xffffffe1
     2d0:	000002d4 	ldrdeq	r0, [r0], -r4
     2d4:	2b040d13 	blcs	103728 <_Min_Stack_Size+0x103328>
     2d8:	0f000002 	svceq	0x00000002
     2dc:	0000030a 	andeq	r0, r0, sl, lsl #6
     2e0:	00750608 	rsbseq	r0, r5, r8, lsl #12
     2e4:	0b000003 	bleq	2f8 <_Min_Heap_Size+0xf8>
     2e8:	00006e95 	muleq	r0, r5, lr
     2ec:	03007606 	movweq	r7, #1542	; 0x606
     2f0:	0b000000 	bleq	2f8 <_Min_Heap_Size+0xf8>
     2f4:	0000882b 	andeq	r8, r0, fp, lsr #16
     2f8:	00307706 	eorseq	r7, r0, r6, lsl #14
     2fc:	00040000 	andeq	r0, r4, r0
     300:	0057040d 	subseq	r0, r7, sp, lsl #8
     304:	f20f0000 	vhadd.s8	d0, d15, d0
     308:	20000035 	andcs	r0, r0, r5, lsr r0
     30c:	03709906 	cmneq	r0, #98304	; 0x18000
     310:	5f100000 	svcpl	0x00100000
     314:	9a060070 	bls	1804dc <_Min_Stack_Size+0x1800dc>
     318:	00000300 	andeq	r0, r0, r0, lsl #6
     31c:	725f1000 	subsvc	r1, pc, #0
     320:	309b0600 	addscc	r0, fp, r0, lsl #12
     324:	04000000 	streq	r0, [r0], #-0
     328:	00775f10 	rsbseq	r5, r7, r0, lsl pc
     32c:	00309c06 	eorseq	r9, r0, r6, lsl #24
     330:	0b080000 	bleq	200338 <_Min_Stack_Size+0x1fff38>
     334:	00005ea6 	andeq	r5, r0, r6, lsr #29
     338:	005e9d06 	subseq	r9, lr, r6, lsl #26
     33c:	0b0c0000 	bleq	300344 <_Min_Stack_Size+0x2fff44>
     340:	000013bd 			; <UNDEFINED> instruction: 0x000013bd
     344:	005e9e06 	subseq	r9, lr, r6, lsl #28
     348:	100e0000 	andne	r0, lr, r0
     34c:	0066625f 	rsbeq	r6, r6, pc, asr r2
     350:	02db9f06 	sbcseq	r9, fp, #6, 30
     354:	0b100000 	bleq	40035c <_Min_Stack_Size+0x3fff5c>
     358:	0000845c 	andeq	r8, r0, ip, asr r4
     35c:	0030a006 	eorseq	sl, r0, r6
     360:	0b180000 	bleq	600368 <_Min_Stack_Size+0x5fff68>
     364:	000073c6 	andeq	r7, r0, r6, asr #7
     368:	04a1a206 	strteq	sl, [r1], #518	; 0x206
     36c:	001c0000 	andseq	r0, ip, r0
     370:	0003060e 	andeq	r0, r3, lr, lsl #12
     374:	1d161400 	cfldrsne	mvf1, [r6, #-0]
     378:	06600000 	strbteq	r0, [r0], -r0
     37c:	04a10174 	strteq	r0, [r1], #372	; 0x174
     380:	f4150000 			; <UNDEFINED> instruction: 0xf4150000
     384:	06000046 	streq	r0, [r0], -r6, asr #32
     388:	00300178 	eorseq	r0, r0, r8, ror r1
     38c:	15000000 	strne	r0, [r0, #-0]
     390:	00002071 	andeq	r2, r0, r1, ror r0
     394:	c9017d06 	stmdbgt	r1, {r1, r2, r8, sl, fp, ip, sp, lr}
     398:	04000006 	streq	r0, [r0], #-6
     39c:	0057cf15 	subseq	ip, r7, r5, lsl pc
     3a0:	017d0600 	cmneq	sp, r0, lsl #12
     3a4:	000006c9 	andeq	r0, r0, r9, asr #13
     3a8:	46621508 	strbtmi	r1, [r2], -r8, lsl #10
     3ac:	7d060000 	stcvc	0, cr0, [r6, #-0]
     3b0:	0006c901 	andeq	ip, r6, r1, lsl #18
     3b4:	7b150c00 	blvc	5433bc <_Min_Stack_Size+0x542fbc>
     3b8:	06000027 	streq	r0, [r0], -r7, lsr #32
     3bc:	0030017f 	eorseq	r0, r0, pc, ror r1
     3c0:	15100000 	ldrne	r0, [r0, #-0]
     3c4:	00005851 	andeq	r5, r0, r1, asr r8
     3c8:	2c018106 	stfcsd	f0, [r1], {6}
     3cc:	14000001 	strne	r0, [r0], #-1
     3d0:	0043e015 	subeq	lr, r3, r5, lsl r0
     3d4:	01830600 	orreq	r0, r3, r0, lsl #12
     3d8:	00000030 	andeq	r0, r0, r0, lsr r0
     3dc:	24f31518 	ldrbtcs	r1, [r3], #1304	; 0x518
     3e0:	85060000 	strhi	r0, [r6, #-0]
     3e4:	00003001 	andeq	r3, r0, r1
     3e8:	89151c00 	ldmdbhi	r5, {sl, fp, ip}
     3ec:	06000031 			; <UNDEFINED> instruction: 0x06000031
     3f0:	081b0186 	ldmdaeq	fp, {r1, r2, r7, r8}
     3f4:	16200000 	strtne	r0, [r0], -r0
     3f8:	00706d5f 	rsbseq	r6, r0, pc, asr sp
     3fc:	21018806 	tstcs	r1, r6, lsl #16
     400:	24000008 	strcs	r0, [r0], #-8
     404:	004c7715 	subeq	r7, ip, r5, lsl r7
     408:	018a0600 	orreq	r0, sl, r0, lsl #12
     40c:	00000832 	andeq	r0, r0, r2, lsr r8
     410:	539d1528 	orrspl	r1, sp, #40, 10	; 0xa000000
     414:	8c060000 	stchi	0, cr0, [r6], {-0}
     418:	00003001 	andeq	r3, r0, r1
     41c:	ad152c00 	ldcge	12, cr2, [r5, #-0]
     420:	06000005 	streq	r0, [r0], -r5
     424:	0030018f 	eorseq	r0, r0, pc, lsl #3
     428:	15300000 	ldrne	r0, [r0, #-0]!
     42c:	000038ff 	strdeq	r3, [r0], -pc	; <UNPREDICTABLE>
     430:	2c019006 	stccs	0, cr9, [r1], {6}
     434:	34000001 	strcc	r0, [r0], #-1
     438:	0072df15 	rsbseq	sp, r2, r5, lsl pc
     43c:	01920600 	orrseq	r0, r2, r0, lsl #12
     440:	00000838 	andeq	r0, r0, r8, lsr r8
     444:	18e31538 	stmiane	r3!, {r3, r4, r5, r8, sl, ip}^
     448:	93060000 	movwls	r0, #24576	; 0x6000
     44c:	00083e01 	andeq	r3, r8, r1, lsl #28
     450:	89153c00 	ldmdbhi	r5, {sl, fp, ip, sp}
     454:	06000005 	streq	r0, [r0], -r5
     458:	012c0194 			; <UNDEFINED> instruction: 0x012c0194
     45c:	15400000 	strbne	r0, [r0, #-0]
     460:	00003717 	andeq	r3, r0, r7, lsl r7
     464:	4f019706 	svcmi	0x00019706
     468:	44000008 	strmi	r0, [r0], #-8
     46c:	008eae15 	addeq	sl, lr, r5, lsl lr
     470:	019f0600 	orrseq	r0, pc, r0, lsl #12
     474:	0000068e 	andeq	r0, r0, lr, lsl #13
     478:	02ae1548 	adceq	r1, lr, #72, 10	; 0x12000000
     47c:	a0060000 	andge	r0, r6, r0
     480:	0006c901 	andeq	ip, r6, r1, lsl #18
     484:	5a155400 	bpl	55548c <_Min_Stack_Size+0x55508c>
     488:	06000087 	streq	r0, [r0], -r7, lsl #1
     48c:	085b01a1 	ldmdaeq	fp, {r0, r5, r7, r8}^
     490:	15580000 	ldrbne	r0, [r8, #-0]
     494:	00004921 	andeq	r4, r0, r1, lsr #18
     498:	2c01a206 	sfmcs	f2, 1, [r1], {6}
     49c:	5c000001 	stcpl	0, cr0, [r0], {1}
     4a0:	75040d00 	strvc	r0, [r4, #-3328]	; 0xfffff300
     4a4:	0e000003 	cdpeq	0, 0, cr0, cr0, cr3, {0}
     4a8:	000004a1 	andeq	r0, r0, r1, lsr #9
     4ac:	0043d80f 	subeq	sp, r3, pc, lsl #16
     4b0:	b5066800 	strlt	r6, [r6, #-2048]	; 0xfffff800
     4b4:	000005d6 	ldrdeq	r0, [r0], -r6
     4b8:	00705f10 	rsbseq	r5, r0, r0, lsl pc
     4bc:	0300b606 	movweq	fp, #1542	; 0x606
     4c0:	10000000 	andne	r0, r0, r0
     4c4:	0600725f 			; <UNDEFINED> instruction: 0x0600725f
     4c8:	000030b7 	strheq	r3, [r0], -r7
     4cc:	5f100400 	svcpl	0x00100400
     4d0:	b8060077 	stmdalt	r6, {r0, r1, r2, r4, r5, r6}
     4d4:	00000030 	andeq	r0, r0, r0, lsr r0
     4d8:	5ea60b08 	vfmapl.f64	d0, d6, d8
     4dc:	b9060000 	stmdblt	r6, {}	; <UNPREDICTABLE>
     4e0:	0000005e 	andeq	r0, r0, lr, asr r0
     4e4:	13bd0b0c 			; <UNDEFINED> instruction: 0x13bd0b0c
     4e8:	ba060000 	blt	1804f0 <_Min_Stack_Size+0x1800f0>
     4ec:	0000005e 	andeq	r0, r0, lr, asr r0
     4f0:	625f100e 	subsvs	r1, pc, #14
     4f4:	bb060066 	bllt	180694 <_Min_Stack_Size+0x180294>
     4f8:	000002db 	ldrdeq	r0, [r0], -fp
     4fc:	845c0b10 	ldrbhi	r0, [ip], #-2832	; 0xfffff4f0
     500:	bc060000 	stclt	0, cr0, [r6], {-0}
     504:	00000030 	andeq	r0, r0, r0, lsr r0
     508:	73c60b18 	bicvc	r0, r6, #24, 22	; 0x6000
     50c:	bf060000 	svclt	0x00060000
     510:	000004a1 	andeq	r0, r0, r1, lsr #9
     514:	35720b1c 	ldrbcc	r0, [r2, #-2844]!	; 0xfffff4e4
     518:	c3060000 	movwgt	r0, #24576	; 0x6000
     51c:	0000012a 	andeq	r0, r0, sl, lsr #2
     520:	03110b20 	tsteq	r1, #32, 22	; 0x8000
     524:	c5060000 	strgt	r0, [r6, #-0]
     528:	000005f4 	strdeq	r0, [r0], -r4
     52c:	05550b24 	ldrbeq	r0, [r5, #-2852]	; 0xfffff4dc
     530:	c7060000 	strgt	r0, [r6, -r0]
     534:	0000061e 	andeq	r0, r0, lr, lsl r6
     538:	66b60b28 	ldrtvs	r0, [r6], r8, lsr #22
     53c:	ca060000 	bgt	180544 <_Min_Stack_Size+0x180144>
     540:	00000642 	andeq	r0, r0, r2, asr #12
     544:	64510b2c 	ldrbvs	r0, [r1], #-2860	; 0xfffff4d4
     548:	cb060000 	blgt	180550 <_Min_Stack_Size+0x180150>
     54c:	0000065c 	andeq	r0, r0, ip, asr r6
     550:	755f1030 	ldrbvc	r1, [pc, #-48]	; 528 <_Min_Stack_Size+0x128>
     554:	ce060062 	cdpgt	0, 0, cr0, cr6, cr2, {3}
     558:	000002db 	ldrdeq	r0, [r0], -fp
     55c:	755f1034 	ldrbvc	r1, [pc, #-52]	; 530 <_Min_Stack_Size+0x130>
     560:	cf060070 	svcgt	0x00060070
     564:	00000300 	andeq	r0, r0, r0, lsl #6
     568:	755f103c 	ldrbvc	r1, [pc, #-60]	; 534 <_Min_Stack_Size+0x134>
     56c:	d0060072 	andle	r0, r6, r2, ror r0
     570:	00000030 	andeq	r0, r0, r0, lsr r0
     574:	5cc90b40 	vstmiapl	r9, {d16-<overflow reg d47>}
     578:	d3060000 	movwle	r0, #24576	; 0x6000
     57c:	00000662 	andeq	r0, r0, r2, ror #12
     580:	0a320b44 	beq	c83298 <_Min_Stack_Size+0xc82e98>
     584:	d4060000 	strle	r0, [r6], #-0
     588:	00000672 	andeq	r0, r0, r2, ror r6
     58c:	6c5f1047 	mrrcvs	0, 4, r1, pc, cr7	; <UNPREDICTABLE>
     590:	d7060062 	strle	r0, [r6, -r2, rrx]
     594:	000002db 	ldrdeq	r0, [r0], -fp
     598:	6e330b48 	vsubvs.f64	d0, d3, d8
     59c:	da060000 	ble	1805a4 <_Min_Stack_Size+0x1801a4>
     5a0:	00000030 	andeq	r0, r0, r0, lsr r0
     5a4:	38f70b50 	ldmcc	r7!, {r4, r6, r8, r9, fp}^
     5a8:	db060000 	blle	1805b0 <_Min_Stack_Size+0x1801b0>
     5ac:	000000a2 	andeq	r0, r0, r2, lsr #1
     5b0:	0d4e0b54 	vstreq	d16, [lr, #-336]	; 0xfffffeb0
     5b4:	e2060000 	and	r0, r6, #0
     5b8:	0000011f 	andeq	r0, r0, pc, lsl r1
     5bc:	5e340b58 			; <UNDEFINED> instruction: 0x5e340b58
     5c0:	e4060000 	str	r0, [r6], #-0
     5c4:	00000114 	andeq	r0, r0, r4, lsl r1
     5c8:	580d0b5c 	stmdapl	sp, {r2, r3, r4, r6, r8, r9, fp}
     5cc:	e5060000 	str	r0, [r6, #-0]
     5d0:	00000030 	andeq	r0, r0, r0, lsr r0
     5d4:	30170064 	andscc	r0, r7, r4, rrx
     5d8:	f4000000 	vst4.8	{d0-d3}, [r0], r0
     5dc:	18000005 	stmdane	r0, {r0, r2}
     5e0:	000004a1 	andeq	r0, r0, r1, lsr #9
     5e4:	00012a18 	andeq	r2, r1, r8, lsl sl
     5e8:	012c1800 			; <UNDEFINED> instruction: 0x012c1800
     5ec:	30180000 	andscc	r0, r8, r0
     5f0:	00000000 	andeq	r0, r0, r0
     5f4:	05d6040d 	ldrbeq	r0, [r6, #1037]	; 0x40d
     5f8:	30170000 	andscc	r0, r7, r0
     5fc:	18000000 	stmdane	r0, {}	; <UNPREDICTABLE>
     600:	18000006 	stmdane	r0, {r1, r2}
     604:	000004a1 	andeq	r0, r0, r1, lsr #9
     608:	00012a18 	andeq	r2, r1, r8, lsl sl
     60c:	06181800 	ldreq	r1, [r8], -r0, lsl #16
     610:	30180000 	andscc	r0, r8, r0
     614:	00000000 	andeq	r0, r0, r0
     618:	0139040d 	teqeq	r9, sp, lsl #8
     61c:	040d0000 	streq	r0, [sp], #-0
     620:	000005fa 	strdeq	r0, [r0], -sl
     624:	0000ad17 	andeq	sl, r0, r7, lsl sp
     628:	00064200 	andeq	r4, r6, r0, lsl #4
     62c:	04a11800 	strteq	r1, [r1], #2048	; 0x800
     630:	2a180000 	bcs	600638 <_Min_Stack_Size+0x600238>
     634:	18000001 	stmdane	r0, {r0}
     638:	000000ad 	andeq	r0, r0, sp, lsr #1
     63c:	00003018 	andeq	r3, r0, r8, lsl r0
     640:	040d0000 	streq	r0, [sp], #-0
     644:	00000624 	andeq	r0, r0, r4, lsr #12
     648:	00003017 	andeq	r3, r0, r7, lsl r0
     64c:	00065c00 	andeq	r5, r6, r0, lsl #24
     650:	04a11800 	strteq	r1, [r1], #2048	; 0x800
     654:	2a180000 	bcs	60065c <_Min_Stack_Size+0x60025c>
     658:	00000001 	andeq	r0, r0, r1
     65c:	0648040d 	strbeq	r0, [r8], -sp, lsl #8
     660:	57080000 	strpl	r0, [r8, -r0]
     664:	72000000 	andvc	r0, r0, #0
     668:	09000006 	stmdbeq	r0, {r1, r2}
     66c:	00000029 	andeq	r0, r0, r9, lsr #32
     670:	57080002 	strpl	r0, [r8, -r2]
     674:	82000000 	andhi	r0, r0, #0
     678:	09000006 	stmdbeq	r0, {r1, r2}
     67c:	00000029 	andeq	r0, r0, r9, lsr #32
     680:	b4050000 	strlt	r0, [r5], #-0
     684:	06000071 			; <UNDEFINED> instruction: 0x06000071
     688:	04ac011f 	strteq	r0, [ip], #287	; 0x11f
     68c:	92140000 	andsls	r0, r4, #0
     690:	0c000055 	stceq	0, cr0, [r0], {85}	; 0x55
     694:	c3012306 	movwgt	r2, #4870	; 0x1306
     698:	15000006 	strne	r0, [r0, #-6]
     69c:	00005e88 	andeq	r5, r0, r8, lsl #29
     6a0:	c3012506 	movwgt	r2, #5382	; 0x1506
     6a4:	00000006 	andeq	r0, r0, r6
     6a8:	002d7715 	eoreq	r7, sp, r5, lsl r7
     6ac:	01260600 			; <UNDEFINED> instruction: 0x01260600
     6b0:	00000030 	andeq	r0, r0, r0, lsr r0
     6b4:	555f1504 	ldrbpl	r1, [pc, #-1284]	; 1b8 <_Min_Heap_Size-0x48>
     6b8:	27060000 	strcs	r0, [r6, -r0]
     6bc:	0006c901 	andeq	ip, r6, r1, lsl #18
     6c0:	0d000800 	stceq	8, cr0, [r0, #-0]
     6c4:	00068e04 	andeq	r8, r6, r4, lsl #28
     6c8:	82040d00 	andhi	r0, r4, #0, 26
     6cc:	14000006 	strne	r0, [r0], #-6
     6d0:	00006cc9 	andeq	r6, r0, r9, asr #25
     6d4:	013f0618 	teqeq	pc, r8, lsl r6	; <UNPREDICTABLE>
     6d8:	00000711 	andeq	r0, r0, r1, lsl r7
     6dc:	00661a15 	rsbeq	r1, r6, r5, lsl sl
     6e0:	01400600 	cmpeq	r0, r0, lsl #12
     6e4:	00000711 	andeq	r0, r0, r1, lsl r7
     6e8:	10461500 	subne	r1, r6, r0, lsl #10
     6ec:	41060000 	mrsmi	r0, (UNDEF: 6)
     6f0:	00071101 	andeq	r1, r7, r1, lsl #2
     6f4:	9d150600 	ldcls	6, cr0, [r5, #-0]
     6f8:	0600008a 	streq	r0, [r0], -sl, lsl #1
     6fc:	00700142 	rsbseq	r0, r0, r2, asr #2
     700:	150c0000 	strne	r0, [ip, #-0]
     704:	00005e83 	andeq	r5, r0, r3, lsl #29
     708:	90014506 	andls	r4, r1, r6, lsl #10
     70c:	10000000 	andne	r0, r0, r0
     710:	00700800 	rsbseq	r0, r0, r0, lsl #16
     714:	07210000 	streq	r0, [r1, -r0]!
     718:	29090000 	stmdbcs	r9, {}	; <UNPREDICTABLE>
     71c:	02000000 	andeq	r0, r0, #0
     720:	86f31400 	ldrbthi	r1, [r3], r0, lsl #8
     724:	06100000 	ldreq	r0, [r0], -r0
     728:	07630158 			; <UNDEFINED> instruction: 0x07630158
     72c:	78150000 	ldmdavc	r5, {}	; <UNPREDICTABLE>
     730:	06000088 	streq	r0, [r0], -r8, lsl #1
     734:	019c015b 	orrseq	r0, ip, fp, asr r1
     738:	15000000 	strne	r0, [r0, #-0]
     73c:	00001785 	andeq	r1, r0, r5, lsl #15
     740:	30015c06 	andcc	r5, r1, r6, lsl #24
     744:	04000000 	streq	r0, [r0], #-0
     748:	00358d15 	eorseq	r8, r5, r5, lsl sp
     74c:	015d0600 	cmpeq	sp, r0, lsl #12
     750:	0000019c 	muleq	r0, ip, r1
     754:	55391508 	ldrpl	r1, [r9, #-1288]!	; 0xfffffaf8
     758:	5e060000 	cdppl	0, 0, cr0, cr6, cr0, {0}
     75c:	00076301 	andeq	r6, r7, r1, lsl #6
     760:	0d000c00 	stceq	12, cr0, [r0, #-0]
     764:	00019c04 	andeq	r9, r1, r4, lsl #24
     768:	1d111400 	cfldrsne	mvf1, [r1, #-0]
     76c:	06500000 	ldrbeq	r0, [r0], -r0
     770:	08060162 	stmdaeq	r6, {r1, r5, r6, r8}
     774:	c7150000 	ldrgt	r0, [r5, -r0]
     778:	0600006f 	streq	r0, [r0], -pc, rrx
     77c:	012c0165 			; <UNDEFINED> instruction: 0x012c0165
     780:	15000000 	strne	r0, [r0, #-0]
     784:	00007af1 	strdeq	r7, [r0], -r1
     788:	14016606 	strne	r6, [r1], #-1542	; 0xfffff9fa
     78c:	04000001 	streq	r0, [r0], #-1
     790:	006b9215 	rsbeq	r9, fp, r5, lsl r2
     794:	01670600 	cmneq	r7, r0, lsl #12
     798:	00000114 	andeq	r0, r0, r4, lsl r1
     79c:	685f150c 	ldmdavs	pc, {r2, r3, r8, sl, ip}^	; <UNPREDICTABLE>
     7a0:	68060000 	stmdavs	r6, {}	; <UNPREDICTABLE>
     7a4:	00011401 	andeq	r1, r1, r1, lsl #8
     7a8:	e3151400 	tst	r5, #0, 8
     7ac:	0600000a 	streq	r0, [r0], -sl
     7b0:	08060169 	stmdaeq	r6, {r0, r3, r5, r6, r8}
     7b4:	151c0000 	ldrne	r0, [ip, #-0]
     7b8:	00000edf 	ldrdeq	r0, [r0], -pc	; <UNPREDICTABLE>
     7bc:	30016a06 	andcc	r6, r1, r6, lsl #20
     7c0:	24000000 	strcs	r0, [r0], #-0
     7c4:	00171715 	andseq	r1, r7, r5, lsl r7
     7c8:	016b0600 	cmneq	fp, r0, lsl #12
     7cc:	00000114 	andeq	r0, r0, r4, lsl r1
     7d0:	70381528 	eorsvc	r1, r8, r8, lsr #10
     7d4:	6c060000 	stcvs	0, cr0, [r6], {-0}
     7d8:	00011401 	andeq	r1, r1, r1, lsl #8
     7dc:	73153000 	tstvc	r5, #0
     7e0:	0600008c 	streq	r0, [r0], -ip, lsl #1
     7e4:	0114016d 	tsteq	r4, sp, ror #2
     7e8:	15380000 	ldrne	r0, [r8, #-0]!
     7ec:	00005b60 	andeq	r5, r0, r0, ror #22
     7f0:	14016e06 	strne	r6, [r1], #-3590	; 0xfffff1fa
     7f4:	40000001 	andmi	r0, r0, r1
     7f8:	000a2115 	andeq	r2, sl, r5, lsl r1
     7fc:	016f0600 	cmneq	pc, r0, lsl #12
     800:	00000114 	andeq	r0, r0, r4, lsl r1
     804:	32080048 	andcc	r0, r8, #72	; 0x48
     808:	16000001 	strne	r0, [r0], -r1
     80c:	09000008 	stmdbeq	r0, {r3}
     810:	00000029 	andeq	r0, r0, r9, lsr #32
     814:	c0190007 	andsgt	r0, r9, r7
     818:	0d000001 	stceq	0, cr0, [r0, #-4]
     81c:	00081604 	andeq	r1, r8, r4, lsl #12
     820:	21040d00 	tstcs	r4, r0, lsl #26
     824:	1a000007 	bne	848 <_Min_Stack_Size+0x448>
     828:	00000832 	andeq	r0, r0, r2, lsr r8
     82c:	0004a118 	andeq	sl, r4, r8, lsl r1
     830:	040d0000 	streq	r0, [sp], #-0
     834:	00000827 	andeq	r0, r0, r7, lsr #16
     838:	06cf040d 	strbeq	r0, [pc], sp, lsl #8
     83c:	040d0000 	streq	r0, [sp], #-0
     840:	000001b2 			; <UNDEFINED> instruction: 0x000001b2
     844:	00084f1a 	andeq	r4, r8, sl, lsl pc
     848:	00301800 	eorseq	r1, r0, r0, lsl #16
     84c:	0d000000 	stceq	0, cr0, [r0, #-0]
     850:	00085504 	andeq	r5, r8, r4, lsl #10
     854:	44040d00 	strmi	r0, [r4], #-3328	; 0xfffff300
     858:	0d000008 	stceq	0, cr0, [r0, #-32]	; 0xffffffe0
     85c:	00076904 	andeq	r6, r7, r4, lsl #18
     860:	20681b00 	rsbcs	r1, r8, r0, lsl #22
     864:	ca060000 	bgt	18086c <_Min_Stack_Size+0x18046c>
     868:	00037001 	andeq	r7, r3, r1
     86c:	57c61b00 	strbpl	r1, [r6, r0, lsl #22]
     870:	cb060000 	blgt	180878 <_Min_Stack_Size+0x180478>
     874:	00037001 	andeq	r7, r3, r1
     878:	46591b00 	ldrbmi	r1, [r9], -r0, lsl #22
     87c:	cc060000 	stcgt	0, cr0, [r6], {-0}
     880:	00037001 	andeq	r7, r3, r1
     884:	2ce31b00 	vstmiacs	r3!, {d17-d16}
     888:	2e060000 	cdpcs	0, 0, cr0, cr6, cr0, {0}
     88c:	0004a103 	andeq	sl, r4, r3, lsl #2
     890:	801c1b00 	andshi	r1, ip, r0, lsl #22
     894:	2f060000 	svccs	0x00060000
     898:	0004a703 	andeq	sl, r4, r3, lsl #14
     89c:	49e41b00 	stmibmi	r4!, {r8, r9, fp, ip}^
     8a0:	41060000 	mrsmi	r0, (UNDEF: 6)
     8a4:	0002b803 	andeq	fp, r2, r3, lsl #16
     8a8:	7f311c00 	svcvc	0x00311c00
     8ac:	63070000 	movwvs	r0, #28672	; 0x7000
     8b0:	0000012c 	andeq	r0, r0, ip, lsr #2
     8b4:	00132004 	andseq	r2, r3, r4
     8b8:	4c180800 	ldcmi	8, cr0, [r8], {-0}
     8bc:	04000000 	streq	r0, [r0], #-0
     8c0:	00002ba1 	andeq	r2, r0, r1, lsr #23
     8c4:	00652408 	rsbeq	r2, r5, r8, lsl #8
     8c8:	9b040000 	blls	1008d0 <_Min_Stack_Size+0x1004d0>
     8cc:	08000043 	stmdaeq	r0, {r0, r1, r6}
     8d0:	00007e30 	andeq	r7, r0, r0, lsr lr
     8d4:	08ca1d00 	stmiaeq	sl, {r8, sl, fp, ip}^
     8d8:	1c0a0000 	stcne	0, cr0, [sl], {-0}
     8dc:	09374709 	ldmdbeq	r7!, {r0, r3, r8, r9, sl, lr}
     8e0:	43100000 	tstmi	r0, #0
     8e4:	09004c52 	stmdbeq	r0, {r1, r4, r6, sl, fp, lr}
     8e8:	0008d549 	andeq	sp, r8, r9, asr #10
     8ec:	43100000 	tstmi	r0, #0
     8f0:	09004852 	stmdbeq	r0, {r1, r4, r6, fp, lr}
     8f4:	0008d54a 	andeq	sp, r8, sl, asr #10
     8f8:	49100400 	ldmdbmi	r0, {sl}
     8fc:	09005244 	stmdbeq	r0, {r2, r6, r9, ip, lr}
     900:	0008d54b 	andeq	sp, r8, fp, asr #10
     904:	4f100800 	svcmi	0x00100800
     908:	09005244 	stmdbeq	r0, {r2, r6, r9, ip, lr}
     90c:	0008d54c 	andeq	sp, r8, ip, asr #10
     910:	840b0c00 	strhi	r0, [fp], #-3072	; 0xfffff400
     914:	09000082 	stmdbeq	r0, {r1, r7}
     918:	0008d54d 	andeq	sp, r8, sp, asr #10
     91c:	42101000 	andsmi	r1, r0, #0
     920:	09005252 	stmdbeq	r0, {r1, r4, r6, r9, ip, lr}
     924:	0008d54e 	andeq	sp, r8, lr, asr #10
     928:	2d0b1400 	cfstrscs	mvf1, [fp, #-0]
     92c:	09000049 	stmdbeq	r0, {r0, r3, r6}
     930:	0008d54f 	andeq	sp, r8, pc, asr #10
     934:	04001800 	streq	r1, [r0], #-2048	; 0xfffff800
     938:	00008416 	andeq	r8, r0, r6, lsl r4
     93c:	08da5009 	ldmeq	sl, {r0, r3, ip, lr}^
     940:	180a0000 	stmdane	sl, {}	; <UNPREDICTABLE>
     944:	09926609 	ldmibeq	r2, {r0, r3, r9, sl, sp, lr}
     948:	49100000 	ldmdbmi	r0, {}	; <UNPREDICTABLE>
     94c:	0900524d 	stmdbeq	r0, {r0, r2, r3, r6, r9, ip, lr}
     950:	0008d568 	andeq	sp, r8, r8, ror #10
     954:	45100000 	ldrmi	r0, [r0, #-0]
     958:	0900524d 	stmdbeq	r0, {r0, r2, r3, r6, r9, ip, lr}
     95c:	0008d569 	andeq	sp, r8, r9, ror #10
     960:	1e0b0400 	cfcpysne	mvf0, mvf11
     964:	0900001a 	stmdbeq	r0, {r1, r3, r4}
     968:	0008d56a 	andeq	sp, r8, sl, ror #10
     96c:	780b0800 	stmdavc	fp, {fp}
     970:	09000011 	stmdbeq	r0, {r0, r4}
     974:	0008d56b 	andeq	sp, r8, fp, ror #10
     978:	980b0c00 	stmdals	fp, {sl, fp}
     97c:	09000055 	stmdbeq	r0, {r0, r2, r4, r6}
     980:	0008d56c 	andeq	sp, r8, ip, ror #10
     984:	50101000 	andspl	r1, r0, r0
     988:	6d090052 	stcvs	0, cr0, [r9, #-328]	; 0xfffffeb8
     98c:	000008d5 	ldrdeq	r0, [r0], -r5
     990:	14040014 	strne	r0, [r4], #-20	; 0xffffffec
     994:	09000093 	stmdbeq	r0, {r0, r1, r4, r7}
     998:	0009426e 	andeq	r4, r9, lr, ror #4
     99c:	09200a00 	stmdbeq	r0!, {r9, fp}
     9a0:	0009e273 	andeq	lr, r9, r3, ror r2
     9a4:	862c0b00 	strthi	r0, [ip], -r0, lsl #22
     9a8:	75090000 	strvc	r0, [r9, #-0]
     9ac:	000008d5 	ldrdeq	r0, [r0], -r5
     9b0:	6e2e0b00 	vmulvs.f64	d0, d14, d0
     9b4:	76090000 	strvc	r0, [r9], -r0
     9b8:	000008d5 	ldrdeq	r0, [r0], -r5
     9bc:	01b90b04 			; <UNDEFINED> instruction: 0x01b90b04
     9c0:	7b090000 	blvc	2409c8 <_Min_Stack_Size+0x2405c8>
     9c4:	000009f2 	strdeq	r0, [r0], -r2
     9c8:	23020b08 	movwcs	r0, #11016	; 0x2b08
     9cc:	7c090000 	stcvc	0, cr0, [r9], {-0}
     9d0:	000008d5 	ldrdeq	r0, [r0], -r5
     9d4:	73920b18 	orrsvc	r0, r2, #24, 22	; 0x6000
     9d8:	7d090000 	stcvc	0, cr0, [r9, #-0]
     9dc:	000008d5 	ldrdeq	r0, [r0], -r5
     9e0:	d508001c 	strle	r0, [r8, #-28]	; 0xffffffe4
     9e4:	f2000008 	vhadd.s8	d0, d0, d8
     9e8:	09000009 	stmdbeq	r0, {r0, r3}
     9ec:	00000029 	andeq	r0, r0, r9, lsr #32
     9f0:	e21d0003 	ands	r0, sp, #3
     9f4:	04000009 	streq	r0, [r0], #-9
     9f8:	00007db0 			; <UNDEFINED> instruction: 0x00007db0
     9fc:	099d7e09 	ldmibeq	sp, {r0, r3, r9, sl, fp, ip, sp, lr}
     a00:	040a0000 	streq	r0, [sl], #-0
     a04:	0a2f120a 	beq	bc5234 <_Min_Stack_Size+0xbc4e34>
     a08:	890b0000 	stmdbhi	fp, {}	; <UNPREDICTABLE>
     a0c:	0a000084 	beq	c24 <_Min_Stack_Size+0x824>
     a10:	0008bf17 	andeq	fp, r8, r7, lsl pc
     a14:	180b0000 	stmdane	fp, {}	; <UNPREDICTABLE>
     a18:	0a000021 	beq	aa4 <_Min_Stack_Size+0x6a4>
     a1c:	0008b41c 	andeq	fp, r8, ip, lsl r4
     a20:	350b0200 	strcc	r0, [fp, #-512]	; 0xfffffe00
     a24:	0a000052 	beq	b74 <_Min_Stack_Size+0x774>
     a28:	0008b421 	andeq	fp, r8, r1, lsr #8
     a2c:	04000300 	streq	r0, [r0], #-768	; 0xfffffd00
     a30:	00002bd6 	ldrdeq	r2, [r0], -r6
     a34:	0a02220a 	beq	89264 <_Min_Stack_Size+0x88e64>
     a38:	0c0a0000 	stceq	0, cr0, [sl], {-0}
     a3c:	0a73130b 	beq	1cc5670 <_Min_Stack_Size+0x1cc5270>
     a40:	200b0000 	andcs	r0, fp, r0
     a44:	0b000052 	bleq	b94 <_Min_Stack_Size+0x794>
     a48:	0008b415 	andeq	fp, r8, r5, lsl r4
     a4c:	570b0000 	strpl	r0, [fp, -r0]
     a50:	0b00006d 	bleq	c0c <_Min_Stack_Size+0x80c>
     a54:	000a7316 	andeq	r7, sl, r6, lsl r3
     a58:	790b0400 	stmdbvc	fp, {sl}
     a5c:	0b000077 	bleq	c40 <_Min_Stack_Size+0x840>
     a60:	0008b417 	andeq	fp, r8, r7, lsl r4
     a64:	c00b0800 	andgt	r0, fp, r0, lsl #16
     a68:	0b00008e 	bleq	ca8 <_Min_Stack_Size+0x8a8>
     a6c:	0008b418 	andeq	fp, r8, r8, lsl r4
     a70:	0d000900 	vstreq.16	s0, [r0, #-0]	; <UNPREDICTABLE>
     a74:	00093704 	andeq	r3, r9, r4, lsl #14
     a78:	91760400 	cmnls	r6, r0, lsl #8
     a7c:	190b0000 	stmdbne	fp, {}	; <UNPREDICTABLE>
     a80:	00000a3a 	andeq	r0, r0, sl, lsr sl
     a84:	1c0b140a 	cfstrsne	mvf1, [fp], {10}
     a88:	00000abd 			; <UNDEFINED> instruction: 0x00000abd
     a8c:	0054810b 	subseq	r8, r4, fp, lsl #2
     a90:	79200b00 	stmdbvc	r0!, {r8, r9, fp}
     a94:	0000000a 	andeq	r0, r0, sl
     a98:	00324b0b 	eorseq	r4, r2, fp, lsl #22
     a9c:	b4230b00 	strtlt	r0, [r3], #-2816	; 0xfffff500
     aa0:	0c000008 	stceq	0, cr0, [r0], {8}
     aa4:	001be80b 	andseq	lr, fp, fp, lsl #16
     aa8:	b4260b00 	strtlt	r0, [r6], #-2816	; 0xfffff500
     aac:	0d000008 	stceq	0, cr0, [r0, #-32]	; 0xffffffe0
     ab0:	0061670b 	rsbeq	r6, r1, fp, lsl #14
     ab4:	ce280b00 	vmulgt.f64	d0, d8, d0
     ab8:	10000002 	andne	r0, r0, r2
     abc:	8c650400 	cfstrdhi	mvd0, [r5], #-0
     ac0:	290b0000 	stmdbcs	fp, {}	; <UNPREDICTABLE>
     ac4:	00000a84 	andeq	r0, r0, r4, lsl #21
     ac8:	0002ce08 	andeq	ip, r2, r8, lsl #28
     acc:	000ad800 	andeq	sp, sl, r0, lsl #16
     ad0:	00290900 	eoreq	r0, r9, r0, lsl #18
     ad4:	000e0000 	andeq	r0, lr, r0
     ad8:	0061661e 	rsbeq	r6, r1, lr, lsl r6
     adc:	c8120100 	ldmdagt	r2, {r8}
     ae0:	0500000a 	streq	r0, [r0, #-10]
     ae4:	00001c03 	andeq	r1, r0, r3, lsl #24
     ae8:	87451f20 	strbhi	r1, [r5, -r0, lsr #30]
     aec:	2a010000 	bcs	40af4 <_Min_Stack_Size+0x406f4>
     af0:	00066c01 	andeq	r6, r6, r1, lsl #24
     af4:	0000dc08 	andeq	sp, r0, r8, lsl #24
     af8:	1f9c0100 	svcne	0x009c0100
     afc:	0000732e 	andeq	r7, r0, lr, lsr #6
     b00:	b0012101 	andlt	r2, r1, r1, lsl #2
     b04:	bc080005 	stclt	0, cr0, [r8], {5}
     b08:	01000000 	mrseq	r0, (UNDEF: 0)
     b0c:	28201f9c 	stmdacs	r0!, {r2, r3, r4, r7, r8, r9, sl, fp, ip}
     b10:	19010000 	stmdbne	r1, {}	; <UNPREDICTABLE>
     b14:	00058c01 	andeq	r8, r5, r1, lsl #24
     b18:	00002408 	andeq	r2, r0, r8, lsl #8
     b1c:	1f9c0100 	svcne	0x009c0100
     b20:	00007ec7 	andeq	r7, r0, r7, asr #29
     b24:	68011101 	stmdavs	r1, {r0, r8, ip}
     b28:	24080005 	strcs	r0, [r8], #-5
     b2c:	01000000 	mrseq	r0, (UNDEF: 0)
     b30:	6e4f1f9c 	mcrvs	15, 2, r1, cr15, cr12, {4}
     b34:	09010000 	stmdbeq	r1, {}	; <UNPREDICTABLE>
     b38:	00054401 	andeq	r4, r5, r1, lsl #8
     b3c:	00002408 	andeq	r2, r0, r8, lsl #8
     b40:	1f9c0100 	svcne	0x009c0100
     b44:	00008f59 	andeq	r8, r0, r9, asr pc
     b48:	20010101 	andcs	r0, r1, r1, lsl #2
     b4c:	24080005 	strcs	r0, [r8], #-5
     b50:	01000000 	mrseq	r0, (UNDEF: 0)
     b54:	834e209c 	movthi	r2, #57500	; 0xe09c
     b58:	f9010000 			; <UNDEFINED> instruction: 0xf9010000
     b5c:	080004fc 	stmdaeq	r0, {r2, r3, r4, r5, r6, r7, sl}
     b60:	00000024 	andeq	r0, r0, r4, lsr #32
     b64:	7a219c01 	bvc	867b70 <_Min_Stack_Size+0x867770>
     b68:	0100000e 	tsteq	r0, lr
     b6c:	000000ec 	andeq	r0, r0, ip, ror #1
     b70:	00001600 	andeq	r1, r0, r0, lsl #12
     b74:	8a9c0100 	bhi	fe700f7c <_estack+0xde6fe77c>
     b78:	2200000b 	andcs	r0, r0, #11
     b7c:	0000284d 	andeq	r2, r0, sp, asr #16
     b80:	0b8aec01 	bleq	fe2bbb8c <_estack+0xde2b938c>
     b84:	91020000 	mrsls	r0, (UNDEF: 2)
     b88:	040d0074 	streq	r0, [sp], #-116	; 0xffffff8c
     b8c:	00000abd 			; <UNDEFINED> instruction: 0x00000abd
     b90:	004e7b21 	subeq	r7, lr, r1, lsr #22
     b94:	e4de0100 	ldrb	r0, [lr], #256	; 0x100
     b98:	16080004 	strne	r0, [r8], -r4
     b9c:	01000000 	mrseq	r0, (UNDEF: 0)
     ba0:	000bb49c 	muleq	fp, ip, r4
     ba4:	284d2200 	stmdacs	sp, {r9, sp}^
     ba8:	de010000 	cdple	0, 0, cr0, cr1, cr0, {0}
     bac:	00000b8a 	andeq	r0, r0, sl, lsl #23
     bb0:	00749102 	rsbseq	r9, r4, r2, lsl #2
     bb4:	0031bc23 	eorseq	fp, r1, r3, lsr #24
     bb8:	00c00100 	sbceq	r0, r0, r0, lsl #2
     bbc:	94000000 	strls	r0, [r0], #-0
     bc0:	01000000 	mrseq	r0, (UNDEF: 0)
     bc4:	17aa219c 			; <UNDEFINED> instruction: 0x17aa219c
     bc8:	73010000 	movwvc	r0, #4096	; 0x1000
     bcc:	08000308 	stmdaeq	r0, {r3, r8, r9}
     bd0:	000001dc 	ldrdeq	r0, [r0], -ip
     bd4:	0c139c01 	ldceq	12, cr9, [r3], {1}
     bd8:	4d220000 	stcmi	0, cr0, [r2, #-0]
     bdc:	01000028 	tsteq	r0, r8, lsr #32
     be0:	000b8a73 	andeq	r8, fp, r3, ror sl
     be4:	6c910200 	lfmvs	f0, 4, [r1], {0}
     be8:	008bc024 	addeq	ip, fp, r4, lsr #32
     bec:	2f760100 	svccs	0x00760100
     bf0:	0200000a 	andeq	r0, r0, #10
     bf4:	06247091 			; <UNDEFINED> instruction: 0x06247091
     bf8:	01000069 	tsteq	r0, r9, rrx
     bfc:	0008b47e 	andeq	fp, r8, lr, ror r4
     c00:	77910200 	ldrvc	r0, [r1, r0, lsl #4]
     c04:	0023b624 	eoreq	fp, r3, r4, lsr #12
     c08:	b47f0100 	ldrbtlt	r0, [pc], #-256	; c10 <_Min_Stack_Size+0x810>
     c0c:	02000008 	andeq	r0, r0, #8
     c10:	25007691 	strcs	r7, [r0, #-1681]	; 0xfffff96f
     c14:	00008ede 	ldrdeq	r8, [r0], -lr
     c18:	023c4c01 	eorseq	r4, ip, #256	; 0x100
     c1c:	00cc0800 	sbceq	r0, ip, r0, lsl #16
     c20:	9c010000 	stcls	0, cr0, [r1], {-0}
     c24:	00000c37 	andeq	r0, r0, r7, lsr ip
     c28:	51524926 	cmppl	r2, r6, lsr #18
     c2c:	bf4c0100 	svclt	0x004c0100
     c30:	02000008 	andeq	r0, r0, #8
     c34:	27007691 			; <UNDEFINED> instruction: 0x27007691
     c38:	000092e8 	andeq	r9, r0, r8, ror #5
     c3c:	01702601 	cmneq	r0, r1, lsl #12
     c40:	00cc0800 	sbceq	r0, ip, r0, lsl #16
     c44:	9c010000 	stcls	0, cr0, [r1], {-0}
     c48:	51524926 	cmppl	r2, r6, lsr #18
     c4c:	bf260100 	svclt	0x00260100
     c50:	02000008 	andeq	r0, r0, #8
     c54:	00007691 	muleq	r0, r1, r6
     c58:	00000c16 	andeq	r0, r0, r6, lsl ip
     c5c:	02330004 	eorseq	r0, r3, #4
     c60:	01040000 	mrseq	r0, (UNDEF: 4)
     c64:	00003781 	andeq	r3, r0, r1, lsl #15
     c68:	0094180c 	addseq	r1, r4, ip, lsl #16
     c6c:	00082100 	andeq	r2, r8, r0, lsl #2
     c70:	00007000 	andeq	r7, r0, r0
     c74:	00000000 	andeq	r0, r0, r0
     c78:	0006e600 	andeq	lr, r6, r0, lsl #12
     c7c:	001d8300 	andseq	r8, sp, r0, lsl #6
     c80:	07040200 	streq	r0, [r4, -r0, lsl #4]
     c84:	00002321 	andeq	r2, r0, r1, lsr #6
     c88:	69050403 	stmdbvs	r5, {r0, r1, sl}
     c8c:	0200746e 	andeq	r7, r0, #1845493760	; 0x6e000000
     c90:	54510508 	ldrbpl	r0, [r1], #-1288	; 0xfffffaf8
     c94:	08020000 	stmdaeq	r2, {}	; <UNPREDICTABLE>
     c98:	0002db04 	andeq	sp, r2, r4, lsl #22
     c9c:	06010200 	streq	r0, [r1], -r0, lsl #4
     ca0:	00000766 	andeq	r0, r0, r6, ror #14
     ca4:	00131e04 	andseq	r1, r3, r4, lsl #28
     ca8:	572b0200 	strpl	r0, [fp, -r0, lsl #4]!
     cac:	02000000 	andeq	r0, r0, #0
     cb0:	317b0801 	cmncc	fp, r1, lsl #16
     cb4:	02020000 	andeq	r0, r2, #0
     cb8:	000a5f05 	andeq	r5, sl, r5, lsl #30
     cbc:	2b9f0400 	blcs	fe7c1cc4 <_estack+0xde7bf4c4>
     cc0:	39020000 	stmdbcc	r2, {}	; <UNPREDICTABLE>
     cc4:	00000070 	andeq	r0, r0, r0, ror r0
     cc8:	44070202 	strmi	r0, [r7], #-514	; 0xfffffdfe
     ccc:	0200006d 	andeq	r0, r0, #109	; 0x6d
     cd0:	6ff10504 	svcvs	0x00f10504
     cd4:	99040000 	stmdbls	r4, {}	; <UNPREDICTABLE>
     cd8:	02000043 	andeq	r0, r0, #67	; 0x43
     cdc:	0000894f 	andeq	r8, r0, pc, asr #18
     ce0:	07040200 	streq	r0, [r4, -r0, lsl #4]
     ce4:	00001aa8 	andeq	r1, r0, r8, lsr #21
     ce8:	ed070802 	stc	8, cr0, [r7, #-8]
     cec:	04000079 	streq	r0, [r0], #-121	; 0xffffff87
     cf0:	00004610 	andeq	r4, r0, r0, lsl r6
     cf4:	00300c03 	eorseq	r0, r0, r3, lsl #24
     cf8:	da040000 	ble	100d00 <_Min_Stack_Size+0x100900>
     cfc:	04000089 	streq	r0, [r0], #-137	; 0xffffff77
     d00:	0000772c 	andeq	r7, r0, ip, lsr #14
     d04:	676b0400 	strbvs	r0, [fp, -r0, lsl #8]!
     d08:	72040000 	andvc	r0, r4, #0
     d0c:	00000077 	andeq	r0, r0, r7, ror r0
     d10:	00251305 	eoreq	r1, r5, r5, lsl #6
     d14:	01650500 	cmneq	r5, r0, lsl #10
     d18:	00000029 	andeq	r0, r0, r9, lsr #32
     d1c:	a6040406 	strge	r0, [r4], -r6, lsl #8
     d20:	000000e3 	andeq	r0, r0, r3, ror #1
     d24:	00153b07 	andseq	r3, r5, r7, lsl #22
     d28:	b8a80400 	stmialt	r8!, {sl}
     d2c:	07000000 	streq	r0, [r0, -r0]
     d30:	0000753f 	andeq	r7, r0, pc, lsr r5
     d34:	00e3a904 	rsceq	sl, r3, r4, lsl #18
     d38:	08000000 	stmdaeq	r0, {}	; <UNPREDICTABLE>
     d3c:	00000057 	andeq	r0, r0, r7, asr r0
     d40:	000000f3 	strdeq	r0, [r0], -r3
     d44:	00002909 	andeq	r2, r0, r9, lsl #18
     d48:	0a000300 	beq	1950 <_Min_Stack_Size+0x1550>
     d4c:	14a30408 	strtne	r0, [r3], #1032	; 0x408
     d50:	0b000001 	bleq	d5c <_Min_Stack_Size+0x95c>
     d54:	000061ef 	andeq	r6, r0, pc, ror #3
     d58:	0030a504 	eorseq	sl, r0, r4, lsl #10
     d5c:	0b000000 	bleq	d64 <_Min_Stack_Size+0x964>
     d60:	000001e4 	andeq	r0, r0, r4, ror #3
     d64:	00c4aa04 	sbceq	sl, r4, r4, lsl #20
     d68:	00040000 	andeq	r0, r4, r0
     d6c:	00559e04 	subseq	r9, r5, r4, lsl #28
     d70:	f3ab0400 	vraddhn.i64	d0, <illegal reg q5.5>, q0
     d74:	04000000 	streq	r0, [r0], #-0
     d78:	0000717d 	andeq	r7, r0, sp, ror r1
     d7c:	0097af04 	addseq	sl, r7, r4, lsl #30
     d80:	040c0000 	streq	r0, [ip], #-0
     d84:	0132040d 	teqeq	r2, sp, lsl #8
     d88:	01020000 	mrseq	r0, (UNDEF: 2)
     d8c:	00076d08 	andeq	r6, r7, r8, lsl #26
     d90:	01320e00 	teqeq	r2, r0, lsl #28
     d94:	84040000 	strhi	r0, [r4], #-0
     d98:	06000087 	streq	r0, [r0], -r7, lsl #1
     d9c:	00008916 	andeq	r8, r0, r6, lsl r9
     da0:	4ac20f00 	bmi	ff0849a8 <_estack+0xdf0821a8>
     da4:	06180000 	ldreq	r0, [r8], -r0
     da8:	00019c2f 	andeq	r9, r1, pc, lsr #24
     dac:	5e880b00 	vdivpl.f64	d0, d8, d0
     db0:	31060000 	mrscc	r0, (UNDEF: 6)
     db4:	0000019c 	muleq	r0, ip, r1
     db8:	6b5f1000 	blvs	17c4dc0 <_Min_Stack_Size+0x17c49c0>
     dbc:	30320600 	eorscc	r0, r2, r0, lsl #12
     dc0:	04000000 	streq	r0, [r0], #-0
     dc4:	007fcd0b 	rsbseq	ip, pc, fp, lsl #26
     dc8:	30320600 	eorscc	r0, r2, r0, lsl #12
     dcc:	08000000 	stmdaeq	r0, {}	; <UNPREDICTABLE>
     dd0:	0055a90b 	subseq	sl, r5, fp, lsl #18
     dd4:	30320600 	eorscc	r0, r2, r0, lsl #12
     dd8:	0c000000 	stceq	0, cr0, [r0], {-0}
     ddc:	0036270b 	eorseq	r2, r6, fp, lsl #14
     de0:	30320600 	eorscc	r0, r2, r0, lsl #12
     de4:	10000000 	andne	r0, r0, r0
     de8:	00785f10 	rsbseq	r5, r8, r0, lsl pc
     dec:	01a23306 			; <UNDEFINED> instruction: 0x01a23306
     df0:	00140000 	andseq	r0, r4, r0
     df4:	0149040d 	cmpeq	r9, sp, lsl #8
     df8:	3e080000 	cdpcc	0, 0, cr0, cr8, cr0, {0}
     dfc:	b2000001 	andlt	r0, r0, #1
     e00:	09000001 	stmdbeq	r0, {r0}
     e04:	00000029 	andeq	r0, r0, r9, lsr #32
     e08:	1c0f0000 	stcne	0, cr0, [pc], {-0}
     e0c:	2400000a 	strcs	r0, [r0], #-10
     e10:	022b3706 	eoreq	r3, fp, #1572864	; 0x180000
     e14:	380b0000 	stmdacc	fp, {}	; <UNPREDICTABLE>
     e18:	0600000a 	streq	r0, [r0], -sl
     e1c:	00003039 	andeq	r3, r0, r9, lsr r0
     e20:	6d0b0000 	stcvs	0, cr0, [fp, #-0]
     e24:	06000091 			; <UNDEFINED> instruction: 0x06000091
     e28:	0000303a 	andeq	r3, r0, sl, lsr r0
     e2c:	f30b0400 	vshl.u8	d0, d0, d11
     e30:	0600008a 	streq	r0, [r0], -sl, lsl #1
     e34:	0000303b 	andeq	r3, r0, fp, lsr r0
     e38:	330b0800 	movwcc	r0, #47104	; 0xb800
     e3c:	0600005c 			; <UNDEFINED> instruction: 0x0600005c
     e40:	0000303c 	andeq	r3, r0, ip, lsr r0
     e44:	3a0b0c00 	bcc	2c3e4c <_Min_Stack_Size+0x2c3a4c>
     e48:	0600001b 			; <UNDEFINED> instruction: 0x0600001b
     e4c:	0000303d 	andeq	r3, r0, sp, lsr r0
     e50:	450b1000 	strmi	r1, [fp, #-0]
     e54:	06000080 	streq	r0, [r0], -r0, lsl #1
     e58:	0000303e 	andeq	r3, r0, lr, lsr r0
     e5c:	c90b1400 	stmdbgt	fp, {sl, ip}
     e60:	06000063 	streq	r0, [r0], -r3, rrx
     e64:	0000303f 	andeq	r3, r0, pc, lsr r0
     e68:	960b1800 	strls	r1, [fp], -r0, lsl #16
     e6c:	06000064 	streq	r0, [r0], -r4, rrx
     e70:	00003040 	andeq	r3, r0, r0, asr #32
     e74:	4e0b1c00 	cdpmi	12, 0, cr1, cr11, cr0, {0}
     e78:	0600008f 	streq	r0, [r0], -pc, lsl #1
     e7c:	00003041 	andeq	r3, r0, r1, asr #32
     e80:	11002000 	mrsne	r2, (UNDEF: 0)
     e84:	00001458 	andeq	r1, r0, r8, asr r4
     e88:	4a060108 	bmi	1812b0 <_Min_Stack_Size+0x180eb0>
     e8c:	0000026b 	andeq	r0, r0, fp, ror #4
     e90:	000d460b 	andeq	r4, sp, fp, lsl #12
     e94:	6b4b0600 	blvs	12c269c <_Min_Stack_Size+0x12c229c>
     e98:	00000002 	andeq	r0, r0, r2
     e9c:	006c6e0b 	rsbeq	r6, ip, fp, lsl #28
     ea0:	6b4c0600 	blvs	13026a8 <_Min_Stack_Size+0x13022a8>
     ea4:	80000002 	andhi	r0, r0, r2
     ea8:	001a1512 	andseq	r1, sl, r2, lsl r5
     eac:	3e4e0600 	cdpcc	6, 4, cr0, cr14, cr0, {0}
     eb0:	00000001 	andeq	r0, r0, r1
     eb4:	86241201 	strthi	r1, [r4], -r1, lsl #4
     eb8:	51060000 	mrspl	r0, (UNDEF: 6)
     ebc:	0000013e 	andeq	r0, r0, lr, lsr r1
     ec0:	08000104 	stmdaeq	r0, {r2, r8}
     ec4:	0000012a 	andeq	r0, r0, sl, lsr #2
     ec8:	0000027b 	andeq	r0, r0, fp, ror r2
     ecc:	00002909 	andeq	r2, r0, r9, lsl #18
     ed0:	0f001f00 	svceq	0x00001f00
     ed4:	000049eb 	andeq	r4, r0, fp, ror #19
     ed8:	b855068c 	ldmdalt	r5, {r2, r3, r7, r9, sl}^
     edc:	0b000002 	bleq	eec <_Min_Stack_Size+0xaec>
     ee0:	00005e88 	andeq	r5, r0, r8, lsl #29
     ee4:	02b85606 	adcseq	r5, r8, #6291456	; 0x600000
     ee8:	0b000000 	bleq	ef0 <_Min_Stack_Size+0xaf0>
     eec:	00002780 	andeq	r2, r0, r0, lsl #15
     ef0:	00305706 	eorseq	r5, r0, r6, lsl #14
     ef4:	0b040000 	bleq	100efc <_Min_Stack_Size+0x100afc>
     ef8:	000028dc 	ldrdeq	r2, [r0], -ip
     efc:	02be5806 	adcseq	r5, lr, #393216	; 0x60000
     f00:	0b080000 	bleq	200f08 <_Min_Stack_Size+0x200b08>
     f04:	00002e3a 	andeq	r2, r0, sl, lsr lr
     f08:	02d55906 	sbcseq	r5, r5, #98304	; 0x18000
     f0c:	00880000 	addeq	r0, r8, r0
     f10:	027b040d 	rsbseq	r0, fp, #218103808	; 0xd000000
     f14:	ce080000 	cdpgt	0, 0, cr0, cr8, cr0, {0}
     f18:	ce000002 	cdpgt	0, 0, cr0, cr0, cr2, {0}
     f1c:	09000002 	stmdbeq	r0, {r1}
     f20:	00000029 	andeq	r0, r0, r9, lsr #32
     f24:	040d001f 	streq	r0, [sp], #-31	; 0xffffffe1
     f28:	000002d4 	ldrdeq	r0, [r0], -r4
     f2c:	2b040d13 	blcs	104380 <_Min_Stack_Size+0x103f80>
     f30:	0f000002 	svceq	0x00000002
     f34:	0000030a 	andeq	r0, r0, sl, lsl #6
     f38:	00750608 	rsbseq	r0, r5, r8, lsl #12
     f3c:	0b000003 	bleq	f50 <_Min_Stack_Size+0xb50>
     f40:	00006e95 	muleq	r0, r5, lr
     f44:	03007606 	movweq	r7, #1542	; 0x606
     f48:	0b000000 	bleq	f50 <_Min_Stack_Size+0xb50>
     f4c:	0000882b 	andeq	r8, r0, fp, lsr #16
     f50:	00307706 	eorseq	r7, r0, r6, lsl #14
     f54:	00040000 	andeq	r0, r4, r0
     f58:	0057040d 	subseq	r0, r7, sp, lsl #8
     f5c:	f20f0000 	vhadd.s8	d0, d15, d0
     f60:	20000035 	andcs	r0, r0, r5, lsr r0
     f64:	03709906 	cmneq	r0, #98304	; 0x18000
     f68:	5f100000 	svcpl	0x00100000
     f6c:	9a060070 	bls	181134 <_Min_Stack_Size+0x180d34>
     f70:	00000300 	andeq	r0, r0, r0, lsl #6
     f74:	725f1000 	subsvc	r1, pc, #0
     f78:	309b0600 	addscc	r0, fp, r0, lsl #12
     f7c:	04000000 	streq	r0, [r0], #-0
     f80:	00775f10 	rsbseq	r5, r7, r0, lsl pc
     f84:	00309c06 	eorseq	r9, r0, r6, lsl #24
     f88:	0b080000 	bleq	200f90 <_Min_Stack_Size+0x200b90>
     f8c:	00005ea6 	andeq	r5, r0, r6, lsr #29
     f90:	005e9d06 	subseq	r9, lr, r6, lsl #26
     f94:	0b0c0000 	bleq	300f9c <_Min_Stack_Size+0x300b9c>
     f98:	000013bd 			; <UNDEFINED> instruction: 0x000013bd
     f9c:	005e9e06 	subseq	r9, lr, r6, lsl #28
     fa0:	100e0000 	andne	r0, lr, r0
     fa4:	0066625f 	rsbeq	r6, r6, pc, asr r2
     fa8:	02db9f06 	sbcseq	r9, fp, #6, 30
     fac:	0b100000 	bleq	400fb4 <_Min_Stack_Size+0x400bb4>
     fb0:	0000845c 	andeq	r8, r0, ip, asr r4
     fb4:	0030a006 	eorseq	sl, r0, r6
     fb8:	0b180000 	bleq	600fc0 <_Min_Stack_Size+0x600bc0>
     fbc:	000073c6 	andeq	r7, r0, r6, asr #7
     fc0:	04a1a206 	strteq	sl, [r1], #518	; 0x206
     fc4:	001c0000 	andseq	r0, ip, r0
     fc8:	0003060e 	andeq	r0, r3, lr, lsl #12
     fcc:	1d161400 	cfldrsne	mvf1, [r6, #-0]
     fd0:	06600000 	strbteq	r0, [r0], -r0
     fd4:	04a10174 	strteq	r0, [r1], #372	; 0x174
     fd8:	f4150000 			; <UNDEFINED> instruction: 0xf4150000
     fdc:	06000046 	streq	r0, [r0], -r6, asr #32
     fe0:	00300178 	eorseq	r0, r0, r8, ror r1
     fe4:	15000000 	strne	r0, [r0, #-0]
     fe8:	00002071 	andeq	r2, r0, r1, ror r0
     fec:	c9017d06 	stmdbgt	r1, {r1, r2, r8, sl, fp, ip, sp, lr}
     ff0:	04000006 	streq	r0, [r0], #-6
     ff4:	0057cf15 	subseq	ip, r7, r5, lsl pc
     ff8:	017d0600 	cmneq	sp, r0, lsl #12
     ffc:	000006c9 	andeq	r0, r0, r9, asr #13
    1000:	46621508 	strbtmi	r1, [r2], -r8, lsl #10
    1004:	7d060000 	stcvc	0, cr0, [r6, #-0]
    1008:	0006c901 	andeq	ip, r6, r1, lsl #18
    100c:	7b150c00 	blvc	544014 <_Min_Stack_Size+0x543c14>
    1010:	06000027 	streq	r0, [r0], -r7, lsr #32
    1014:	0030017f 	eorseq	r0, r0, pc, ror r1
    1018:	15100000 	ldrne	r0, [r0, #-0]
    101c:	00005851 	andeq	r5, r0, r1, asr r8
    1020:	2c018106 	stfcsd	f0, [r1], {6}
    1024:	14000001 	strne	r0, [r0], #-1
    1028:	0043e015 	subeq	lr, r3, r5, lsl r0
    102c:	01830600 	orreq	r0, r3, r0, lsl #12
    1030:	00000030 	andeq	r0, r0, r0, lsr r0
    1034:	24f31518 	ldrbtcs	r1, [r3], #1304	; 0x518
    1038:	85060000 	strhi	r0, [r6, #-0]
    103c:	00003001 	andeq	r3, r0, r1
    1040:	89151c00 	ldmdbhi	r5, {sl, fp, ip}
    1044:	06000031 			; <UNDEFINED> instruction: 0x06000031
    1048:	081b0186 	ldmdaeq	fp, {r1, r2, r7, r8}
    104c:	16200000 	strtne	r0, [r0], -r0
    1050:	00706d5f 	rsbseq	r6, r0, pc, asr sp
    1054:	21018806 	tstcs	r1, r6, lsl #16
    1058:	24000008 	strcs	r0, [r0], #-8
    105c:	004c7715 	subeq	r7, ip, r5, lsl r7
    1060:	018a0600 	orreq	r0, sl, r0, lsl #12
    1064:	00000832 	andeq	r0, r0, r2, lsr r8
    1068:	539d1528 	orrspl	r1, sp, #40, 10	; 0xa000000
    106c:	8c060000 	stchi	0, cr0, [r6], {-0}
    1070:	00003001 	andeq	r3, r0, r1
    1074:	ad152c00 	ldcge	12, cr2, [r5, #-0]
    1078:	06000005 	streq	r0, [r0], -r5
    107c:	0030018f 	eorseq	r0, r0, pc, lsl #3
    1080:	15300000 	ldrne	r0, [r0, #-0]!
    1084:	000038ff 	strdeq	r3, [r0], -pc	; <UNPREDICTABLE>
    1088:	2c019006 	stccs	0, cr9, [r1], {6}
    108c:	34000001 	strcc	r0, [r0], #-1
    1090:	0072df15 	rsbseq	sp, r2, r5, lsl pc
    1094:	01920600 	orrseq	r0, r2, r0, lsl #12
    1098:	00000838 	andeq	r0, r0, r8, lsr r8
    109c:	18e31538 	stmiane	r3!, {r3, r4, r5, r8, sl, ip}^
    10a0:	93060000 	movwls	r0, #24576	; 0x6000
    10a4:	00083e01 	andeq	r3, r8, r1, lsl #28
    10a8:	89153c00 	ldmdbhi	r5, {sl, fp, ip, sp}
    10ac:	06000005 	streq	r0, [r0], -r5
    10b0:	012c0194 			; <UNDEFINED> instruction: 0x012c0194
    10b4:	15400000 	strbne	r0, [r0, #-0]
    10b8:	00003717 	andeq	r3, r0, r7, lsl r7
    10bc:	4f019706 	svcmi	0x00019706
    10c0:	44000008 	strmi	r0, [r0], #-8
    10c4:	008eae15 	addeq	sl, lr, r5, lsl lr
    10c8:	019f0600 	orrseq	r0, pc, r0, lsl #12
    10cc:	0000068e 	andeq	r0, r0, lr, lsl #13
    10d0:	02ae1548 	adceq	r1, lr, #72, 10	; 0x12000000
    10d4:	a0060000 	andge	r0, r6, r0
    10d8:	0006c901 	andeq	ip, r6, r1, lsl #18
    10dc:	5a155400 	bpl	5560e4 <_Min_Stack_Size+0x555ce4>
    10e0:	06000087 	streq	r0, [r0], -r7, lsl #1
    10e4:	085b01a1 	ldmdaeq	fp, {r0, r5, r7, r8}^
    10e8:	15580000 	ldrbne	r0, [r8, #-0]
    10ec:	00004921 	andeq	r4, r0, r1, lsr #18
    10f0:	2c01a206 	sfmcs	f2, 1, [r1], {6}
    10f4:	5c000001 	stcpl	0, cr0, [r0], {1}
    10f8:	75040d00 	strvc	r0, [r4, #-3328]	; 0xfffff300
    10fc:	0e000003 	cdpeq	0, 0, cr0, cr0, cr3, {0}
    1100:	000004a1 	andeq	r0, r0, r1, lsr #9
    1104:	0043d80f 	subeq	sp, r3, pc, lsl #16
    1108:	b5066800 	strlt	r6, [r6, #-2048]	; 0xfffff800
    110c:	000005d6 	ldrdeq	r0, [r0], -r6
    1110:	00705f10 	rsbseq	r5, r0, r0, lsl pc
    1114:	0300b606 	movweq	fp, #1542	; 0x606
    1118:	10000000 	andne	r0, r0, r0
    111c:	0600725f 			; <UNDEFINED> instruction: 0x0600725f
    1120:	000030b7 	strheq	r3, [r0], -r7
    1124:	5f100400 	svcpl	0x00100400
    1128:	b8060077 	stmdalt	r6, {r0, r1, r2, r4, r5, r6}
    112c:	00000030 	andeq	r0, r0, r0, lsr r0
    1130:	5ea60b08 	vfmapl.f64	d0, d6, d8
    1134:	b9060000 	stmdblt	r6, {}	; <UNPREDICTABLE>
    1138:	0000005e 	andeq	r0, r0, lr, asr r0
    113c:	13bd0b0c 			; <UNDEFINED> instruction: 0x13bd0b0c
    1140:	ba060000 	blt	181148 <_Min_Stack_Size+0x180d48>
    1144:	0000005e 	andeq	r0, r0, lr, asr r0
    1148:	625f100e 	subsvs	r1, pc, #14
    114c:	bb060066 	bllt	1812ec <_Min_Stack_Size+0x180eec>
    1150:	000002db 	ldrdeq	r0, [r0], -fp
    1154:	845c0b10 	ldrbhi	r0, [ip], #-2832	; 0xfffff4f0
    1158:	bc060000 	stclt	0, cr0, [r6], {-0}
    115c:	00000030 	andeq	r0, r0, r0, lsr r0
    1160:	73c60b18 	bicvc	r0, r6, #24, 22	; 0x6000
    1164:	bf060000 	svclt	0x00060000
    1168:	000004a1 	andeq	r0, r0, r1, lsr #9
    116c:	35720b1c 	ldrbcc	r0, [r2, #-2844]!	; 0xfffff4e4
    1170:	c3060000 	movwgt	r0, #24576	; 0x6000
    1174:	0000012a 	andeq	r0, r0, sl, lsr #2
    1178:	03110b20 	tsteq	r1, #32, 22	; 0x8000
    117c:	c5060000 	strgt	r0, [r6, #-0]
    1180:	000005f4 	strdeq	r0, [r0], -r4
    1184:	05550b24 	ldrbeq	r0, [r5, #-2852]	; 0xfffff4dc
    1188:	c7060000 	strgt	r0, [r6, -r0]
    118c:	0000061e 	andeq	r0, r0, lr, lsl r6
    1190:	66b60b28 	ldrtvs	r0, [r6], r8, lsr #22
    1194:	ca060000 	bgt	18119c <_Min_Stack_Size+0x180d9c>
    1198:	00000642 	andeq	r0, r0, r2, asr #12
    119c:	64510b2c 	ldrbvs	r0, [r1], #-2860	; 0xfffff4d4
    11a0:	cb060000 	blgt	1811a8 <_Min_Stack_Size+0x180da8>
    11a4:	0000065c 	andeq	r0, r0, ip, asr r6
    11a8:	755f1030 	ldrbvc	r1, [pc, #-48]	; 1180 <_Min_Stack_Size+0xd80>
    11ac:	ce060062 	cdpgt	0, 0, cr0, cr6, cr2, {3}
    11b0:	000002db 	ldrdeq	r0, [r0], -fp
    11b4:	755f1034 	ldrbvc	r1, [pc, #-52]	; 1188 <_Min_Stack_Size+0xd88>
    11b8:	cf060070 	svcgt	0x00060070
    11bc:	00000300 	andeq	r0, r0, r0, lsl #6
    11c0:	755f103c 	ldrbvc	r1, [pc, #-60]	; 118c <_Min_Stack_Size+0xd8c>
    11c4:	d0060072 	andle	r0, r6, r2, ror r0
    11c8:	00000030 	andeq	r0, r0, r0, lsr r0
    11cc:	5cc90b40 	vstmiapl	r9, {d16-<overflow reg d47>}
    11d0:	d3060000 	movwle	r0, #24576	; 0x6000
    11d4:	00000662 	andeq	r0, r0, r2, ror #12
    11d8:	0a320b44 	beq	c83ef0 <_Min_Stack_Size+0xc83af0>
    11dc:	d4060000 	strle	r0, [r6], #-0
    11e0:	00000672 	andeq	r0, r0, r2, ror r6
    11e4:	6c5f1047 	mrrcvs	0, 4, r1, pc, cr7	; <UNPREDICTABLE>
    11e8:	d7060062 	strle	r0, [r6, -r2, rrx]
    11ec:	000002db 	ldrdeq	r0, [r0], -fp
    11f0:	6e330b48 	vsubvs.f64	d0, d3, d8
    11f4:	da060000 	ble	1811fc <_Min_Stack_Size+0x180dfc>
    11f8:	00000030 	andeq	r0, r0, r0, lsr r0
    11fc:	38f70b50 	ldmcc	r7!, {r4, r6, r8, r9, fp}^
    1200:	db060000 	blle	181208 <_Min_Stack_Size+0x180e08>
    1204:	000000a2 	andeq	r0, r0, r2, lsr #1
    1208:	0d4e0b54 	vstreq	d16, [lr, #-336]	; 0xfffffeb0
    120c:	e2060000 	and	r0, r6, #0
    1210:	0000011f 	andeq	r0, r0, pc, lsl r1
    1214:	5e340b58 			; <UNDEFINED> instruction: 0x5e340b58
    1218:	e4060000 	str	r0, [r6], #-0
    121c:	00000114 	andeq	r0, r0, r4, lsl r1
    1220:	580d0b5c 	stmdapl	sp, {r2, r3, r4, r6, r8, r9, fp}
    1224:	e5060000 	str	r0, [r6, #-0]
    1228:	00000030 	andeq	r0, r0, r0, lsr r0
    122c:	30170064 	andscc	r0, r7, r4, rrx
    1230:	f4000000 	vst4.8	{d0-d3}, [r0], r0
    1234:	18000005 	stmdane	r0, {r0, r2}
    1238:	000004a1 	andeq	r0, r0, r1, lsr #9
    123c:	00012a18 	andeq	r2, r1, r8, lsl sl
    1240:	012c1800 			; <UNDEFINED> instruction: 0x012c1800
    1244:	30180000 	andscc	r0, r8, r0
    1248:	00000000 	andeq	r0, r0, r0
    124c:	05d6040d 	ldrbeq	r0, [r6, #1037]	; 0x40d
    1250:	30170000 	andscc	r0, r7, r0
    1254:	18000000 	stmdane	r0, {}	; <UNPREDICTABLE>
    1258:	18000006 	stmdane	r0, {r1, r2}
    125c:	000004a1 	andeq	r0, r0, r1, lsr #9
    1260:	00012a18 	andeq	r2, r1, r8, lsl sl
    1264:	06181800 	ldreq	r1, [r8], -r0, lsl #16
    1268:	30180000 	andscc	r0, r8, r0
    126c:	00000000 	andeq	r0, r0, r0
    1270:	0139040d 	teqeq	r9, sp, lsl #8
    1274:	040d0000 	streq	r0, [sp], #-0
    1278:	000005fa 	strdeq	r0, [r0], -sl
    127c:	0000ad17 	andeq	sl, r0, r7, lsl sp
    1280:	00064200 	andeq	r4, r6, r0, lsl #4
    1284:	04a11800 	strteq	r1, [r1], #2048	; 0x800
    1288:	2a180000 	bcs	601290 <_Min_Stack_Size+0x600e90>
    128c:	18000001 	stmdane	r0, {r0}
    1290:	000000ad 	andeq	r0, r0, sp, lsr #1
    1294:	00003018 	andeq	r3, r0, r8, lsl r0
    1298:	040d0000 	streq	r0, [sp], #-0
    129c:	00000624 	andeq	r0, r0, r4, lsr #12
    12a0:	00003017 	andeq	r3, r0, r7, lsl r0
    12a4:	00065c00 	andeq	r5, r6, r0, lsl #24
    12a8:	04a11800 	strteq	r1, [r1], #2048	; 0x800
    12ac:	2a180000 	bcs	6012b4 <_Min_Stack_Size+0x600eb4>
    12b0:	00000001 	andeq	r0, r0, r1
    12b4:	0648040d 	strbeq	r0, [r8], -sp, lsl #8
    12b8:	57080000 	strpl	r0, [r8, -r0]
    12bc:	72000000 	andvc	r0, r0, #0
    12c0:	09000006 	stmdbeq	r0, {r1, r2}
    12c4:	00000029 	andeq	r0, r0, r9, lsr #32
    12c8:	57080002 	strpl	r0, [r8, -r2]
    12cc:	82000000 	andhi	r0, r0, #0
    12d0:	09000006 	stmdbeq	r0, {r1, r2}
    12d4:	00000029 	andeq	r0, r0, r9, lsr #32
    12d8:	b4050000 	strlt	r0, [r5], #-0
    12dc:	06000071 			; <UNDEFINED> instruction: 0x06000071
    12e0:	04ac011f 	strteq	r0, [ip], #287	; 0x11f
    12e4:	92140000 	andsls	r0, r4, #0
    12e8:	0c000055 	stceq	0, cr0, [r0], {85}	; 0x55
    12ec:	c3012306 	movwgt	r2, #4870	; 0x1306
    12f0:	15000006 	strne	r0, [r0, #-6]
    12f4:	00005e88 	andeq	r5, r0, r8, lsl #29
    12f8:	c3012506 	movwgt	r2, #5382	; 0x1506
    12fc:	00000006 	andeq	r0, r0, r6
    1300:	002d7715 	eoreq	r7, sp, r5, lsl r7
    1304:	01260600 			; <UNDEFINED> instruction: 0x01260600
    1308:	00000030 	andeq	r0, r0, r0, lsr r0
    130c:	555f1504 	ldrbpl	r1, [pc, #-1284]	; e10 <_Min_Stack_Size+0xa10>
    1310:	27060000 	strcs	r0, [r6, -r0]
    1314:	0006c901 	andeq	ip, r6, r1, lsl #18
    1318:	0d000800 	stceq	8, cr0, [r0, #-0]
    131c:	00068e04 	andeq	r8, r6, r4, lsl #28
    1320:	82040d00 	andhi	r0, r4, #0, 26
    1324:	14000006 	strne	r0, [r0], #-6
    1328:	00006cc9 	andeq	r6, r0, r9, asr #25
    132c:	013f0618 	teqeq	pc, r8, lsl r6	; <UNPREDICTABLE>
    1330:	00000711 	andeq	r0, r0, r1, lsl r7
    1334:	00661a15 	rsbeq	r1, r6, r5, lsl sl
    1338:	01400600 	cmpeq	r0, r0, lsl #12
    133c:	00000711 	andeq	r0, r0, r1, lsl r7
    1340:	10461500 	subne	r1, r6, r0, lsl #10
    1344:	41060000 	mrsmi	r0, (UNDEF: 6)
    1348:	00071101 	andeq	r1, r7, r1, lsl #2
    134c:	9d150600 	ldcls	6, cr0, [r5, #-0]
    1350:	0600008a 	streq	r0, [r0], -sl, lsl #1
    1354:	00700142 	rsbseq	r0, r0, r2, asr #2
    1358:	150c0000 	strne	r0, [ip, #-0]
    135c:	00005e83 	andeq	r5, r0, r3, lsl #29
    1360:	90014506 	andls	r4, r1, r6, lsl #10
    1364:	10000000 	andne	r0, r0, r0
    1368:	00700800 	rsbseq	r0, r0, r0, lsl #16
    136c:	07210000 	streq	r0, [r1, -r0]!
    1370:	29090000 	stmdbcs	r9, {}	; <UNPREDICTABLE>
    1374:	02000000 	andeq	r0, r0, #0
    1378:	86f31400 	ldrbthi	r1, [r3], r0, lsl #8
    137c:	06100000 	ldreq	r0, [r0], -r0
    1380:	07630158 			; <UNDEFINED> instruction: 0x07630158
    1384:	78150000 	ldmdavc	r5, {}	; <UNPREDICTABLE>
    1388:	06000088 	streq	r0, [r0], -r8, lsl #1
    138c:	019c015b 	orrseq	r0, ip, fp, asr r1
    1390:	15000000 	strne	r0, [r0, #-0]
    1394:	00001785 	andeq	r1, r0, r5, lsl #15
    1398:	30015c06 	andcc	r5, r1, r6, lsl #24
    139c:	04000000 	streq	r0, [r0], #-0
    13a0:	00358d15 	eorseq	r8, r5, r5, lsl sp
    13a4:	015d0600 	cmpeq	sp, r0, lsl #12
    13a8:	0000019c 	muleq	r0, ip, r1
    13ac:	55391508 	ldrpl	r1, [r9, #-1288]!	; 0xfffffaf8
    13b0:	5e060000 	cdppl	0, 0, cr0, cr6, cr0, {0}
    13b4:	00076301 	andeq	r6, r7, r1, lsl #6
    13b8:	0d000c00 	stceq	12, cr0, [r0, #-0]
    13bc:	00019c04 	andeq	r9, r1, r4, lsl #24
    13c0:	1d111400 	cfldrsne	mvf1, [r1, #-0]
    13c4:	06500000 	ldrbeq	r0, [r0], -r0
    13c8:	08060162 	stmdaeq	r6, {r1, r5, r6, r8}
    13cc:	c7150000 	ldrgt	r0, [r5, -r0]
    13d0:	0600006f 	streq	r0, [r0], -pc, rrx
    13d4:	012c0165 			; <UNDEFINED> instruction: 0x012c0165
    13d8:	15000000 	strne	r0, [r0, #-0]
    13dc:	00007af1 	strdeq	r7, [r0], -r1
    13e0:	14016606 	strne	r6, [r1], #-1542	; 0xfffff9fa
    13e4:	04000001 	streq	r0, [r0], #-1
    13e8:	006b9215 	rsbeq	r9, fp, r5, lsl r2
    13ec:	01670600 	cmneq	r7, r0, lsl #12
    13f0:	00000114 	andeq	r0, r0, r4, lsl r1
    13f4:	685f150c 	ldmdavs	pc, {r2, r3, r8, sl, ip}^	; <UNPREDICTABLE>
    13f8:	68060000 	stmdavs	r6, {}	; <UNPREDICTABLE>
    13fc:	00011401 	andeq	r1, r1, r1, lsl #8
    1400:	e3151400 	tst	r5, #0, 8
    1404:	0600000a 	streq	r0, [r0], -sl
    1408:	08060169 	stmdaeq	r6, {r0, r3, r5, r6, r8}
    140c:	151c0000 	ldrne	r0, [ip, #-0]
    1410:	00000edf 	ldrdeq	r0, [r0], -pc	; <UNPREDICTABLE>
    1414:	30016a06 	andcc	r6, r1, r6, lsl #20
    1418:	24000000 	strcs	r0, [r0], #-0
    141c:	00171715 	andseq	r1, r7, r5, lsl r7
    1420:	016b0600 	cmneq	fp, r0, lsl #12
    1424:	00000114 	andeq	r0, r0, r4, lsl r1
    1428:	70381528 	eorsvc	r1, r8, r8, lsr #10
    142c:	6c060000 	stcvs	0, cr0, [r6], {-0}
    1430:	00011401 	andeq	r1, r1, r1, lsl #8
    1434:	73153000 	tstvc	r5, #0
    1438:	0600008c 	streq	r0, [r0], -ip, lsl #1
    143c:	0114016d 	tsteq	r4, sp, ror #2
    1440:	15380000 	ldrne	r0, [r8, #-0]!
    1444:	00005b60 	andeq	r5, r0, r0, ror #22
    1448:	14016e06 	strne	r6, [r1], #-3590	; 0xfffff1fa
    144c:	40000001 	andmi	r0, r0, r1
    1450:	000a2115 	andeq	r2, sl, r5, lsl r1
    1454:	016f0600 	cmneq	pc, r0, lsl #12
    1458:	00000114 	andeq	r0, r0, r4, lsl r1
    145c:	32080048 	andcc	r0, r8, #72	; 0x48
    1460:	16000001 	strne	r0, [r0], -r1
    1464:	09000008 	stmdbeq	r0, {r3}
    1468:	00000029 	andeq	r0, r0, r9, lsr #32
    146c:	c0190007 	andsgt	r0, r9, r7
    1470:	0d000001 	stceq	0, cr0, [r0, #-4]
    1474:	00081604 	andeq	r1, r8, r4, lsl #12
    1478:	21040d00 	tstcs	r4, r0, lsl #26
    147c:	1a000007 	bne	14a0 <_Min_Stack_Size+0x10a0>
    1480:	00000832 	andeq	r0, r0, r2, lsr r8
    1484:	0004a118 	andeq	sl, r4, r8, lsl r1
    1488:	040d0000 	streq	r0, [sp], #-0
    148c:	00000827 	andeq	r0, r0, r7, lsr #16
    1490:	06cf040d 	strbeq	r0, [pc], sp, lsl #8
    1494:	040d0000 	streq	r0, [sp], #-0
    1498:	000001b2 			; <UNDEFINED> instruction: 0x000001b2
    149c:	00084f1a 	andeq	r4, r8, sl, lsl pc
    14a0:	00301800 	eorseq	r1, r0, r0, lsl #16
    14a4:	0d000000 	stceq	0, cr0, [r0, #-0]
    14a8:	00085504 	andeq	r5, r8, r4, lsl #10
    14ac:	44040d00 	strmi	r0, [r4], #-3328	; 0xfffff300
    14b0:	0d000008 	stceq	0, cr0, [r0, #-32]	; 0xffffffe0
    14b4:	00076904 	andeq	r6, r7, r4, lsl #18
    14b8:	20681b00 	rsbcs	r1, r8, r0, lsl #22
    14bc:	ca060000 	bgt	1814c4 <_Min_Stack_Size+0x1810c4>
    14c0:	00037001 	andeq	r7, r3, r1
    14c4:	57c61b00 	strbpl	r1, [r6, r0, lsl #22]
    14c8:	cb060000 	blgt	1814d0 <_Min_Stack_Size+0x1810d0>
    14cc:	00037001 	andeq	r7, r3, r1
    14d0:	46591b00 	ldrbmi	r1, [r9], -r0, lsl #22
    14d4:	cc060000 	stcgt	0, cr0, [r6], {-0}
    14d8:	00037001 	andeq	r7, r3, r1
    14dc:	2ce31b00 	vstmiacs	r3!, {d17-d16}
    14e0:	2e060000 	cdpcs	0, 0, cr0, cr6, cr0, {0}
    14e4:	0004a103 	andeq	sl, r4, r3, lsl #2
    14e8:	801c1b00 	andshi	r1, ip, r0, lsl #22
    14ec:	2f060000 	svccs	0x00060000
    14f0:	0004a703 	andeq	sl, r4, r3, lsl #14
    14f4:	49e41b00 	stmibmi	r4!, {r8, r9, fp, ip}^
    14f8:	41060000 	mrsmi	r0, (UNDEF: 6)
    14fc:	0002b803 	andeq	fp, r2, r3, lsl #16
    1500:	7f311c00 	svcvc	0x00311c00
    1504:	63070000 	movwvs	r0, #28672	; 0x7000
    1508:	0000012c 	andeq	r0, r0, ip, lsr #2
    150c:	00132004 	andseq	r2, r3, r4
    1510:	4c180800 	ldcmi	8, cr0, [r8], {-0}
    1514:	04000000 	streq	r0, [r0], #-0
    1518:	00002ba1 	andeq	r2, r0, r1, lsr #23
    151c:	00652408 	rsbeq	r2, r5, r8, lsl #8
    1520:	9b040000 	blls	101528 <_Min_Stack_Size+0x101128>
    1524:	08000043 	stmdaeq	r0, {r0, r1, r6}
    1528:	00007e30 	andeq	r7, r0, r0, lsr lr
    152c:	08ca1d00 	stmiaeq	sl, {r8, sl, fp, ip}^
    1530:	1c0a0000 	stcne	0, cr0, [sl], {-0}
    1534:	09374709 	ldmdbeq	r7!, {r0, r3, r8, r9, sl, lr}
    1538:	43100000 	tstmi	r0, #0
    153c:	09004c52 	stmdbeq	r0, {r1, r4, r6, sl, fp, lr}
    1540:	0008d549 	andeq	sp, r8, r9, asr #10
    1544:	43100000 	tstmi	r0, #0
    1548:	09004852 	stmdbeq	r0, {r1, r4, r6, fp, lr}
    154c:	0008d54a 	andeq	sp, r8, sl, asr #10
    1550:	49100400 	ldmdbmi	r0, {sl}
    1554:	09005244 	stmdbeq	r0, {r2, r6, r9, ip, lr}
    1558:	0008d54b 	andeq	sp, r8, fp, asr #10
    155c:	4f100800 	svcmi	0x00100800
    1560:	09005244 	stmdbeq	r0, {r2, r6, r9, ip, lr}
    1564:	0008d54c 	andeq	sp, r8, ip, asr #10
    1568:	840b0c00 	strhi	r0, [fp], #-3072	; 0xfffff400
    156c:	09000082 	stmdbeq	r0, {r1, r7}
    1570:	0008d54d 	andeq	sp, r8, sp, asr #10
    1574:	42101000 	andsmi	r1, r0, #0
    1578:	09005252 	stmdbeq	r0, {r1, r4, r6, r9, ip, lr}
    157c:	0008d54e 	andeq	sp, r8, lr, asr #10
    1580:	2d0b1400 	cfstrscs	mvf1, [fp, #-0]
    1584:	09000049 	stmdbeq	r0, {r0, r3, r6}
    1588:	0008d54f 	andeq	sp, r8, pc, asr #10
    158c:	04001800 	streq	r1, [r0], #-2048	; 0xfffff800
    1590:	00008416 	andeq	r8, r0, r6, lsl r4
    1594:	08da5009 	ldmeq	sl, {r0, r3, ip, lr}^
    1598:	280a0000 	stmdacs	sl, {}	; <UNPREDICTABLE>
    159c:	09c25509 	stmibeq	r2, {r0, r3, r8, sl, ip, lr}^
    15a0:	43100000 	tstmi	r0, #0
    15a4:	57090052 	smlsdpl	r9, r2, r0, r0
    15a8:	000008d5 	ldrdeq	r0, [r0], -r5
    15ac:	93cc0b00 	bicls	r0, ip, #0, 22
    15b0:	58090000 	stmdapl	r9, {}	; <UNPREDICTABLE>
    15b4:	000008d5 	ldrdeq	r0, [r0], -r5
    15b8:	49431004 	stmdbmi	r3, {r2, ip}^
    15bc:	59090052 	stmdbpl	r9, {r1, r4, r6}
    15c0:	000008d5 	ldrdeq	r0, [r0], -r5
    15c4:	940f0b08 	strls	r0, [pc], #-2824	; 15cc <_Min_Stack_Size+0x11cc>
    15c8:	5a090000 	bpl	2415d0 <_Min_Stack_Size+0x2411d0>
    15cc:	000008d5 	ldrdeq	r0, [r0], -r5
    15d0:	94550b0c 	ldrbls	r0, [r5], #-2828	; 0xfffff4f4
    15d4:	5b090000 	blpl	2415dc <_Min_Stack_Size+0x2411dc>
    15d8:	000008d5 	ldrdeq	r0, [r0], -r5
    15dc:	949e0b10 	ldrls	r0, [lr], #2832	; 0xb10
    15e0:	5c090000 	stcpl	0, cr0, [r9], {-0}
    15e4:	000008d5 	ldrdeq	r0, [r0], -r5
    15e8:	93930b14 	orrsls	r0, r3, #20, 22	; 0x5000
    15ec:	5d090000 	stcpl	0, cr0, [r9, #-0]
    15f0:	000008d5 	ldrdeq	r0, [r0], -r5
    15f4:	945e0b18 	ldrbls	r0, [lr], #-2840	; 0xfffff4e8
    15f8:	5e090000 	cdppl	0, 0, cr0, cr9, cr0, {0}
    15fc:	000008d5 	ldrdeq	r0, [r0], -r5
    1600:	93af0b1c 			; <UNDEFINED> instruction: 0x93af0b1c
    1604:	5f090000 	svcpl	0x00090000
    1608:	000008d5 	ldrdeq	r0, [r0], -r5
    160c:	53431020 	movtpl	r1, #12320	; 0x3020
    1610:	60090052 	andvs	r0, r9, r2, asr r0
    1614:	000008d5 	ldrdeq	r0, [r0], -r5
    1618:	88040024 	stmdahi	r4, {r2, r5}
    161c:	09000094 	stmdbeq	r0, {r2, r4, r7}
    1620:	00094261 	andeq	r4, r9, r1, ror #4
    1624:	0a040a00 	beq	103e2c <_Min_Stack_Size+0x103a2c>
    1628:	0009fa12 	andeq	pc, r9, r2, lsl sl	; <UNPREDICTABLE>
    162c:	84890b00 	strhi	r0, [r9], #2816	; 0xb00
    1630:	170a0000 	strne	r0, [sl, -r0]
    1634:	000008bf 			; <UNDEFINED> instruction: 0x000008bf
    1638:	21180b00 	tstcs	r8, r0, lsl #22
    163c:	1c0a0000 	stcne	0, cr0, [sl], {-0}
    1640:	000008b4 			; <UNDEFINED> instruction: 0x000008b4
    1644:	52350b02 	eorspl	r0, r5, #2048	; 0x800
    1648:	210a0000 	mrscs	r0, (UNDEF: 10)
    164c:	000008b4 			; <UNDEFINED> instruction: 0x000008b4
    1650:	d6040003 	strle	r0, [r4], -r3
    1654:	0a00002b 	beq	1708 <_Min_Stack_Size+0x1308>
    1658:	0009cd22 	andeq	ip, r9, r2, lsr #26
    165c:	93d11e00 	bicsls	r1, r1, #0, 28
    1660:	32010000 	andcc	r0, r1, #0
    1664:	0008b401 	andeq	fp, r8, r1, lsl #8
    1668:	00000000 	andeq	r0, r0, r0
    166c:	00005e00 	andeq	r5, r0, r0, lsl #28
    1670:	4d9c0100 	ldfmis	f0, [ip]
    1674:	1f00000a 	svcne	0x0000000a
    1678:	000093b4 			; <UNDEFINED> instruction: 0x000093b4
    167c:	4d013201 	sfmmi	f3, 4, [r1, #-4]
    1680:	0200000a 	andeq	r0, r0, #10
    1684:	8e1f6c91 	mrchi	12, 0, r6, cr15, cr1, {4}
    1688:	01000084 	smlabbeq	r0, r4, r0, r0
    168c:	08bf0132 	ldmeq	pc!, {r1, r4, r5, r8}	; <UNPREDICTABLE>
    1690:	91020000 	mrsls	r0, (UNDEF: 2)
    1694:	94c8206a 	strbls	r2, [r8], #106	; 0x6a
    1698:	35010000 	strcc	r0, [r1, #-0]
    169c:	0008d501 	andeq	sp, r8, r1, lsl #10
    16a0:	74910200 	ldrvc	r0, [r1], #512	; 0x200
    16a4:	37040d00 	strcc	r0, [r4, -r0, lsl #26]
    16a8:	21000009 	tstcs	r0, r9
    16ac:	0000939b 	muleq	r0, fp, r3
    16b0:	00012401 	andeq	r2, r1, r1, lsl #8
    16b4:	22000000 	andcs	r0, r0, #0
    16b8:	01000000 	mrseq	r0, (UNDEF: 0)
    16bc:	000a889c 	muleq	sl, ip, r8
    16c0:	93b41f00 			; <UNDEFINED> instruction: 0x93b41f00
    16c4:	24010000 	strcs	r0, [r1], #-0
    16c8:	000a4d01 	andeq	r4, sl, r1, lsl #26
    16cc:	74910200 	ldrvc	r0, [r1], #512	; 0x200
    16d0:	00848e1f 	addeq	r8, r4, pc, lsl lr
    16d4:	01240100 			; <UNDEFINED> instruction: 0x01240100
    16d8:	000008bf 			; <UNDEFINED> instruction: 0x000008bf
    16dc:	00729102 	rsbseq	r9, r2, r2, lsl #2
    16e0:	00944121 	addseq	r4, r4, r1, lsr #2
    16e4:	01160100 	tsteq	r6, r0, lsl #2
    16e8:	00000000 	andeq	r0, r0, r0
    16ec:	0000001c 	andeq	r0, r0, ip, lsl r0
    16f0:	0abd9c01 	beq	fef686fc <_estack+0xdef65efc>
    16f4:	b41f0000 	ldrlt	r0, [pc], #-0	; 16fc <_Min_Stack_Size+0x12fc>
    16f8:	01000093 	swpeq	r0, r3, [r0]	; <UNPREDICTABLE>
    16fc:	0a4d0116 	beq	1341b5c <_Min_Stack_Size+0x134175c>
    1700:	91020000 	mrsls	r0, (UNDEF: 2)
    1704:	93e71f74 	mvnls	r1, #116, 30	; 0x1d0
    1708:	16010000 	strne	r0, [r1], -r0
    170c:	0008bf01 	andeq	fp, r8, r1, lsl #30
    1710:	72910200 	addsvc	r0, r1, #0, 4
    1714:	93ed2200 	mvnls	r2, #0, 4
    1718:	ff010000 			; <UNDEFINED> instruction: 0xff010000
    171c:	00000000 	andeq	r0, r0, r0
    1720:	0000003c 	andeq	r0, r0, ip, lsr r0
    1724:	0afd9c01 	beq	fff68730 <_estack+0xdff65f30>
    1728:	b4230000 	strtlt	r0, [r3], #-0
    172c:	01000093 	swpeq	r0, r3, [r0]	; <UNPREDICTABLE>
    1730:	000a4dff 	strdeq	r4, [sl], -pc	; <UNPREDICTABLE>
    1734:	74910200 	ldrvc	r0, [r1], #512	; 0x200
    1738:	00848e23 	addeq	r8, r4, r3, lsr #28
    173c:	bfff0100 	svclt	0x00ff0100
    1740:	02000008 	andeq	r0, r0, #8
    1744:	e7237291 			; <UNDEFINED> instruction: 0xe7237291
    1748:	01000093 	swpeq	r0, r3, [r0]	; <UNPREDICTABLE>
    174c:	0008b4ff 	strdeq	fp, [r8], -pc	; <UNPREDICTABLE>
    1750:	71910200 	orrsvc	r0, r1, r0, lsl #4
    1754:	94b52400 	ldrtls	r2, [r5], #1024	; 0x400
    1758:	ee010000 	cdp	0, 0, cr0, cr1, cr0, {0}
    175c:	000008bf 			; <UNDEFINED> instruction: 0x000008bf
    1760:	00000000 	andeq	r0, r0, r0
    1764:	0000001a 	andeq	r0, r0, sl, lsl r0
    1768:	0b339c01 	bleq	ce8774 <_Min_Stack_Size+0xce8374>
    176c:	b4230000 	strtlt	r0, [r3], #-0
    1770:	01000093 	swpeq	r0, r3, [r0]	; <UNPREDICTABLE>
    1774:	000a4dee 	andeq	r4, sl, lr, ror #27
    1778:	6c910200 	lfmvs	f0, 4, [r1], {0}
    177c:	0093e325 	addseq	lr, r3, r5, lsr #6
    1780:	bff00100 	svclt	0x00f00100
    1784:	02000008 	andeq	r0, r0, #8
    1788:	24007691 	strcs	r7, [r0], #-1681	; 0xfffff96f
    178c:	000093ba 			; <UNDEFINED> instruction: 0x000093ba
    1790:	08b4d601 	ldmeq	r4!, {r0, r9, sl, ip, lr, pc}
    1794:	00000000 	andeq	r0, r0, r0
    1798:	002e0000 	eoreq	r0, lr, r0
    179c:	9c010000 	stcls	0, cr0, [r1], {-0}
    17a0:	00000b77 	andeq	r0, r0, r7, ror fp
    17a4:	0093b423 	addseq	fp, r3, r3, lsr #8
    17a8:	4dd60100 	ldfmie	f0, [r6]
    17ac:	0200000a 	andeq	r0, r0, #10
    17b0:	8e236c91 	mcrhi	12, 1, r6, cr3, cr1, {4}
    17b4:	01000084 	smlabbeq	r0, r4, r0, r0
    17b8:	0008bfd6 	ldrdeq	fp, [r8], -r6
    17bc:	6a910200 	bvs	fe441fc4 <_estack+0xde43f7c4>
    17c0:	00949425 	addseq	r9, r4, r5, lsr #8
    17c4:	b4d80100 	ldrblt	r0, [r8], #256	; 0x100
    17c8:	02000008 	andeq	r0, r0, #8
    17cc:	22007791 	andcs	r7, r0, #38010880	; 0x2440000
    17d0:	00009477 	andeq	r9, r0, r7, ror r4
    17d4:	0000a001 	andeq	sl, r0, r1
    17d8:	00ac0000 	adceq	r0, ip, r0
    17dc:	9c010000 	stcls	0, cr0, [r1], {-0}
    17e0:	00000b9b 	muleq	r0, fp, fp
    17e4:	0093b423 	addseq	fp, r3, r3, lsr #8
    17e8:	4da00100 	stfmis	f0, [r0]
    17ec:	0200000a 	andeq	r0, r0, #10
    17f0:	26007491 			; <UNDEFINED> instruction: 0x26007491
    17f4:	00009400 	andeq	r9, r0, r0, lsl #8
    17f8:	080e6301 	stmdaeq	lr, {r0, r8, r9, sp, lr}
    17fc:	00fe0800 	rscseq	r0, lr, r0, lsl #16
    1800:	9c010000 	stcls	0, cr0, [r1], {-0}
    1804:	00000be9 	andeq	r0, r0, r9, ror #23
    1808:	0093b423 	addseq	fp, r3, r3, lsr #8
    180c:	4d630100 	stfmie	f0, [r3, #-0]
    1810:	0200000a 	andeq	r0, r0, #10
    1814:	89236491 	stmdbhi	r3!, {r0, r4, r7, sl, sp, lr}
    1818:	01000093 	swpeq	r0, r3, [r0]	; <UNPREDICTABLE>
    181c:	000be963 	andeq	lr, fp, r3, ror #18
    1820:	60910200 	addsvs	r0, r1, r0, lsl #4
    1824:	0094a525 	addseq	sl, r4, r5, lsr #10
    1828:	ef670100 	svc	0x00670100
    182c:	0200000b 	andeq	r0, r0, #11
    1830:	39256891 	stmdbcc	r5!, {r0, r4, r7, fp, sp, lr}
    1834:	01000094 	swpeq	r0, r4, [r0]	; <UNPREDICTABLE>
    1838:	0008b468 	andeq	fp, r8, r8, ror #8
    183c:	6f910200 	svcvs	0x00910200
    1840:	fa040d00 	blx	104c48 <_Min_Stack_Size+0x104848>
    1844:	0d000009 	stceq	0, cr0, [r0, #-36]	; 0xffffffdc
    1848:	0008d504 	andeq	sp, r8, r4, lsl #10
    184c:	94662700 	strbtls	r2, [r6], #-1792	; 0xfffff900
    1850:	19010000 	stmdbne	r1, {}	; <UNPREDICTABLE>
    1854:	000008b4 			; <UNDEFINED> instruction: 0x000008b4
    1858:	08000748 	stmdaeq	r0, {r3, r6, r8, r9, sl}
    185c:	000000c6 	andeq	r0, r0, r6, asr #1
    1860:	8e239c01 	cdphi	12, 2, cr9, cr3, cr1, {0}
    1864:	01000084 	smlabbeq	r0, r4, r0, r0
    1868:	0008bf19 	andeq	fp, r8, r9, lsl pc
    186c:	76910200 	ldrvc	r0, [r1], r0, lsl #4
    1870:	0af10000 	beq	ffc41878 <_estack+0xdfc3f078>
    1874:	00040000 	andeq	r0, r4, r0
    1878:	00000470 	andeq	r0, r0, r0, ror r4
    187c:	37810104 	strcc	r0, [r1, r4, lsl #2]
    1880:	ee0c0000 	cdp	0, 0, cr0, cr12, cr0, {0}
    1884:	21000094 	swpcs	r0, r4, [r0]	; <UNPREDICTABLE>
    1888:	c0000008 	andgt	r0, r0, r8
    188c:	00000000 	andeq	r0, r0, r0
    1890:	0b000000 	bleq	1898 <_Min_Stack_Size+0x1498>
    1894:	8c00000d 	stchi	0, cr0, [r0], {13}
    1898:	0200001f 	andeq	r0, r0, #31
    189c:	23210704 			; <UNDEFINED> instruction: 0x23210704
    18a0:	04030000 	streq	r0, [r3], #-0
    18a4:	746e6905 	strbtvc	r6, [lr], #-2309	; 0xfffff6fb
    18a8:	05080200 	streq	r0, [r8, #-512]	; 0xfffffe00
    18ac:	00005451 	andeq	r5, r0, r1, asr r4
    18b0:	db040802 	blle	1038c0 <_Min_Stack_Size+0x1034c0>
    18b4:	02000002 	andeq	r0, r0, #2
    18b8:	07660601 	strbeq	r0, [r6, -r1, lsl #12]!
    18bc:	1e040000 	cdpne	0, 0, cr0, cr4, cr0, {0}
    18c0:	02000013 	andeq	r0, r0, #19
    18c4:	0000572b 	andeq	r5, r0, fp, lsr #14
    18c8:	08010200 	stmdaeq	r1, {r9}
    18cc:	0000317b 	andeq	r3, r0, fp, ror r1
    18d0:	5f050202 	svcpl	0x00050202
    18d4:	0400000a 	streq	r0, [r0], #-10
    18d8:	00002b9f 	muleq	r0, pc, fp	; <UNPREDICTABLE>
    18dc:	00703902 	rsbseq	r3, r0, r2, lsl #18
    18e0:	02020000 	andeq	r0, r2, #0
    18e4:	006d4407 	rsbeq	r4, sp, r7, lsl #8
    18e8:	05040200 	streq	r0, [r4, #-512]	; 0xfffffe00
    18ec:	00006ff1 	strdeq	r6, [r0], -r1
    18f0:	00439904 	subeq	r9, r3, r4, lsl #18
    18f4:	894f0200 	stmdbhi	pc, {r9}^	; <UNPREDICTABLE>
    18f8:	02000000 	andeq	r0, r0, #0
    18fc:	1aa80704 	bne	fea03514 <_estack+0xdea00d14>
    1900:	08020000 	stmdaeq	r2, {}	; <UNPREDICTABLE>
    1904:	0079ed07 	rsbseq	lr, r9, r7, lsl #26
    1908:	46100400 	ldrmi	r0, [r0], -r0, lsl #8
    190c:	0c030000 	stceq	0, cr0, [r3], {-0}
    1910:	00000030 	andeq	r0, r0, r0, lsr r0
    1914:	0089da04 	addeq	sp, r9, r4, lsl #20
    1918:	772c0400 	strvc	r0, [ip, -r0, lsl #8]!
    191c:	04000000 	streq	r0, [r0], #-0
    1920:	0000676b 	andeq	r6, r0, fp, ror #14
    1924:	00777204 	rsbseq	r7, r7, r4, lsl #4
    1928:	13050000 	movwne	r0, #20480	; 0x5000
    192c:	05000025 	streq	r0, [r0, #-37]	; 0xffffffdb
    1930:	00290165 	eoreq	r0, r9, r5, ror #2
    1934:	04060000 	streq	r0, [r6], #-0
    1938:	00e3a604 	rsceq	sl, r3, r4, lsl #12
    193c:	3b070000 	blcc	1c1944 <_Min_Stack_Size+0x1c1544>
    1940:	04000015 	streq	r0, [r0], #-21	; 0xffffffeb
    1944:	0000b8a8 	andeq	fp, r0, r8, lsr #17
    1948:	753f0700 	ldrvc	r0, [pc, #-1792]!	; 1250 <_Min_Stack_Size+0xe50>
    194c:	a9040000 	stmdbge	r4, {}	; <UNPREDICTABLE>
    1950:	000000e3 	andeq	r0, r0, r3, ror #1
    1954:	00570800 	subseq	r0, r7, r0, lsl #16
    1958:	00f30000 	rscseq	r0, r3, r0
    195c:	29090000 	stmdbcs	r9, {}	; <UNPREDICTABLE>
    1960:	03000000 	movweq	r0, #0
    1964:	04080a00 	streq	r0, [r8], #-2560	; 0xfffff600
    1968:	000114a3 	andeq	r1, r1, r3, lsr #9
    196c:	61ef0b00 	mvnvs	r0, r0, lsl #22
    1970:	a5040000 	strge	r0, [r4, #-0]
    1974:	00000030 	andeq	r0, r0, r0, lsr r0
    1978:	01e40b00 	mvneq	r0, r0, lsl #22
    197c:	aa040000 	bge	101984 <_Min_Stack_Size+0x101584>
    1980:	000000c4 	andeq	r0, r0, r4, asr #1
    1984:	9e040004 	cdpls	0, 0, cr0, cr4, cr4, {0}
    1988:	04000055 	streq	r0, [r0], #-85	; 0xffffffab
    198c:	0000f3ab 	andeq	pc, r0, fp, lsr #7
    1990:	717d0400 	cmnvc	sp, r0, lsl #8
    1994:	af040000 	svcge	0x00040000
    1998:	00000097 	muleq	r0, r7, r0
    199c:	040d040c 	streq	r0, [sp], #-1036	; 0xfffffbf4
    19a0:	00000132 	andeq	r0, r0, r2, lsr r1
    19a4:	6d080102 	stfvss	f0, [r8, #-8]
    19a8:	0e000007 	cdpeq	0, 0, cr0, cr0, cr7, {0}
    19ac:	00000132 	andeq	r0, r0, r2, lsr r1
    19b0:	00878404 	addeq	r8, r7, r4, lsl #8
    19b4:	89160600 	ldmdbhi	r6, {r9, sl}
    19b8:	0f000000 	svceq	0x00000000
    19bc:	00004ac2 	andeq	r4, r0, r2, asr #21
    19c0:	9c2f0618 	stcls	6, cr0, [pc], #-96	; 1968 <_Min_Stack_Size+0x1568>
    19c4:	0b000001 	bleq	19d0 <_Min_Stack_Size+0x15d0>
    19c8:	00005e88 	andeq	r5, r0, r8, lsl #29
    19cc:	019c3106 	orrseq	r3, ip, r6, lsl #2
    19d0:	10000000 	andne	r0, r0, r0
    19d4:	06006b5f 			; <UNDEFINED> instruction: 0x06006b5f
    19d8:	00003032 	andeq	r3, r0, r2, lsr r0
    19dc:	cd0b0400 	cfstrsgt	mvf0, [fp, #-0]
    19e0:	0600007f 			; <UNDEFINED> instruction: 0x0600007f
    19e4:	00003032 	andeq	r3, r0, r2, lsr r0
    19e8:	a90b0800 	stmdbge	fp, {fp}
    19ec:	06000055 			; <UNDEFINED> instruction: 0x06000055
    19f0:	00003032 	andeq	r3, r0, r2, lsr r0
    19f4:	270b0c00 	strcs	r0, [fp, -r0, lsl #24]
    19f8:	06000036 			; <UNDEFINED> instruction: 0x06000036
    19fc:	00003032 	andeq	r3, r0, r2, lsr r0
    1a00:	5f101000 	svcpl	0x00101000
    1a04:	33060078 	movwcc	r0, #24696	; 0x6078
    1a08:	000001a2 	andeq	r0, r0, r2, lsr #3
    1a0c:	040d0014 	streq	r0, [sp], #-20	; 0xffffffec
    1a10:	00000149 	andeq	r0, r0, r9, asr #2
    1a14:	00013e08 	andeq	r3, r1, r8, lsl #28
    1a18:	0001b200 	andeq	fp, r1, r0, lsl #4
    1a1c:	00290900 	eoreq	r0, r9, r0, lsl #18
    1a20:	00000000 	andeq	r0, r0, r0
    1a24:	000a1c0f 	andeq	r1, sl, pc, lsl #24
    1a28:	37062400 	strcc	r2, [r6, -r0, lsl #8]
    1a2c:	0000022b 	andeq	r0, r0, fp, lsr #4
    1a30:	000a380b 	andeq	r3, sl, fp, lsl #16
    1a34:	30390600 	eorscc	r0, r9, r0, lsl #12
    1a38:	00000000 	andeq	r0, r0, r0
    1a3c:	00916d0b 	addseq	r6, r1, fp, lsl #26
    1a40:	303a0600 	eorscc	r0, sl, r0, lsl #12
    1a44:	04000000 	streq	r0, [r0], #-0
    1a48:	008af30b 	addeq	pc, sl, fp, lsl #6
    1a4c:	303b0600 	eorscc	r0, fp, r0, lsl #12
    1a50:	08000000 	stmdaeq	r0, {}	; <UNPREDICTABLE>
    1a54:	005c330b 	subseq	r3, ip, fp, lsl #6
    1a58:	303c0600 	eorscc	r0, ip, r0, lsl #12
    1a5c:	0c000000 	stceq	0, cr0, [r0], {-0}
    1a60:	001b3a0b 	andseq	r3, fp, fp, lsl #20
    1a64:	303d0600 	eorscc	r0, sp, r0, lsl #12
    1a68:	10000000 	andne	r0, r0, r0
    1a6c:	0080450b 	addeq	r4, r0, fp, lsl #10
    1a70:	303e0600 	eorscc	r0, lr, r0, lsl #12
    1a74:	14000000 	strne	r0, [r0], #-0
    1a78:	0063c90b 	rsbeq	ip, r3, fp, lsl #18
    1a7c:	303f0600 	eorscc	r0, pc, r0, lsl #12
    1a80:	18000000 	stmdane	r0, {}	; <UNPREDICTABLE>
    1a84:	0064960b 	rsbeq	r9, r4, fp, lsl #12
    1a88:	30400600 	subcc	r0, r0, r0, lsl #12
    1a8c:	1c000000 	stcne	0, cr0, [r0], {-0}
    1a90:	008f4e0b 	addeq	r4, pc, fp, lsl #28
    1a94:	30410600 	subcc	r0, r1, r0, lsl #12
    1a98:	20000000 	andcs	r0, r0, r0
    1a9c:	14581100 	ldrbne	r1, [r8], #-256	; 0xffffff00
    1aa0:	01080000 	mrseq	r0, (UNDEF: 8)
    1aa4:	026b4a06 	rsbeq	r4, fp, #24576	; 0x6000
    1aa8:	460b0000 	strmi	r0, [fp], -r0
    1aac:	0600000d 	streq	r0, [r0], -sp
    1ab0:	00026b4b 	andeq	r6, r2, fp, asr #22
    1ab4:	6e0b0000 	cdpvs	0, 0, cr0, cr11, cr0, {0}
    1ab8:	0600006c 	streq	r0, [r0], -ip, rrx
    1abc:	00026b4c 	andeq	r6, r2, ip, asr #22
    1ac0:	15128000 	ldrne	r8, [r2, #-0]
    1ac4:	0600001a 			; <UNDEFINED> instruction: 0x0600001a
    1ac8:	00013e4e 	andeq	r3, r1, lr, asr #28
    1acc:	12010000 	andne	r0, r1, #0
    1ad0:	00008624 	andeq	r8, r0, r4, lsr #12
    1ad4:	013e5106 	teqeq	lr, r6, lsl #2
    1ad8:	01040000 	mrseq	r0, (UNDEF: 4)
    1adc:	012a0800 			; <UNDEFINED> instruction: 0x012a0800
    1ae0:	027b0000 	rsbseq	r0, fp, #0
    1ae4:	29090000 	stmdbcs	r9, {}	; <UNPREDICTABLE>
    1ae8:	1f000000 	svcne	0x00000000
    1aec:	49eb0f00 	stmibmi	fp!, {r8, r9, sl, fp}^
    1af0:	068c0000 	streq	r0, [ip], r0
    1af4:	0002b855 	andeq	fp, r2, r5, asr r8
    1af8:	5e880b00 	vdivpl.f64	d0, d8, d0
    1afc:	56060000 	strpl	r0, [r6], -r0
    1b00:	000002b8 			; <UNDEFINED> instruction: 0x000002b8
    1b04:	27800b00 	strcs	r0, [r0, r0, lsl #22]
    1b08:	57060000 	strpl	r0, [r6, -r0]
    1b0c:	00000030 	andeq	r0, r0, r0, lsr r0
    1b10:	28dc0b04 	ldmcs	ip, {r2, r8, r9, fp}^
    1b14:	58060000 	stmdapl	r6, {}	; <UNPREDICTABLE>
    1b18:	000002be 			; <UNDEFINED> instruction: 0x000002be
    1b1c:	2e3a0b08 	vaddcs.f64	d0, d10, d8
    1b20:	59060000 	stmdbpl	r6, {}	; <UNPREDICTABLE>
    1b24:	000002d5 	ldrdeq	r0, [r0], -r5
    1b28:	040d0088 	streq	r0, [sp], #-136	; 0xffffff78
    1b2c:	0000027b 	andeq	r0, r0, fp, ror r2
    1b30:	0002ce08 	andeq	ip, r2, r8, lsl #28
    1b34:	0002ce00 	andeq	ip, r2, r0, lsl #28
    1b38:	00290900 	eoreq	r0, r9, r0, lsl #18
    1b3c:	001f0000 	andseq	r0, pc, r0
    1b40:	02d4040d 	sbcseq	r0, r4, #218103808	; 0xd000000
    1b44:	0d130000 	ldceq	0, cr0, [r3, #-0]
    1b48:	00022b04 	andeq	r2, r2, r4, lsl #22
    1b4c:	030a0f00 	movweq	r0, #44800	; 0xaf00
    1b50:	06080000 	streq	r0, [r8], -r0
    1b54:	00030075 	andeq	r0, r3, r5, ror r0
    1b58:	6e950b00 	vfnmsvs.f64	d0, d5, d0
    1b5c:	76060000 	strvc	r0, [r6], -r0
    1b60:	00000300 	andeq	r0, r0, r0, lsl #6
    1b64:	882b0b00 	stmdahi	fp!, {r8, r9, fp}
    1b68:	77060000 	strvc	r0, [r6, -r0]
    1b6c:	00000030 	andeq	r0, r0, r0, lsr r0
    1b70:	040d0004 	streq	r0, [sp], #-4
    1b74:	00000057 	andeq	r0, r0, r7, asr r0
    1b78:	0035f20f 	eorseq	pc, r5, pc, lsl #4
    1b7c:	99062000 	stmdbls	r6, {sp}
    1b80:	00000370 	andeq	r0, r0, r0, ror r3
    1b84:	00705f10 	rsbseq	r5, r0, r0, lsl pc
    1b88:	03009a06 	movweq	r9, #2566	; 0xa06
    1b8c:	10000000 	andne	r0, r0, r0
    1b90:	0600725f 			; <UNDEFINED> instruction: 0x0600725f
    1b94:	0000309b 	muleq	r0, fp, r0
    1b98:	5f100400 	svcpl	0x00100400
    1b9c:	9c060077 	stcls	0, cr0, [r6], {119}	; 0x77
    1ba0:	00000030 	andeq	r0, r0, r0, lsr r0
    1ba4:	5ea60b08 	vfmapl.f64	d0, d6, d8
    1ba8:	9d060000 	stcls	0, cr0, [r6, #-0]
    1bac:	0000005e 	andeq	r0, r0, lr, asr r0
    1bb0:	13bd0b0c 			; <UNDEFINED> instruction: 0x13bd0b0c
    1bb4:	9e060000 	cdpls	0, 0, cr0, cr6, cr0, {0}
    1bb8:	0000005e 	andeq	r0, r0, lr, asr r0
    1bbc:	625f100e 	subsvs	r1, pc, #14
    1bc0:	9f060066 	svcls	0x00060066
    1bc4:	000002db 	ldrdeq	r0, [r0], -fp
    1bc8:	845c0b10 	ldrbhi	r0, [ip], #-2832	; 0xfffff4f0
    1bcc:	a0060000 	andge	r0, r6, r0
    1bd0:	00000030 	andeq	r0, r0, r0, lsr r0
    1bd4:	73c60b18 	bicvc	r0, r6, #24, 22	; 0x6000
    1bd8:	a2060000 	andge	r0, r6, #0
    1bdc:	000004a1 	andeq	r0, r0, r1, lsr #9
    1be0:	060e001c 			; <UNDEFINED> instruction: 0x060e001c
    1be4:	14000003 	strne	r0, [r0], #-3
    1be8:	00001d16 	andeq	r1, r0, r6, lsl sp
    1bec:	01740660 	cmneq	r4, r0, ror #12
    1bf0:	000004a1 	andeq	r0, r0, r1, lsr #9
    1bf4:	0046f415 	subeq	pc, r6, r5, lsl r4	; <UNPREDICTABLE>
    1bf8:	01780600 	cmneq	r8, r0, lsl #12
    1bfc:	00000030 	andeq	r0, r0, r0, lsr r0
    1c00:	20711500 	rsbscs	r1, r1, r0, lsl #10
    1c04:	7d060000 	stcvc	0, cr0, [r6, #-0]
    1c08:	0006c901 	andeq	ip, r6, r1, lsl #18
    1c0c:	cf150400 	svcgt	0x00150400
    1c10:	06000057 			; <UNDEFINED> instruction: 0x06000057
    1c14:	06c9017d 			; <UNDEFINED> instruction: 0x06c9017d
    1c18:	15080000 	strne	r0, [r8, #-0]
    1c1c:	00004662 	andeq	r4, r0, r2, ror #12
    1c20:	c9017d06 	stmdbgt	r1, {r1, r2, r8, sl, fp, ip, sp, lr}
    1c24:	0c000006 	stceq	0, cr0, [r0], {6}
    1c28:	00277b15 	eoreq	r7, r7, r5, lsl fp
    1c2c:	017f0600 	cmneq	pc, r0, lsl #12
    1c30:	00000030 	andeq	r0, r0, r0, lsr r0
    1c34:	58511510 	ldmdapl	r1, {r4, r8, sl, ip}^
    1c38:	81060000 	mrshi	r0, (UNDEF: 6)
    1c3c:	00012c01 	andeq	r2, r1, r1, lsl #24
    1c40:	e0151400 	ands	r1, r5, r0, lsl #8
    1c44:	06000043 	streq	r0, [r0], -r3, asr #32
    1c48:	00300183 	eorseq	r0, r0, r3, lsl #3
    1c4c:	15180000 	ldrne	r0, [r8, #-0]
    1c50:	000024f3 	strdeq	r2, [r0], -r3
    1c54:	30018506 	andcc	r8, r1, r6, lsl #10
    1c58:	1c000000 	stcne	0, cr0, [r0], {-0}
    1c5c:	00318915 	eorseq	r8, r1, r5, lsl r9
    1c60:	01860600 	orreq	r0, r6, r0, lsl #12
    1c64:	0000081b 	andeq	r0, r0, fp, lsl r8
    1c68:	6d5f1620 	ldclvs	6, cr1, [pc, #-128]	; 1bf0 <_Min_Stack_Size+0x17f0>
    1c6c:	88060070 	stmdahi	r6, {r4, r5, r6}
    1c70:	00082101 	andeq	r2, r8, r1, lsl #2
    1c74:	77152400 	ldrvc	r2, [r5, -r0, lsl #8]
    1c78:	0600004c 	streq	r0, [r0], -ip, asr #32
    1c7c:	0832018a 	ldmdaeq	r2!, {r1, r3, r7, r8}
    1c80:	15280000 	strne	r0, [r8, #-0]!
    1c84:	0000539d 	muleq	r0, sp, r3
    1c88:	30018c06 	andcc	r8, r1, r6, lsl #24
    1c8c:	2c000000 	stccs	0, cr0, [r0], {-0}
    1c90:	0005ad15 	andeq	sl, r5, r5, lsl sp
    1c94:	018f0600 	orreq	r0, pc, r0, lsl #12
    1c98:	00000030 	andeq	r0, r0, r0, lsr r0
    1c9c:	38ff1530 	ldmcc	pc!, {r4, r5, r8, sl, ip}^	; <UNPREDICTABLE>
    1ca0:	90060000 	andls	r0, r6, r0
    1ca4:	00012c01 	andeq	r2, r1, r1, lsl #24
    1ca8:	df153400 	svcle	0x00153400
    1cac:	06000072 			; <UNDEFINED> instruction: 0x06000072
    1cb0:	08380192 	ldmdaeq	r8!, {r1, r4, r7, r8}
    1cb4:	15380000 	ldrne	r0, [r8, #-0]!
    1cb8:	000018e3 	andeq	r1, r0, r3, ror #17
    1cbc:	3e019306 	cdpcc	3, 0, cr9, cr1, cr6, {0}
    1cc0:	3c000008 	stccc	0, cr0, [r0], {8}
    1cc4:	00058915 	andeq	r8, r5, r5, lsl r9
    1cc8:	01940600 	orrseq	r0, r4, r0, lsl #12
    1ccc:	0000012c 	andeq	r0, r0, ip, lsr #2
    1cd0:	37171540 	ldrcc	r1, [r7, -r0, asr #10]
    1cd4:	97060000 	strls	r0, [r6, -r0]
    1cd8:	00084f01 	andeq	r4, r8, r1, lsl #30
    1cdc:	ae154400 	cfmulsge	mvf4, mvf5, mvf0
    1ce0:	0600008e 	streq	r0, [r0], -lr, lsl #1
    1ce4:	068e019f 	pkhbteq	r0, lr, pc, lsl #3	; <UNPREDICTABLE>
    1ce8:	15480000 	strbne	r0, [r8, #-0]
    1cec:	000002ae 	andeq	r0, r0, lr, lsr #5
    1cf0:	c901a006 	stmdbgt	r1, {r1, r2, sp, pc}
    1cf4:	54000006 	strpl	r0, [r0], #-6
    1cf8:	00875a15 	addeq	r5, r7, r5, lsl sl
    1cfc:	01a10600 			; <UNDEFINED> instruction: 0x01a10600
    1d00:	0000085b 	andeq	r0, r0, fp, asr r8
    1d04:	49211558 	stmdbmi	r1!, {r3, r4, r6, r8, sl, ip}
    1d08:	a2060000 	andge	r0, r6, #0
    1d0c:	00012c01 	andeq	r2, r1, r1, lsl #24
    1d10:	0d005c00 	stceq	12, cr5, [r0, #-0]
    1d14:	00037504 	andeq	r7, r3, r4, lsl #10
    1d18:	04a10e00 	strteq	r0, [r1], #3584	; 0xe00
    1d1c:	d80f0000 	stmdale	pc, {}	; <UNPREDICTABLE>
    1d20:	68000043 	stmdavs	r0, {r0, r1, r6}
    1d24:	05d6b506 	ldrbeq	fp, [r6, #1286]	; 0x506
    1d28:	5f100000 	svcpl	0x00100000
    1d2c:	b6060070 			; <UNDEFINED> instruction: 0xb6060070
    1d30:	00000300 	andeq	r0, r0, r0, lsl #6
    1d34:	725f1000 	subsvc	r1, pc, #0
    1d38:	30b70600 	adcscc	r0, r7, r0, lsl #12
    1d3c:	04000000 	streq	r0, [r0], #-0
    1d40:	00775f10 	rsbseq	r5, r7, r0, lsl pc
    1d44:	0030b806 	eorseq	fp, r0, r6, lsl #16
    1d48:	0b080000 	bleq	201d50 <_Min_Stack_Size+0x201950>
    1d4c:	00005ea6 	andeq	r5, r0, r6, lsr #29
    1d50:	005eb906 	subseq	fp, lr, r6, lsl #18
    1d54:	0b0c0000 	bleq	301d5c <_Min_Stack_Size+0x30195c>
    1d58:	000013bd 			; <UNDEFINED> instruction: 0x000013bd
    1d5c:	005eba06 	subseq	fp, lr, r6, lsl #20
    1d60:	100e0000 	andne	r0, lr, r0
    1d64:	0066625f 	rsbeq	r6, r6, pc, asr r2
    1d68:	02dbbb06 	sbcseq	fp, fp, #6144	; 0x1800
    1d6c:	0b100000 	bleq	401d74 <_Min_Stack_Size+0x401974>
    1d70:	0000845c 	andeq	r8, r0, ip, asr r4
    1d74:	0030bc06 	eorseq	fp, r0, r6, lsl #24
    1d78:	0b180000 	bleq	601d80 <_Min_Stack_Size+0x601980>
    1d7c:	000073c6 	andeq	r7, r0, r6, asr #7
    1d80:	04a1bf06 	strteq	fp, [r1], #3846	; 0xf06
    1d84:	0b1c0000 	bleq	701d8c <_Min_Stack_Size+0x70198c>
    1d88:	00003572 	andeq	r3, r0, r2, ror r5
    1d8c:	012ac306 			; <UNDEFINED> instruction: 0x012ac306
    1d90:	0b200000 	bleq	801d98 <_Min_Stack_Size+0x801998>
    1d94:	00000311 	andeq	r0, r0, r1, lsl r3
    1d98:	05f4c506 	ldrbeq	ip, [r4, #1286]!	; 0x506
    1d9c:	0b240000 	bleq	901da4 <_Min_Stack_Size+0x9019a4>
    1da0:	00000555 	andeq	r0, r0, r5, asr r5
    1da4:	061ec706 	ldreq	ip, [lr], -r6, lsl #14
    1da8:	0b280000 	bleq	a01db0 <_Min_Stack_Size+0xa019b0>
    1dac:	000066b6 			; <UNDEFINED> instruction: 0x000066b6
    1db0:	0642ca06 	strbeq	ip, [r2], -r6, lsl #20
    1db4:	0b2c0000 	bleq	b01dbc <_Min_Stack_Size+0xb019bc>
    1db8:	00006451 	andeq	r6, r0, r1, asr r4
    1dbc:	065ccb06 	ldrbeq	ip, [ip], -r6, lsl #22
    1dc0:	10300000 	eorsne	r0, r0, r0
    1dc4:	0062755f 	rsbeq	r7, r2, pc, asr r5
    1dc8:	02dbce06 	sbcseq	ip, fp, #6, 28	; 0x60
    1dcc:	10340000 	eorsne	r0, r4, r0
    1dd0:	0070755f 	rsbseq	r7, r0, pc, asr r5
    1dd4:	0300cf06 	movweq	ip, #3846	; 0xf06
    1dd8:	103c0000 	eorsne	r0, ip, r0
    1ddc:	0072755f 	rsbseq	r7, r2, pc, asr r5
    1de0:	0030d006 	eorseq	sp, r0, r6
    1de4:	0b400000 	bleq	1001dec <_Min_Stack_Size+0x10019ec>
    1de8:	00005cc9 	andeq	r5, r0, r9, asr #25
    1dec:	0662d306 	strbteq	sp, [r2], -r6, lsl #6
    1df0:	0b440000 	bleq	1101df8 <_Min_Stack_Size+0x11019f8>
    1df4:	00000a32 	andeq	r0, r0, r2, lsr sl
    1df8:	0672d406 	ldrbteq	sp, [r2], -r6, lsl #8
    1dfc:	10470000 	subne	r0, r7, r0
    1e00:	00626c5f 	rsbeq	r6, r2, pc, asr ip
    1e04:	02dbd706 	sbcseq	sp, fp, #1572864	; 0x180000
    1e08:	0b480000 	bleq	1201e10 <_Min_Stack_Size+0x1201a10>
    1e0c:	00006e33 	andeq	r6, r0, r3, lsr lr
    1e10:	0030da06 	eorseq	sp, r0, r6, lsl #20
    1e14:	0b500000 	bleq	1401e1c <_Min_Stack_Size+0x1401a1c>
    1e18:	000038f7 	strdeq	r3, [r0], -r7
    1e1c:	00a2db06 	adceq	sp, r2, r6, lsl #22
    1e20:	0b540000 	bleq	1501e28 <_Min_Stack_Size+0x1501a28>
    1e24:	00000d4e 	andeq	r0, r0, lr, asr #26
    1e28:	011fe206 	tsteq	pc, r6, lsl #4
    1e2c:	0b580000 	bleq	1601e34 <_Min_Stack_Size+0x1601a34>
    1e30:	00005e34 	andeq	r5, r0, r4, lsr lr
    1e34:	0114e406 	tsteq	r4, r6, lsl #8
    1e38:	0b5c0000 	bleq	1701e40 <_Min_Stack_Size+0x1701a40>
    1e3c:	0000580d 	andeq	r5, r0, sp, lsl #16
    1e40:	0030e506 	eorseq	lr, r0, r6, lsl #10
    1e44:	00640000 	rsbeq	r0, r4, r0
    1e48:	00003017 	andeq	r3, r0, r7, lsl r0
    1e4c:	0005f400 	andeq	pc, r5, r0, lsl #8
    1e50:	04a11800 	strteq	r1, [r1], #2048	; 0x800
    1e54:	2a180000 	bcs	601e5c <_Min_Stack_Size+0x601a5c>
    1e58:	18000001 	stmdane	r0, {r0}
    1e5c:	0000012c 	andeq	r0, r0, ip, lsr #2
    1e60:	00003018 	andeq	r3, r0, r8, lsl r0
    1e64:	040d0000 	streq	r0, [sp], #-0
    1e68:	000005d6 	ldrdeq	r0, [r0], -r6
    1e6c:	00003017 	andeq	r3, r0, r7, lsl r0
    1e70:	00061800 	andeq	r1, r6, r0, lsl #16
    1e74:	04a11800 	strteq	r1, [r1], #2048	; 0x800
    1e78:	2a180000 	bcs	601e80 <_Min_Stack_Size+0x601a80>
    1e7c:	18000001 	stmdane	r0, {r0}
    1e80:	00000618 	andeq	r0, r0, r8, lsl r6
    1e84:	00003018 	andeq	r3, r0, r8, lsl r0
    1e88:	040d0000 	streq	r0, [sp], #-0
    1e8c:	00000139 	andeq	r0, r0, r9, lsr r1
    1e90:	05fa040d 	ldrbeq	r0, [sl, #1037]!	; 0x40d
    1e94:	ad170000 	ldcge	0, cr0, [r7, #-0]
    1e98:	42000000 	andmi	r0, r0, #0
    1e9c:	18000006 	stmdane	r0, {r1, r2}
    1ea0:	000004a1 	andeq	r0, r0, r1, lsr #9
    1ea4:	00012a18 	andeq	r2, r1, r8, lsl sl
    1ea8:	00ad1800 	adceq	r1, sp, r0, lsl #16
    1eac:	30180000 	andscc	r0, r8, r0
    1eb0:	00000000 	andeq	r0, r0, r0
    1eb4:	0624040d 	strteq	r0, [r4], -sp, lsl #8
    1eb8:	30170000 	andscc	r0, r7, r0
    1ebc:	5c000000 	stcpl	0, cr0, [r0], {-0}
    1ec0:	18000006 	stmdane	r0, {r1, r2}
    1ec4:	000004a1 	andeq	r0, r0, r1, lsr #9
    1ec8:	00012a18 	andeq	r2, r1, r8, lsl sl
    1ecc:	040d0000 	streq	r0, [sp], #-0
    1ed0:	00000648 	andeq	r0, r0, r8, asr #12
    1ed4:	00005708 	andeq	r5, r0, r8, lsl #14
    1ed8:	00067200 	andeq	r7, r6, r0, lsl #4
    1edc:	00290900 	eoreq	r0, r9, r0, lsl #18
    1ee0:	00020000 	andeq	r0, r2, r0
    1ee4:	00005708 	andeq	r5, r0, r8, lsl #14
    1ee8:	00068200 	andeq	r8, r6, r0, lsl #4
    1eec:	00290900 	eoreq	r0, r9, r0, lsl #18
    1ef0:	00000000 	andeq	r0, r0, r0
    1ef4:	0071b405 	rsbseq	fp, r1, r5, lsl #8
    1ef8:	011f0600 	tsteq	pc, r0, lsl #12
    1efc:	000004ac 	andeq	r0, r0, ip, lsr #9
    1f00:	00559214 	subseq	r9, r5, r4, lsl r2
    1f04:	23060c00 	movwcs	r0, #27648	; 0x6c00
    1f08:	0006c301 	andeq	ip, r6, r1, lsl #6
    1f0c:	5e881500 	cdppl	5, 8, cr1, cr8, cr0, {0}
    1f10:	25060000 	strcs	r0, [r6, #-0]
    1f14:	0006c301 	andeq	ip, r6, r1, lsl #6
    1f18:	77150000 	ldrvc	r0, [r5, -r0]
    1f1c:	0600002d 	streq	r0, [r0], -sp, lsr #32
    1f20:	00300126 	eorseq	r0, r0, r6, lsr #2
    1f24:	15040000 	strne	r0, [r4, #-0]
    1f28:	0000555f 	andeq	r5, r0, pc, asr r5
    1f2c:	c9012706 	stmdbgt	r1, {r1, r2, r8, r9, sl, sp}
    1f30:	08000006 	stmdaeq	r0, {r1, r2}
    1f34:	8e040d00 	cdphi	13, 0, cr0, cr4, cr0, {0}
    1f38:	0d000006 	stceq	0, cr0, [r0, #-24]	; 0xffffffe8
    1f3c:	00068204 	andeq	r8, r6, r4, lsl #4
    1f40:	6cc91400 	cfstrdvs	mvd1, [r9], {0}
    1f44:	06180000 	ldreq	r0, [r8], -r0
    1f48:	0711013f 			; <UNDEFINED> instruction: 0x0711013f
    1f4c:	1a150000 	bne	541f54 <_Min_Stack_Size+0x541b54>
    1f50:	06000066 	streq	r0, [r0], -r6, rrx
    1f54:	07110140 	ldreq	r0, [r1, -r0, asr #2]
    1f58:	15000000 	strne	r0, [r0, #-0]
    1f5c:	00001046 	andeq	r1, r0, r6, asr #32
    1f60:	11014106 	tstne	r1, r6, lsl #2
    1f64:	06000007 	streq	r0, [r0], -r7
    1f68:	008a9d15 	addeq	r9, sl, r5, lsl sp
    1f6c:	01420600 	cmpeq	r2, r0, lsl #12
    1f70:	00000070 	andeq	r0, r0, r0, ror r0
    1f74:	5e83150c 	cdppl	5, 8, cr1, cr3, cr12, {0}
    1f78:	45060000 	strmi	r0, [r6, #-0]
    1f7c:	00009001 	andeq	r9, r0, r1
    1f80:	08001000 	stmdaeq	r0, {ip}
    1f84:	00000070 	andeq	r0, r0, r0, ror r0
    1f88:	00000721 	andeq	r0, r0, r1, lsr #14
    1f8c:	00002909 	andeq	r2, r0, r9, lsl #18
    1f90:	14000200 	strne	r0, [r0], #-512	; 0xfffffe00
    1f94:	000086f3 	strdeq	r8, [r0], -r3
    1f98:	01580610 	cmpeq	r8, r0, lsl r6
    1f9c:	00000763 	andeq	r0, r0, r3, ror #14
    1fa0:	00887815 	addeq	r7, r8, r5, lsl r8
    1fa4:	015b0600 	cmpeq	fp, r0, lsl #12
    1fa8:	0000019c 	muleq	r0, ip, r1
    1fac:	17851500 	strne	r1, [r5, r0, lsl #10]
    1fb0:	5c060000 	stcpl	0, cr0, [r6], {-0}
    1fb4:	00003001 	andeq	r3, r0, r1
    1fb8:	8d150400 	cfldrshi	mvf0, [r5, #-0]
    1fbc:	06000035 			; <UNDEFINED> instruction: 0x06000035
    1fc0:	019c015d 	orrseq	r0, ip, sp, asr r1
    1fc4:	15080000 	strne	r0, [r8, #-0]
    1fc8:	00005539 	andeq	r5, r0, r9, lsr r5
    1fcc:	63015e06 	movwvs	r5, #7686	; 0x1e06
    1fd0:	0c000007 	stceq	0, cr0, [r0], {7}
    1fd4:	9c040d00 	stcls	13, cr0, [r4], {-0}
    1fd8:	14000001 	strne	r0, [r0], #-1
    1fdc:	00001d11 	andeq	r1, r0, r1, lsl sp
    1fe0:	01620650 	cmneq	r2, r0, asr r6
    1fe4:	00000806 	andeq	r0, r0, r6, lsl #16
    1fe8:	006fc715 	rsbeq	ip, pc, r5, lsl r7	; <UNPREDICTABLE>
    1fec:	01650600 	cmneq	r5, r0, lsl #12
    1ff0:	0000012c 	andeq	r0, r0, ip, lsr #2
    1ff4:	7af11500 	bvc	ffc473fc <_estack+0xdfc44bfc>
    1ff8:	66060000 	strvs	r0, [r6], -r0
    1ffc:	00011401 	andeq	r1, r1, r1, lsl #8
    2000:	92150400 	andsls	r0, r5, #0, 8
    2004:	0600006b 	streq	r0, [r0], -fp, rrx
    2008:	01140167 	tsteq	r4, r7, ror #2
    200c:	150c0000 	strne	r0, [ip, #-0]
    2010:	0000685f 	andeq	r6, r0, pc, asr r8
    2014:	14016806 	strne	r6, [r1], #-2054	; 0xfffff7fa
    2018:	14000001 	strne	r0, [r0], #-1
    201c:	000ae315 	andeq	lr, sl, r5, lsl r3
    2020:	01690600 	cmneq	r9, r0, lsl #12
    2024:	00000806 	andeq	r0, r0, r6, lsl #16
    2028:	0edf151c 	mrceq	5, 6, r1, cr15, cr12, {0}
    202c:	6a060000 	bvs	182034 <_Min_Stack_Size+0x181c34>
    2030:	00003001 	andeq	r3, r0, r1
    2034:	17152400 	ldrne	r2, [r5, -r0, lsl #8]
    2038:	06000017 			; <UNDEFINED> instruction: 0x06000017
    203c:	0114016b 	tsteq	r4, fp, ror #2
    2040:	15280000 	strne	r0, [r8, #-0]!
    2044:	00007038 	andeq	r7, r0, r8, lsr r0
    2048:	14016c06 	strne	r6, [r1], #-3078	; 0xfffff3fa
    204c:	30000001 	andcc	r0, r0, r1
    2050:	008c7315 	addeq	r7, ip, r5, lsl r3
    2054:	016d0600 	cmneq	sp, r0, lsl #12
    2058:	00000114 	andeq	r0, r0, r4, lsl r1
    205c:	5b601538 	blpl	1807544 <_Min_Stack_Size+0x1807144>
    2060:	6e060000 	cdpvs	0, 0, cr0, cr6, cr0, {0}
    2064:	00011401 	andeq	r1, r1, r1, lsl #8
    2068:	21154000 	tstcs	r5, r0
    206c:	0600000a 	streq	r0, [r0], -sl
    2070:	0114016f 	tsteq	r4, pc, ror #2
    2074:	00480000 	subeq	r0, r8, r0
    2078:	00013208 	andeq	r3, r1, r8, lsl #4
    207c:	00081600 	andeq	r1, r8, r0, lsl #12
    2080:	00290900 	eoreq	r0, r9, r0, lsl #18
    2084:	00070000 	andeq	r0, r7, r0
    2088:	0001c019 	andeq	ip, r1, r9, lsl r0
    208c:	16040d00 	strne	r0, [r4], -r0, lsl #26
    2090:	0d000008 	stceq	0, cr0, [r0, #-32]	; 0xffffffe0
    2094:	00072104 	andeq	r2, r7, r4, lsl #2
    2098:	08321a00 	ldmdaeq	r2!, {r9, fp, ip}
    209c:	a1180000 	tstge	r8, r0
    20a0:	00000004 	andeq	r0, r0, r4
    20a4:	0827040d 	stmdaeq	r7!, {r0, r2, r3, sl}
    20a8:	040d0000 	streq	r0, [sp], #-0
    20ac:	000006cf 	andeq	r0, r0, pc, asr #13
    20b0:	01b2040d 			; <UNDEFINED> instruction: 0x01b2040d
    20b4:	4f1a0000 	svcmi	0x001a0000
    20b8:	18000008 	stmdane	r0, {r3}
    20bc:	00000030 	andeq	r0, r0, r0, lsr r0
    20c0:	55040d00 	strpl	r0, [r4, #-3328]	; 0xfffff300
    20c4:	0d000008 	stceq	0, cr0, [r0, #-32]	; 0xffffffe0
    20c8:	00084404 	andeq	r4, r8, r4, lsl #8
    20cc:	69040d00 	stmdbvs	r4, {r8, sl, fp}
    20d0:	1b000007 	blne	20f4 <_Min_Stack_Size+0x1cf4>
    20d4:	00002068 	andeq	r2, r0, r8, rrx
    20d8:	7001ca06 	andvc	ip, r1, r6, lsl #20
    20dc:	1b000003 	blne	20f0 <_Min_Stack_Size+0x1cf0>
    20e0:	000057c6 	andeq	r5, r0, r6, asr #15
    20e4:	7001cb06 	andvc	ip, r1, r6, lsl #22
    20e8:	1b000003 	blne	20fc <_Min_Stack_Size+0x1cfc>
    20ec:	00004659 	andeq	r4, r0, r9, asr r6
    20f0:	7001cc06 	andvc	ip, r1, r6, lsl #24
    20f4:	1b000003 	blne	2108 <_Min_Stack_Size+0x1d08>
    20f8:	00002ce3 	andeq	r2, r0, r3, ror #25
    20fc:	a1032e06 	tstge	r3, r6, lsl #28
    2100:	1b000004 	blne	2118 <_Min_Stack_Size+0x1d18>
    2104:	0000801c 	andeq	r8, r0, ip, lsl r0
    2108:	a7032f06 	strge	r2, [r3, -r6, lsl #30]
    210c:	1b000004 	blne	2124 <_Min_Stack_Size+0x1d24>
    2110:	000049e4 	andeq	r4, r0, r4, ror #19
    2114:	b8034106 	stmdalt	r3, {r1, r2, r8, lr}
    2118:	1c000002 	stcne	0, cr0, [r0], {2}
    211c:	00007f31 	andeq	r7, r0, r1, lsr pc
    2120:	012c6307 			; <UNDEFINED> instruction: 0x012c6307
    2124:	20040000 	andcs	r0, r4, r0
    2128:	08000013 	stmdaeq	r0, {r0, r1, r4}
    212c:	00004c18 	andeq	r4, r0, r8, lsl ip
    2130:	2ba10400 	blcs	fe843138 <_estack+0xde840938>
    2134:	24080000 	strcs	r0, [r8], #-0
    2138:	00000065 	andeq	r0, r0, r5, rrx
    213c:	00439b04 	subeq	r9, r3, r4, lsl #22
    2140:	7e300800 	cdpvc	8, 3, cr0, cr0, cr0, {0}
    2144:	1d000000 	stcne	0, cr0, [r0, #-0]
    2148:	000008ca 	andeq	r0, r0, sl, asr #17
    214c:	47091c0a 	strmi	r1, [r9, -sl, lsl #24]
    2150:	00000937 	andeq	r0, r0, r7, lsr r9
    2154:	4c524310 	mrrcmi	3, 1, r4, r2, cr0
    2158:	d5490900 	strble	r0, [r9, #-2304]	; 0xfffff700
    215c:	00000008 	andeq	r0, r0, r8
    2160:	48524310 	ldmdami	r2, {r4, r8, r9, lr}^
    2164:	d54a0900 	strble	r0, [sl, #-2304]	; 0xfffff700
    2168:	04000008 	streq	r0, [r0], #-8
    216c:	52444910 	subpl	r4, r4, #16, 18	; 0x40000
    2170:	d54b0900 	strble	r0, [fp, #-2304]	; 0xfffff700
    2174:	08000008 	stmdaeq	r0, {r3}
    2178:	52444f10 	subpl	r4, r4, #16, 30	; 0x40
    217c:	d54c0900 	strble	r0, [ip, #-2304]	; 0xfffff700
    2180:	0c000008 	stceq	0, cr0, [r0], {8}
    2184:	0082840b 	addeq	r8, r2, fp, lsl #8
    2188:	d54d0900 	strble	r0, [sp, #-2304]	; 0xfffff700
    218c:	10000008 	andne	r0, r0, r8
    2190:	52524210 	subspl	r4, r2, #16, 4
    2194:	d54e0900 	strble	r0, [lr, #-2304]	; 0xfffff700
    2198:	14000008 	strne	r0, [r0], #-8
    219c:	00492d0b 	subeq	r2, r9, fp, lsl #26
    21a0:	d54f0900 	strble	r0, [pc, #-2304]	; 18a8 <_Min_Stack_Size+0x14a8>
    21a4:	18000008 	stmdane	r0, {r3}
    21a8:	84160400 	ldrhi	r0, [r6], #-1024	; 0xfffffc00
    21ac:	50090000 	andpl	r0, r9, r0
    21b0:	000008da 	ldrdeq	r0, [r0], -sl
    21b4:	5509280a 	strpl	r2, [r9, #-2058]	; 0xfffff7f6
    21b8:	000009c2 	andeq	r0, r0, r2, asr #19
    21bc:	00524310 	subseq	r4, r2, r0, lsl r3
    21c0:	08d55709 	ldmeq	r5, {r0, r3, r8, r9, sl, ip, lr}^
    21c4:	0b000000 	bleq	21cc <_Min_Stack_Size+0x1dcc>
    21c8:	000093cc 	andeq	r9, r0, ip, asr #7
    21cc:	08d55809 	ldmeq	r5, {r0, r3, fp, ip, lr}^
    21d0:	10040000 	andne	r0, r4, r0
    21d4:	00524943 	subseq	r4, r2, r3, asr #18
    21d8:	08d55909 	ldmeq	r5, {r0, r3, r8, fp, ip, lr}^
    21dc:	0b080000 	bleq	2021e4 <_Min_Stack_Size+0x201de4>
    21e0:	0000940f 	andeq	r9, r0, pc, lsl #8
    21e4:	08d55a09 	ldmeq	r5, {r0, r3, r9, fp, ip, lr}^
    21e8:	0b0c0000 	bleq	3021f0 <_Min_Stack_Size+0x301df0>
    21ec:	00009455 	andeq	r9, r0, r5, asr r4
    21f0:	08d55b09 	ldmeq	r5, {r0, r3, r8, r9, fp, ip, lr}^
    21f4:	0b100000 	bleq	4021fc <_Min_Stack_Size+0x401dfc>
    21f8:	0000949e 	muleq	r0, lr, r4
    21fc:	08d55c09 	ldmeq	r5, {r0, r3, sl, fp, ip, lr}^
    2200:	0b140000 	bleq	502208 <_Min_Stack_Size+0x501e08>
    2204:	00009393 	muleq	r0, r3, r3
    2208:	08d55d09 	ldmeq	r5, {r0, r3, r8, sl, fp, ip, lr}^
    220c:	0b180000 	bleq	602214 <_Min_Stack_Size+0x601e14>
    2210:	0000945e 	andeq	r9, r0, lr, asr r4
    2214:	08d55e09 	ldmeq	r5, {r0, r3, r9, sl, fp, ip, lr}^
    2218:	0b1c0000 	bleq	702220 <_Min_Stack_Size+0x701e20>
    221c:	000093af 	andeq	r9, r0, pc, lsr #7
    2220:	08d55f09 	ldmeq	r5, {r0, r3, r8, r9, sl, fp, ip, lr}^
    2224:	10200000 	eorne	r0, r0, r0
    2228:	00525343 	subseq	r5, r2, r3, asr #6
    222c:	08d56009 	ldmeq	r5, {r0, r3, sp, lr}^
    2230:	00240000 	eoreq	r0, r4, r0
    2234:	00948804 	addseq	r8, r4, r4, lsl #16
    2238:	42610900 	rsbmi	r0, r1, #0, 18
    223c:	0a000009 	beq	2268 <_Min_Stack_Size+0x1e68>
    2240:	06130a0c 	ldreq	r0, [r3], -ip, lsl #20
    2244:	0b00000a 	bleq	2274 <_Min_Stack_Size+0x1e74>
    2248:	00005220 	andeq	r5, r0, r0, lsr #4
    224c:	08b4150a 	ldmeq	r4!, {r1, r3, r8, sl, ip}
    2250:	0b000000 	bleq	2258 <_Min_Stack_Size+0x1e58>
    2254:	00006d57 	andeq	r6, r0, r7, asr sp
    2258:	0a06160a 	beq	187a88 <_Min_Stack_Size+0x187688>
    225c:	0b040000 	bleq	102264 <_Min_Stack_Size+0x101e64>
    2260:	00007779 	andeq	r7, r0, r9, ror r7
    2264:	08b4170a 	ldmeq	r4!, {r1, r3, r8, r9, sl, ip}
    2268:	0b080000 	bleq	202270 <_Min_Stack_Size+0x201e70>
    226c:	00008ec0 	andeq	r8, r0, r0, asr #29
    2270:	08b4180a 	ldmeq	r4!, {r1, r3, fp, ip}
    2274:	00090000 	andeq	r0, r9, r0
    2278:	0937040d 	ldmdbeq	r7!, {r0, r2, r3, sl}
    227c:	76040000 	strvc	r0, [r4], -r0
    2280:	0a000091 	beq	24cc <_Min_Stack_Size+0x20cc>
    2284:	0009cd19 	andeq	ip, r9, r9, lsl sp
    2288:	0a140a00 	beq	504a90 <_Min_Stack_Size+0x504690>
    228c:	000a501c 	andeq	r5, sl, ip, lsl r0
    2290:	54810b00 	strpl	r0, [r1], #2816	; 0xb00
    2294:	200a0000 	andcs	r0, sl, r0
    2298:	00000a0c 	andeq	r0, r0, ip, lsl #20
    229c:	324b0b00 	subcc	r0, fp, #0, 22
    22a0:	230a0000 	movwcs	r0, #40960	; 0xa000
    22a4:	000008b4 			; <UNDEFINED> instruction: 0x000008b4
    22a8:	1be80b0c 	blne	ffa04ee0 <_estack+0xdfa026e0>
    22ac:	260a0000 	strcs	r0, [sl], -r0
    22b0:	000008b4 			; <UNDEFINED> instruction: 0x000008b4
    22b4:	61670b0d 	cmnvs	r7, sp, lsl #22
    22b8:	280a0000 	stmdacs	sl, {}	; <UNPREDICTABLE>
    22bc:	000002ce 	andeq	r0, r0, lr, asr #5
    22c0:	65040010 	strvs	r0, [r4, #-16]
    22c4:	0a00008c 	beq	24fc <_Min_Stack_Size+0x20fc>
    22c8:	000a1729 	andeq	r1, sl, r9, lsr #14
    22cc:	94e51e00 	strbtls	r1, [r5], #3584	; 0xe00
    22d0:	19010000 	stmdbne	r1, {}	; <UNPREDICTABLE>
    22d4:	000008b4 			; <UNDEFINED> instruction: 0x000008b4
    22d8:	00580305 	subseq	r0, r8, r5, lsl #6
    22dc:	241f2000 	ldrcs	r2, [pc], #-0	; 22e4 <_Min_Stack_Size+0x1ee4>
    22e0:	07000095 			; <UNDEFINED> instruction: 0x07000095
    22e4:	00005701 	andeq	r5, r0, r1, lsl #14
    22e8:	8a1b0100 	bhi	6c26f0 <_Min_Stack_Size+0x6c22f0>
    22ec:	2000000a 	andcs	r0, r0, sl
    22f0:	000094cf 	andeq	r9, r0, pc, asr #9
    22f4:	94cd2000 	strbls	r2, [sp], #0
    22f8:	00010000 	andeq	r0, r1, r0
    22fc:	0094da21 	addseq	sp, r4, r1, lsr #20
    2300:	30410100 	subcc	r0, r1, r0, lsl #2
    2304:	8c000000 	stchi	0, cr0, [r0], {-0}
    2308:	50080009 	andpl	r0, r8, r9
    230c:	01000000 	mrseq	r0, (UNDEF: 0)
    2310:	000ab29c 	muleq	sl, ip, r2
    2314:	94fc2200 	ldrbtls	r2, [ip], #512	; 0x200
    2318:	46010000 	strmi	r0, [r1], -r0
    231c:	00000a50 	andeq	r0, r0, r0, asr sl
    2320:	00649102 	rsbeq	r9, r4, r2, lsl #2
    2324:	00950f23 	addseq	r0, r5, r3, lsr #30
    2328:	743b0100 	ldrtvc	r0, [fp], #-256	; 0xffffff00
    232c:	18080009 	stmdane	r8, {r0, r3}
    2330:	01000000 	mrseq	r0, (UNDEF: 0)
    2334:	9506249c 	strls	r2, [r6, #-1180]	; 0xfffffb64
    2338:	35010000 	strcc	r0, [r1, #-0]
    233c:	0800094c 	stmdaeq	r0, {r2, r3, r6, r8, fp}
    2340:	00000028 	andeq	r0, r0, r8, lsr #32
    2344:	1d259c01 	stcne	12, cr9, [r5, #-4]!
    2348:	01000095 	swpeq	r0, r5, [r0]	; <UNPREDICTABLE>
    234c:	00090c20 	andeq	r0, r9, r0, lsr #24
    2350:	00004008 	andeq	r4, r0, r8
    2354:	269c0100 	ldrcs	r0, [ip], r0, lsl #2
    2358:	000094df 	ldrdeq	r9, [r0], -pc	; <UNPREDICTABLE>
    235c:	0a6c2001 	beq	1b0a368 <_Min_Stack_Size+0x1b09f68>
    2360:	91020000 	mrsls	r0, (UNDEF: 2)
    2364:	1e000077 	mcrne	0, 0, r0, cr0, cr7, {3}
    2368:	02000000 	andeq	r0, r0, #0
    236c:	00068000 	andeq	r8, r6, r0
    2370:	75010400 	strvc	r0, [r1, #-1024]	; 0xfffffc00
    2374:	e8000012 	stmda	r0, {r1, r4}
    2378:	34000000 	strcc	r0, [r0], #-0
    237c:	21000095 	swpcs	r0, r5, [r0]	; <UNPREDICTABLE>
    2380:	57000008 	strpl	r0, [r0, -r8]
    2384:	01000095 	swpeq	r0, r5, [r0]	; <UNPREDICTABLE>
    2388:	Address 0x0000000000002388 is out of bounds.


Disassembly of section .debug_abbrev:

00000000 <.debug_abbrev>:
   0:	25011101 	strcs	r1, [r1, #-257]	; 0xfffffeff
   4:	030b130e 	movweq	r1, #45838	; 0xb30e
   8:	550e1b0e 	strpl	r1, [lr, #-2830]	; 0xfffff4f2
   c:	10011117 	andne	r1, r1, r7, lsl r1
  10:	17429917 	smlaldne	r9, r2, r7, r9
  14:	24020000 	strcs	r0, [r2], #-0
  18:	3e0b0b00 	vmlacc.f64	d0, d11, d0
  1c:	000e030b 	andeq	r0, lr, fp, lsl #6
  20:	00240300 	eoreq	r0, r4, r0, lsl #6
  24:	0b3e0b0b 	bleq	f82c58 <_Min_Stack_Size+0xf82858>
  28:	00000803 	andeq	r0, r0, r3, lsl #16
  2c:	03001604 	movweq	r1, #1540	; 0x604
  30:	3b0b3a0e 	blcc	2ce870 <_Min_Stack_Size+0x2ce470>
  34:	0013490b 	andseq	r4, r3, fp, lsl #18
  38:	00160500 	andseq	r0, r6, r0, lsl #10
  3c:	0b3a0e03 	bleq	e83850 <_Min_Stack_Size+0xe83450>
  40:	1349053b 	movtne	r0, #38203	; 0x953b
  44:	17060000 	strne	r0, [r6, -r0]
  48:	3a0b0b01 	bcc	2c2c54 <_Min_Stack_Size+0x2c2854>
  4c:	010b3b0b 	tsteq	fp, fp, lsl #22
  50:	07000013 	smladeq	r0, r3, r0, r0
  54:	0e03000d 	cdpeq	0, 0, cr0, cr3, cr13, {0}
  58:	0b3b0b3a 	bleq	ec2d48 <_Min_Stack_Size+0xec2948>
  5c:	00001349 	andeq	r1, r0, r9, asr #6
  60:	49010108 	stmdbmi	r1, {r3, r8}
  64:	00130113 	andseq	r0, r3, r3, lsl r1
  68:	00210900 	eoreq	r0, r1, r0, lsl #18
  6c:	0b2f1349 	bleq	bc4d98 <_Min_Stack_Size+0xbc4998>
  70:	130a0000 	movwne	r0, #40960	; 0xa000
  74:	3a0b0b01 	bcc	2c2c80 <_Min_Stack_Size+0x2c2880>
  78:	010b3b0b 	tsteq	fp, fp, lsl #22
  7c:	0b000013 	bleq	d0 <_Min_Heap_Size-0x130>
  80:	0e03000d 	cdpeq	0, 0, cr0, cr3, cr13, {0}
  84:	0b3b0b3a 	bleq	ec2d74 <_Min_Stack_Size+0xec2974>
  88:	0b381349 	bleq	e04db4 <_Min_Stack_Size+0xe049b4>
  8c:	0f0c0000 	svceq	0x000c0000
  90:	000b0b00 	andeq	r0, fp, r0, lsl #22
  94:	000f0d00 	andeq	r0, pc, r0, lsl #26
  98:	13490b0b 	movtne	r0, #39691	; 0x9b0b
  9c:	260e0000 	strcs	r0, [lr], -r0
  a0:	00134900 	andseq	r4, r3, r0, lsl #18
  a4:	01130f00 	tsteq	r3, r0, lsl #30
  a8:	0b0b0e03 	bleq	2c38bc <_Min_Stack_Size+0x2c34bc>
  ac:	0b3b0b3a 	bleq	ec2d9c <_Min_Stack_Size+0xec299c>
  b0:	00001301 	andeq	r1, r0, r1, lsl #6
  b4:	03000d10 	movweq	r0, #3344	; 0xd10
  b8:	3b0b3a08 	blcc	2ce8e0 <_Min_Stack_Size+0x2ce4e0>
  bc:	3813490b 	ldmdacc	r3, {r0, r1, r3, r8, fp, lr}
  c0:	1100000b 	tstne	r0, fp
  c4:	0e030113 	mcreq	1, 0, r0, cr3, cr3, {0}
  c8:	0b3a050b 	bleq	e814fc <_Min_Stack_Size+0xe810fc>
  cc:	13010b3b 	movwne	r0, #6971	; 0x1b3b
  d0:	0d120000 	ldceq	0, cr0, [r2, #-0]
  d4:	3a0e0300 	bcc	380cdc <_Min_Stack_Size+0x3808dc>
  d8:	490b3b0b 	stmdbmi	fp, {r0, r1, r3, r8, r9, fp, ip, sp}
  dc:	00053813 	andeq	r3, r5, r3, lsl r8
  e0:	00151300 	andseq	r1, r5, r0, lsl #6
  e4:	00001927 	andeq	r1, r0, r7, lsr #18
  e8:	03011314 	movweq	r1, #4884	; 0x1314
  ec:	3a0b0b0e 	bcc	2c2d2c <_Min_Stack_Size+0x2c292c>
  f0:	01053b0b 	tsteq	r5, fp, lsl #22
  f4:	15000013 	strne	r0, [r0, #-19]	; 0xffffffed
  f8:	0e03000d 	cdpeq	0, 0, cr0, cr3, cr13, {0}
  fc:	053b0b3a 	ldreq	r0, [fp, #-2874]!	; 0xfffff4c6
 100:	0b381349 	bleq	e04e2c <_Min_Stack_Size+0xe04a2c>
 104:	0d160000 	ldceq	0, cr0, [r6, #-0]
 108:	3a080300 	bcc	200d10 <_Min_Stack_Size+0x200910>
 10c:	49053b0b 	stmdbmi	r5, {r0, r1, r3, r8, r9, fp, ip, sp}
 110:	000b3813 	andeq	r3, fp, r3, lsl r8
 114:	01151700 	tsteq	r5, r0, lsl #14
 118:	13491927 	movtne	r1, #39207	; 0x9927
 11c:	00001301 	andeq	r1, r0, r1, lsl #6
 120:	49000518 	stmdbmi	r0, {r3, r4, r8, sl}
 124:	19000013 	stmdbne	r0, {r0, r1, r4}
 128:	0e030013 	mcreq	0, 0, r0, cr3, cr3, {0}
 12c:	0000193c 	andeq	r1, r0, ip, lsr r9
 130:	2701151a 	smladcs	r1, sl, r5, r1
 134:	00130119 	andseq	r0, r3, r9, lsl r1
 138:	00341b00 	eorseq	r1, r4, r0, lsl #22
 13c:	0b3a0e03 	bleq	e83950 <_Min_Stack_Size+0xe83550>
 140:	1349053b 	movtne	r0, #38203	; 0x953b
 144:	193c193f 	ldmdbne	ip!, {r0, r1, r2, r3, r4, r5, r8, fp, ip}
 148:	341c0000 	ldrcc	r0, [ip], #-0
 14c:	3a0e0300 	bcc	380d54 <_Min_Stack_Size+0x380954>
 150:	490b3b0b 	stmdbmi	fp, {r0, r1, r3, r8, r9, fp, ip, sp}
 154:	3c193f13 	ldccc	15, cr3, [r9], {19}
 158:	1d000019 	stcne	0, cr0, [r0, #-100]	; 0xffffff9c
 15c:	13490035 	movtne	r0, #36917	; 0x9035
 160:	341e0000 	ldrcc	r0, [lr], #-0
 164:	3a0e0300 	bcc	380d6c <_Min_Stack_Size+0x38096c>
 168:	490b3b0b 	stmdbmi	fp, {r0, r1, r3, r8, r9, fp, ip, sp}
 16c:	02193f13 	andseq	r3, r9, #19, 30	; 0x4c
 170:	1f000018 	svcne	0x00000018
 174:	193f002e 	ldmdbne	pc!, {r1, r2, r3, r5}	; <UNPREDICTABLE>
 178:	0b3a0e03 	bleq	e8398c <_Min_Stack_Size+0xe8358c>
 17c:	1927053b 	stmdbne	r7!, {r0, r1, r3, r4, r5, r8, sl}
 180:	06120111 			; <UNDEFINED> instruction: 0x06120111
 184:	42961840 	addsmi	r1, r6, #64, 16	; 0x400000
 188:	20000019 	andcs	r0, r0, r9, lsl r0
 18c:	193f002e 	ldmdbne	pc!, {r1, r2, r3, r5}	; <UNPREDICTABLE>
 190:	0b3a0e03 	bleq	e839a4 <_Min_Stack_Size+0xe835a4>
 194:	19270b3b 	stmdbne	r7!, {r0, r1, r3, r4, r5, r8, r9, fp}
 198:	06120111 			; <UNDEFINED> instruction: 0x06120111
 19c:	42961840 	addsmi	r1, r6, #64, 16	; 0x400000
 1a0:	21000019 	tstcs	r0, r9, lsl r0
 1a4:	193f012e 	ldmdbne	pc!, {r1, r2, r3, r5, r8}	; <UNPREDICTABLE>
 1a8:	0b3a0e03 	bleq	e839bc <_Min_Stack_Size+0xe835bc>
 1ac:	19270b3b 	stmdbne	r7!, {r0, r1, r3, r4, r5, r8, r9, fp}
 1b0:	06120111 			; <UNDEFINED> instruction: 0x06120111
 1b4:	42961840 	addsmi	r1, r6, #64, 16	; 0x400000
 1b8:	00130119 	andseq	r0, r3, r9, lsl r1
 1bc:	00052200 	andeq	r2, r5, r0, lsl #4
 1c0:	0b3a0e03 	bleq	e839d4 <_Min_Stack_Size+0xe835d4>
 1c4:	13490b3b 	movtne	r0, #39739	; 0x9b3b
 1c8:	00001802 	andeq	r1, r0, r2, lsl #16
 1cc:	3f002e23 	svccc	0x00002e23
 1d0:	3a0e0319 	bcc	380e3c <_Min_Stack_Size+0x380a3c>
 1d4:	110b3b0b 	tstne	fp, fp, lsl #22
 1d8:	40061201 	andmi	r1, r6, r1, lsl #4
 1dc:	19429718 	stmdbne	r2, {r3, r4, r8, r9, sl, ip, pc}^
 1e0:	34240000 	strtcc	r0, [r4], #-0
 1e4:	3a0e0300 	bcc	380dec <_Min_Stack_Size+0x3809ec>
 1e8:	490b3b0b 	stmdbmi	fp, {r0, r1, r3, r8, r9, fp, ip, sp}
 1ec:	00180213 	andseq	r0, r8, r3, lsl r2
 1f0:	012e2500 			; <UNDEFINED> instruction: 0x012e2500
 1f4:	0e03193f 			; <UNDEFINED> instruction: 0x0e03193f
 1f8:	0b3b0b3a 	bleq	ec2ee8 <_Min_Stack_Size+0xec2ae8>
 1fc:	01111927 	tsteq	r1, r7, lsr #18
 200:	18400612 	stmdane	r0, {r1, r4, r9, sl}^
 204:	01194297 			; <UNDEFINED> instruction: 0x01194297
 208:	26000013 			; <UNDEFINED> instruction: 0x26000013
 20c:	08030005 	stmdaeq	r3, {r0, r2}
 210:	0b3b0b3a 	bleq	ec2f00 <_Min_Stack_Size+0xec2b00>
 214:	18021349 	stmdane	r2, {r0, r3, r6, r8, r9, ip}
 218:	2e270000 	cdpcs	0, 2, cr0, cr7, cr0, {0}
 21c:	03193f01 	tsteq	r9, #1, 30
 220:	3b0b3a0e 	blcc	2cea60 <_Min_Stack_Size+0x2ce660>
 224:	1119270b 	tstne	r9, fp, lsl #14
 228:	40061201 	andmi	r1, r6, r1, lsl #4
 22c:	19429718 	stmdbne	r2, {r3, r4, r8, r9, sl, ip, pc}^
 230:	01000000 	mrseq	r0, (UNDEF: 0)
 234:	0e250111 	mcreq	1, 1, r0, cr5, cr1, {0}
 238:	0e030b13 	vmoveq.32	d3[0], r0
 23c:	17550e1b 	smmlane	r5, fp, lr, r0
 240:	17100111 			; <UNDEFINED> instruction: 0x17100111
 244:	00174299 	mulseq	r7, r9, r2
 248:	00240200 	eoreq	r0, r4, r0, lsl #4
 24c:	0b3e0b0b 	bleq	f82e80 <_Min_Stack_Size+0xf82a80>
 250:	00000e03 	andeq	r0, r0, r3, lsl #28
 254:	0b002403 	bleq	9268 <_Min_Stack_Size+0x8e68>
 258:	030b3e0b 	movweq	r3, #48651	; 0xbe0b
 25c:	04000008 	streq	r0, [r0], #-8
 260:	0e030016 	mcreq	0, 0, r0, cr3, cr6, {0}
 264:	0b3b0b3a 	bleq	ec2f54 <_Min_Stack_Size+0xec2b54>
 268:	00001349 	andeq	r1, r0, r9, asr #6
 26c:	03001605 	movweq	r1, #1541	; 0x605
 270:	3b0b3a0e 	blcc	2ceab0 <_Min_Stack_Size+0x2ce6b0>
 274:	00134905 	andseq	r4, r3, r5, lsl #18
 278:	01170600 	tsteq	r7, r0, lsl #12
 27c:	0b3a0b0b 	bleq	e82eb0 <_Min_Stack_Size+0xe82ab0>
 280:	13010b3b 	movwne	r0, #6971	; 0x1b3b
 284:	0d070000 	stceq	0, cr0, [r7, #-0]
 288:	3a0e0300 	bcc	380e90 <_Min_Stack_Size+0x380a90>
 28c:	490b3b0b 	stmdbmi	fp, {r0, r1, r3, r8, r9, fp, ip, sp}
 290:	08000013 	stmdaeq	r0, {r0, r1, r4}
 294:	13490101 	movtne	r0, #37121	; 0x9101
 298:	00001301 	andeq	r1, r0, r1, lsl #6
 29c:	49002109 	stmdbmi	r0, {r0, r3, r8, sp}
 2a0:	000b2f13 	andeq	r2, fp, r3, lsl pc
 2a4:	01130a00 	tsteq	r3, r0, lsl #20
 2a8:	0b3a0b0b 	bleq	e82edc <_Min_Stack_Size+0xe82adc>
 2ac:	13010b3b 	movwne	r0, #6971	; 0x1b3b
 2b0:	0d0b0000 	stceq	0, cr0, [fp, #-0]
 2b4:	3a0e0300 	bcc	380ebc <_Min_Stack_Size+0x380abc>
 2b8:	490b3b0b 	stmdbmi	fp, {r0, r1, r3, r8, r9, fp, ip, sp}
 2bc:	000b3813 	andeq	r3, fp, r3, lsl r8
 2c0:	000f0c00 	andeq	r0, pc, r0, lsl #24
 2c4:	00000b0b 	andeq	r0, r0, fp, lsl #22
 2c8:	0b000f0d 	bleq	3f04 <_Min_Stack_Size+0x3b04>
 2cc:	0013490b 	andseq	r4, r3, fp, lsl #18
 2d0:	00260e00 	eoreq	r0, r6, r0, lsl #28
 2d4:	00001349 	andeq	r1, r0, r9, asr #6
 2d8:	0301130f 	movweq	r1, #4879	; 0x130f
 2dc:	3a0b0b0e 	bcc	2c2f1c <_Min_Stack_Size+0x2c2b1c>
 2e0:	010b3b0b 	tsteq	fp, fp, lsl #22
 2e4:	10000013 	andne	r0, r0, r3, lsl r0
 2e8:	0803000d 	stmdaeq	r3, {r0, r2, r3}
 2ec:	0b3b0b3a 	bleq	ec2fdc <_Min_Stack_Size+0xec2bdc>
 2f0:	0b381349 	bleq	e0501c <_Min_Stack_Size+0xe04c1c>
 2f4:	13110000 	tstne	r1, #0
 2f8:	0b0e0301 	bleq	380f04 <_Min_Stack_Size+0x380b04>
 2fc:	3b0b3a05 	blcc	2ceb18 <_Min_Stack_Size+0x2ce718>
 300:	0013010b 	andseq	r0, r3, fp, lsl #2
 304:	000d1200 	andeq	r1, sp, r0, lsl #4
 308:	0b3a0e03 	bleq	e83b1c <_Min_Stack_Size+0xe8371c>
 30c:	13490b3b 	movtne	r0, #39739	; 0x9b3b
 310:	00000538 	andeq	r0, r0, r8, lsr r5
 314:	27001513 	smladcs	r0, r3, r5, r1
 318:	14000019 	strne	r0, [r0], #-25	; 0xffffffe7
 31c:	0e030113 	mcreq	1, 0, r0, cr3, cr3, {0}
 320:	0b3a0b0b 	bleq	e82f54 <_Min_Stack_Size+0xe82b54>
 324:	1301053b 	movwne	r0, #5435	; 0x153b
 328:	0d150000 	ldceq	0, cr0, [r5, #-0]
 32c:	3a0e0300 	bcc	380f34 <_Min_Stack_Size+0x380b34>
 330:	49053b0b 	stmdbmi	r5, {r0, r1, r3, r8, r9, fp, ip, sp}
 334:	000b3813 	andeq	r3, fp, r3, lsl r8
 338:	000d1600 	andeq	r1, sp, r0, lsl #12
 33c:	0b3a0803 	bleq	e82350 <_Min_Stack_Size+0xe81f50>
 340:	1349053b 	movtne	r0, #38203	; 0x953b
 344:	00000b38 	andeq	r0, r0, r8, lsr fp
 348:	27011517 	smladcs	r1, r7, r5, r1
 34c:	01134919 	tsteq	r3, r9, lsl r9
 350:	18000013 	stmdane	r0, {r0, r1, r4}
 354:	13490005 	movtne	r0, #36869	; 0x9005
 358:	13190000 	tstne	r9, #0
 35c:	3c0e0300 	stccc	3, cr0, [lr], {-0}
 360:	1a000019 	bne	3cc <_Min_Heap_Size+0x1cc>
 364:	19270115 	stmdbne	r7!, {r0, r2, r4, r8}
 368:	00001301 	andeq	r1, r0, r1, lsl #6
 36c:	0300341b 	movweq	r3, #1051	; 0x41b
 370:	3b0b3a0e 	blcc	2cebb0 <_Min_Stack_Size+0x2ce7b0>
 374:	3f134905 	svccc	0x00134905
 378:	00193c19 	andseq	r3, r9, r9, lsl ip
 37c:	00341c00 	eorseq	r1, r4, r0, lsl #24
 380:	0b3a0e03 	bleq	e83b94 <_Min_Stack_Size+0xe83794>
 384:	13490b3b 	movtne	r0, #39739	; 0x9b3b
 388:	193c193f 	ldmdbne	ip!, {r0, r1, r2, r3, r4, r5, r8, fp, ip}
 38c:	351d0000 	ldrcc	r0, [sp, #-0]
 390:	00134900 	andseq	r4, r3, r0, lsl #18
 394:	012e1e00 			; <UNDEFINED> instruction: 0x012e1e00
 398:	0e03193f 			; <UNDEFINED> instruction: 0x0e03193f
 39c:	053b0b3a 	ldreq	r0, [fp, #-2874]!	; 0xfffff4c6
 3a0:	13491927 	movtne	r1, #39207	; 0x9927
 3a4:	06120111 			; <UNDEFINED> instruction: 0x06120111
 3a8:	42971840 	addsmi	r1, r7, #64, 16	; 0x400000
 3ac:	00130119 	andseq	r0, r3, r9, lsl r1
 3b0:	00051f00 	andeq	r1, r5, r0, lsl #30
 3b4:	0b3a0e03 	bleq	e83bc8 <_Min_Stack_Size+0xe837c8>
 3b8:	1349053b 	movtne	r0, #38203	; 0x953b
 3bc:	00001802 	andeq	r1, r0, r2, lsl #16
 3c0:	03003420 	movweq	r3, #1056	; 0x420
 3c4:	3b0b3a0e 	blcc	2cec04 <_Min_Stack_Size+0x2ce804>
 3c8:	02134905 	andseq	r4, r3, #81920	; 0x14000
 3cc:	21000018 	tstcs	r0, r8, lsl r0
 3d0:	193f012e 	ldmdbne	pc!, {r1, r2, r3, r5, r8}	; <UNPREDICTABLE>
 3d4:	0b3a0e03 	bleq	e83be8 <_Min_Stack_Size+0xe837e8>
 3d8:	1927053b 	stmdbne	r7!, {r0, r1, r3, r4, r5, r8, sl}
 3dc:	06120111 			; <UNDEFINED> instruction: 0x06120111
 3e0:	42971840 	addsmi	r1, r7, #64, 16	; 0x400000
 3e4:	00130119 	andseq	r0, r3, r9, lsl r1
 3e8:	012e2200 			; <UNDEFINED> instruction: 0x012e2200
 3ec:	0e03193f 			; <UNDEFINED> instruction: 0x0e03193f
 3f0:	0b3b0b3a 	bleq	ec30e0 <_Min_Stack_Size+0xec2ce0>
 3f4:	01111927 	tsteq	r1, r7, lsr #18
 3f8:	18400612 	stmdane	r0, {r1, r4, r9, sl}^
 3fc:	01194297 			; <UNDEFINED> instruction: 0x01194297
 400:	23000013 	movwcs	r0, #19
 404:	0e030005 	cdpeq	0, 0, cr0, cr3, cr5, {0}
 408:	0b3b0b3a 	bleq	ec30f8 <_Min_Stack_Size+0xec2cf8>
 40c:	18021349 	stmdane	r2, {r0, r3, r6, r8, r9, ip}
 410:	2e240000 	cdpcs	0, 2, cr0, cr4, cr0, {0}
 414:	03193f01 	tsteq	r9, #1, 30
 418:	3b0b3a0e 	blcc	2cec58 <_Min_Stack_Size+0x2ce858>
 41c:	4919270b 	ldmdbmi	r9, {r0, r1, r3, r8, r9, sl, sp}
 420:	12011113 	andne	r1, r1, #-1073741820	; 0xc0000004
 424:	97184006 	ldrls	r4, [r8, -r6]
 428:	13011942 	movwne	r1, #6466	; 0x1942
 42c:	34250000 	strtcc	r0, [r5], #-0
 430:	3a0e0300 	bcc	381038 <_Min_Stack_Size+0x380c38>
 434:	490b3b0b 	stmdbmi	fp, {r0, r1, r3, r8, r9, fp, ip, sp}
 438:	00180213 	andseq	r0, r8, r3, lsl r2
 43c:	012e2600 			; <UNDEFINED> instruction: 0x012e2600
 440:	0e03193f 			; <UNDEFINED> instruction: 0x0e03193f
 444:	0b3b0b3a 	bleq	ec3134 <_Min_Stack_Size+0xec2d34>
 448:	01111927 	tsteq	r1, r7, lsr #18
 44c:	18400612 	stmdane	r0, {r1, r4, r9, sl}^
 450:	01194296 			; <UNDEFINED> instruction: 0x01194296
 454:	27000013 	smladcs	r0, r3, r0, r0
 458:	0e03012e 	adfeqsp	f0, f3, #0.5
 45c:	0b3b0b3a 	bleq	ec314c <_Min_Stack_Size+0xec2d4c>
 460:	13491927 	movtne	r1, #39207	; 0x9927
 464:	06120111 			; <UNDEFINED> instruction: 0x06120111
 468:	42971840 	addsmi	r1, r7, #64, 16	; 0x400000
 46c:	00000019 	andeq	r0, r0, r9, lsl r0
 470:	25011101 	strcs	r1, [r1, #-257]	; 0xfffffeff
 474:	030b130e 	movweq	r1, #45838	; 0xb30e
 478:	550e1b0e 	strpl	r1, [lr, #-2830]	; 0xfffff4f2
 47c:	10011117 	andne	r1, r1, r7, lsl r1
 480:	17429917 	smlaldne	r9, r2, r7, r9
 484:	24020000 	strcs	r0, [r2], #-0
 488:	3e0b0b00 	vmlacc.f64	d0, d11, d0
 48c:	000e030b 	andeq	r0, lr, fp, lsl #6
 490:	00240300 	eoreq	r0, r4, r0, lsl #6
 494:	0b3e0b0b 	bleq	f830c8 <_Min_Stack_Size+0xf82cc8>
 498:	00000803 	andeq	r0, r0, r3, lsl #16
 49c:	03001604 	movweq	r1, #1540	; 0x604
 4a0:	3b0b3a0e 	blcc	2cece0 <_Min_Stack_Size+0x2ce8e0>
 4a4:	0013490b 	andseq	r4, r3, fp, lsl #18
 4a8:	00160500 	andseq	r0, r6, r0, lsl #10
 4ac:	0b3a0e03 	bleq	e83cc0 <_Min_Stack_Size+0xe838c0>
 4b0:	1349053b 	movtne	r0, #38203	; 0x953b
 4b4:	17060000 	strne	r0, [r6, -r0]
 4b8:	3a0b0b01 	bcc	2c30c4 <_Min_Stack_Size+0x2c2cc4>
 4bc:	010b3b0b 	tsteq	fp, fp, lsl #22
 4c0:	07000013 	smladeq	r0, r3, r0, r0
 4c4:	0e03000d 	cdpeq	0, 0, cr0, cr3, cr13, {0}
 4c8:	0b3b0b3a 	bleq	ec31b8 <_Min_Stack_Size+0xec2db8>
 4cc:	00001349 	andeq	r1, r0, r9, asr #6
 4d0:	49010108 	stmdbmi	r1, {r3, r8}
 4d4:	00130113 	andseq	r0, r3, r3, lsl r1
 4d8:	00210900 	eoreq	r0, r1, r0, lsl #18
 4dc:	0b2f1349 	bleq	bc5208 <_Min_Stack_Size+0xbc4e08>
 4e0:	130a0000 	movwne	r0, #40960	; 0xa000
 4e4:	3a0b0b01 	bcc	2c30f0 <_Min_Stack_Size+0x2c2cf0>
 4e8:	010b3b0b 	tsteq	fp, fp, lsl #22
 4ec:	0b000013 	bleq	540 <_Min_Stack_Size+0x140>
 4f0:	0e03000d 	cdpeq	0, 0, cr0, cr3, cr13, {0}
 4f4:	0b3b0b3a 	bleq	ec31e4 <_Min_Stack_Size+0xec2de4>
 4f8:	0b381349 	bleq	e05224 <_Min_Stack_Size+0xe04e24>
 4fc:	0f0c0000 	svceq	0x000c0000
 500:	000b0b00 	andeq	r0, fp, r0, lsl #22
 504:	000f0d00 	andeq	r0, pc, r0, lsl #26
 508:	13490b0b 	movtne	r0, #39691	; 0x9b0b
 50c:	260e0000 	strcs	r0, [lr], -r0
 510:	00134900 	andseq	r4, r3, r0, lsl #18
 514:	01130f00 	tsteq	r3, r0, lsl #30
 518:	0b0b0e03 	bleq	2c3d2c <_Min_Stack_Size+0x2c392c>
 51c:	0b3b0b3a 	bleq	ec320c <_Min_Stack_Size+0xec2e0c>
 520:	00001301 	andeq	r1, r0, r1, lsl #6
 524:	03000d10 	movweq	r0, #3344	; 0xd10
 528:	3b0b3a08 	blcc	2ced50 <_Min_Stack_Size+0x2ce950>
 52c:	3813490b 	ldmdacc	r3, {r0, r1, r3, r8, fp, lr}
 530:	1100000b 	tstne	r0, fp
 534:	0e030113 	mcreq	1, 0, r0, cr3, cr3, {0}
 538:	0b3a050b 	bleq	e8196c <_Min_Stack_Size+0xe8156c>
 53c:	13010b3b 	movwne	r0, #6971	; 0x1b3b
 540:	0d120000 	ldceq	0, cr0, [r2, #-0]
 544:	3a0e0300 	bcc	38114c <_Min_Stack_Size+0x380d4c>
 548:	490b3b0b 	stmdbmi	fp, {r0, r1, r3, r8, r9, fp, ip, sp}
 54c:	00053813 	andeq	r3, r5, r3, lsl r8
 550:	00151300 	andseq	r1, r5, r0, lsl #6
 554:	00001927 	andeq	r1, r0, r7, lsr #18
 558:	03011314 	movweq	r1, #4884	; 0x1314
 55c:	3a0b0b0e 	bcc	2c319c <_Min_Stack_Size+0x2c2d9c>
 560:	01053b0b 	tsteq	r5, fp, lsl #22
 564:	15000013 	strne	r0, [r0, #-19]	; 0xffffffed
 568:	0e03000d 	cdpeq	0, 0, cr0, cr3, cr13, {0}
 56c:	053b0b3a 	ldreq	r0, [fp, #-2874]!	; 0xfffff4c6
 570:	0b381349 	bleq	e0529c <_Min_Stack_Size+0xe04e9c>
 574:	0d160000 	ldceq	0, cr0, [r6, #-0]
 578:	3a080300 	bcc	201180 <_Min_Stack_Size+0x200d80>
 57c:	49053b0b 	stmdbmi	r5, {r0, r1, r3, r8, r9, fp, ip, sp}
 580:	000b3813 	andeq	r3, fp, r3, lsl r8
 584:	01151700 	tsteq	r5, r0, lsl #14
 588:	13491927 	movtne	r1, #39207	; 0x9927
 58c:	00001301 	andeq	r1, r0, r1, lsl #6
 590:	49000518 	stmdbmi	r0, {r3, r4, r8, sl}
 594:	19000013 	stmdbne	r0, {r0, r1, r4}
 598:	0e030013 	mcreq	0, 0, r0, cr3, cr3, {0}
 59c:	0000193c 	andeq	r1, r0, ip, lsr r9
 5a0:	2701151a 	smladcs	r1, sl, r5, r1
 5a4:	00130119 	andseq	r0, r3, r9, lsl r1
 5a8:	00341b00 	eorseq	r1, r4, r0, lsl #22
 5ac:	0b3a0e03 	bleq	e83dc0 <_Min_Stack_Size+0xe839c0>
 5b0:	1349053b 	movtne	r0, #38203	; 0x953b
 5b4:	193c193f 	ldmdbne	ip!, {r0, r1, r2, r3, r4, r5, r8, fp, ip}
 5b8:	341c0000 	ldrcc	r0, [ip], #-0
 5bc:	3a0e0300 	bcc	3811c4 <_Min_Stack_Size+0x380dc4>
 5c0:	490b3b0b 	stmdbmi	fp, {r0, r1, r3, r8, r9, fp, ip, sp}
 5c4:	3c193f13 	ldccc	15, cr3, [r9], {19}
 5c8:	1d000019 	stcne	0, cr0, [r0, #-100]	; 0xffffff9c
 5cc:	13490035 	movtne	r0, #36917	; 0x9035
 5d0:	341e0000 	ldrcc	r0, [lr], #-0
 5d4:	3a0e0300 	bcc	3811dc <_Min_Stack_Size+0x380ddc>
 5d8:	490b3b0b 	stmdbmi	fp, {r0, r1, r3, r8, r9, fp, ip, sp}
 5dc:	02193f13 	andseq	r3, r9, #19, 30	; 0x4c
 5e0:	1f000018 	svcne	0x00000018
 5e4:	0e030104 	adfeqs	f0, f3, f4
 5e8:	0b0b0b3e 	bleq	2c32e8 <_Min_Stack_Size+0x2c2ee8>
 5ec:	0b3a1349 	bleq	e85318 <_Min_Stack_Size+0xe84f18>
 5f0:	13010b3b 	movwne	r0, #6971	; 0x1b3b
 5f4:	28200000 	stmdacs	r0!, {}	; <UNPREDICTABLE>
 5f8:	1c0e0300 	stcne	3, cr0, [lr], {-0}
 5fc:	2100000b 	tstcs	r0, fp
 600:	193f012e 	ldmdbne	pc!, {r1, r2, r3, r5, r8}	; <UNPREDICTABLE>
 604:	0b3a0e03 	bleq	e83e18 <_Min_Stack_Size+0xe83a18>
 608:	19270b3b 	stmdbne	r7!, {r0, r1, r3, r4, r5, r8, r9, fp}
 60c:	01111349 	tsteq	r1, r9, asr #6
 610:	18400612 	stmdane	r0, {r1, r4, r9, sl}^
 614:	01194296 			; <UNDEFINED> instruction: 0x01194296
 618:	22000013 	andcs	r0, r0, #19
 61c:	0e030034 	mcreq	0, 0, r0, cr3, cr4, {1}
 620:	0b3b0b3a 	bleq	ec3310 <_Min_Stack_Size+0xec2f10>
 624:	18021349 	stmdane	r2, {r0, r3, r6, r8, r9, ip}
 628:	2e230000 	cdpcs	0, 2, cr0, cr3, cr0, {0}
 62c:	03193f00 	tsteq	r9, #0, 30
 630:	3b0b3a0e 	blcc	2cee70 <_Min_Stack_Size+0x2cea70>
 634:	1119270b 	tstne	r9, fp, lsl #14
 638:	40061201 	andmi	r1, r6, r1, lsl #4
 63c:	19429618 	stmdbne	r2, {r3, r4, r9, sl, ip, pc}^
 640:	2e240000 	cdpcs	0, 2, cr0, cr4, cr0, {0}
 644:	03193f00 	tsteq	r9, #0, 30
 648:	3b0b3a0e 	blcc	2cee88 <_Min_Stack_Size+0x2cea88>
 64c:	1201110b 	andne	r1, r1, #-1073741822	; 0xc0000002
 650:	97184006 	ldrls	r4, [r8, -r6]
 654:	00001942 	andeq	r1, r0, r2, asr #18
 658:	3f012e25 	svccc	0x00012e25
 65c:	3a0e0319 	bcc	3812c8 <_Min_Stack_Size+0x380ec8>
 660:	270b3b0b 	strcs	r3, [fp, -fp, lsl #22]
 664:	12011119 	andne	r1, r1, #1073741830	; 0x40000006
 668:	97184006 	ldrls	r4, [r8, -r6]
 66c:	00001942 	andeq	r1, r0, r2, asr #18
 670:	03000526 	movweq	r0, #1318	; 0x526
 674:	3b0b3a0e 	blcc	2ceeb4 <_Min_Stack_Size+0x2ceab4>
 678:	0213490b 	andseq	r4, r3, #180224	; 0x2c000
 67c:	00000018 	andeq	r0, r0, r8, lsl r0
 680:	10001101 	andne	r1, r0, r1, lsl #2
 684:	03065506 	movweq	r5, #25862	; 0x6506
 688:	250e1b0e 	strcs	r1, [lr, #-2830]	; 0xfffff4f2
 68c:	0005130e 	andeq	r1, r5, lr, lsl #6
	...

Disassembly of section .debug_aranges:

00000000 <.debug_aranges>:
   0:	0000007c 	andeq	r0, r0, ip, ror r0
   4:	00000002 	andeq	r0, r0, r2
   8:	00040000 	andeq	r0, r4, r0
   c:	00000000 	andeq	r0, r0, r0
  10:	08000170 	stmdaeq	r0, {r4, r5, r6, r8}
  14:	000000cc 	andeq	r0, r0, ip, asr #1
  18:	0800023c 	stmdaeq	r0, {r2, r3, r4, r5, r9}
  1c:	000000cc 	andeq	r0, r0, ip, asr #1
  20:	08000308 	stmdaeq	r0, {r3, r8, r9}
  24:	000001dc 	ldrdeq	r0, [r0], -ip
  28:	00000000 	andeq	r0, r0, r0
  2c:	00000094 	muleq	r0, r4, r0
  30:	080004e4 	stmdaeq	r0, {r2, r5, r6, r7, sl}
  34:	00000016 	andeq	r0, r0, r6, lsl r0
  38:	00000000 	andeq	r0, r0, r0
  3c:	00000016 	andeq	r0, r0, r6, lsl r0
  40:	080004fc 	stmdaeq	r0, {r2, r3, r4, r5, r6, r7, sl}
  44:	00000024 	andeq	r0, r0, r4, lsr #32
  48:	08000520 	stmdaeq	r0, {r5, r8, sl}
  4c:	00000024 	andeq	r0, r0, r4, lsr #32
  50:	08000544 	stmdaeq	r0, {r2, r6, r8, sl}
  54:	00000024 	andeq	r0, r0, r4, lsr #32
  58:	08000568 	stmdaeq	r0, {r3, r5, r6, r8, sl}
  5c:	00000024 	andeq	r0, r0, r4, lsr #32
  60:	0800058c 	stmdaeq	r0, {r2, r3, r7, r8, sl}
  64:	00000024 	andeq	r0, r0, r4, lsr #32
  68:	080005b0 	stmdaeq	r0, {r4, r5, r7, r8, sl}
  6c:	000000bc 	strheq	r0, [r0], -ip
  70:	0800066c 	stmdaeq	r0, {r2, r3, r5, r6, r9, sl}
  74:	000000dc 	ldrdeq	r0, [r0], -ip
	...
  80:	0000005c 	andeq	r0, r0, ip, asr r0
  84:	0c580002 	mrrceq	0, 0, r0, r8, cr2
  88:	00040000 	andeq	r0, r4, r0
  8c:	00000000 	andeq	r0, r0, r0
  90:	08000748 	stmdaeq	r0, {r3, r6, r8, r9, sl}
  94:	000000c6 	andeq	r0, r0, r6, asr #1
  98:	0800080e 	stmdaeq	r0, {r1, r2, r3, fp}
  9c:	000000fe 	strdeq	r0, [r0], -lr
  a0:	00000000 	andeq	r0, r0, r0
  a4:	000000ac 	andeq	r0, r0, ip, lsr #1
  a8:	00000000 	andeq	r0, r0, r0
  ac:	0000002e 	andeq	r0, r0, lr, lsr #32
  b0:	00000000 	andeq	r0, r0, r0
  b4:	0000001a 	andeq	r0, r0, sl, lsl r0
  b8:	00000000 	andeq	r0, r0, r0
  bc:	0000003c 	andeq	r0, r0, ip, lsr r0
  c0:	00000000 	andeq	r0, r0, r0
  c4:	0000001c 	andeq	r0, r0, ip, lsl r0
  c8:	00000000 	andeq	r0, r0, r0
  cc:	00000022 	andeq	r0, r0, r2, lsr #32
  d0:	00000000 	andeq	r0, r0, r0
  d4:	0000005e 	andeq	r0, r0, lr, asr r0
	...
  e0:	00000034 	andeq	r0, r0, r4, lsr r0
  e4:	18720002 	ldmdane	r2!, {r1}^
  e8:	00040000 	andeq	r0, r4, r0
  ec:	00000000 	andeq	r0, r0, r0
  f0:	0800090c 	stmdaeq	r0, {r2, r3, r8, fp}
  f4:	00000040 	andeq	r0, r0, r0, asr #32
  f8:	0800094c 	stmdaeq	r0, {r2, r3, r6, r8, fp}
  fc:	00000028 	andeq	r0, r0, r8, lsr #32
 100:	08000974 	stmdaeq	r0, {r2, r4, r5, r6, r8, fp}
 104:	00000018 	andeq	r0, r0, r8, lsl r0
 108:	0800098c 	stmdaeq	r0, {r2, r3, r7, r8, fp}
 10c:	00000050 	andeq	r0, r0, r0, asr r0
	...
 118:	00000024 	andeq	r0, r0, r4, lsr #32
 11c:	23670002 	cmncs	r7, #2
 120:	00040000 	andeq	r0, r4, r0
 124:	00000000 	andeq	r0, r0, r0
 128:	080009dc 	stmdaeq	r0, {r2, r3, r4, r6, r7, r8, fp}
 12c:	00000050 	andeq	r0, r0, r0, asr r0
 130:	08000a2c 	stmdaeq	r0, {r2, r3, r5, r9, fp}
 134:	00000002 	andeq	r0, r0, r2
	...

Disassembly of section .debug_ranges:

00000000 <.debug_ranges>:
   0:	08000170 	stmdaeq	r0, {r4, r5, r6, r8}
   4:	0800023c 	stmdaeq	r0, {r2, r3, r4, r5, r9}
   8:	0800023c 	stmdaeq	r0, {r2, r3, r4, r5, r9}
   c:	08000308 	stmdaeq	r0, {r3, r8, r9}
  10:	08000308 	stmdaeq	r0, {r3, r8, r9}
  14:	080004e4 	stmdaeq	r0, {r2, r5, r6, r7, sl}
  18:	00000001 	andeq	r0, r0, r1
  1c:	00000001 	andeq	r0, r0, r1
  20:	080004e4 	stmdaeq	r0, {r2, r5, r6, r7, sl}
  24:	080004fa 	stmdaeq	r0, {r1, r3, r4, r5, r6, r7, sl}
  28:	00000001 	andeq	r0, r0, r1
  2c:	00000001 	andeq	r0, r0, r1
  30:	080004fc 	stmdaeq	r0, {r2, r3, r4, r5, r6, r7, sl}
  34:	08000520 	stmdaeq	r0, {r5, r8, sl}
  38:	08000520 	stmdaeq	r0, {r5, r8, sl}
  3c:	08000544 	stmdaeq	r0, {r2, r6, r8, sl}
  40:	08000544 	stmdaeq	r0, {r2, r6, r8, sl}
  44:	08000568 	stmdaeq	r0, {r3, r5, r6, r8, sl}
  48:	08000568 	stmdaeq	r0, {r3, r5, r6, r8, sl}
  4c:	0800058c 	stmdaeq	r0, {r2, r3, r7, r8, sl}
  50:	0800058c 	stmdaeq	r0, {r2, r3, r7, r8, sl}
  54:	080005b0 	stmdaeq	r0, {r4, r5, r7, r8, sl}
  58:	080005b0 	stmdaeq	r0, {r4, r5, r7, r8, sl}
  5c:	0800066c 	stmdaeq	r0, {r2, r3, r5, r6, r9, sl}
  60:	0800066c 	stmdaeq	r0, {r2, r3, r5, r6, r9, sl}
  64:	08000748 	stmdaeq	r0, {r3, r6, r8, r9, sl}
	...
  70:	08000748 	stmdaeq	r0, {r3, r6, r8, r9, sl}
  74:	0800080e 	stmdaeq	r0, {r1, r2, r3, fp}
  78:	0800080e 	stmdaeq	r0, {r1, r2, r3, fp}
  7c:	0800090c 	stmdaeq	r0, {r2, r3, r8, fp}
  80:	00000001 	andeq	r0, r0, r1
  84:	00000001 	andeq	r0, r0, r1
  88:	00000001 	andeq	r0, r0, r1
  8c:	00000001 	andeq	r0, r0, r1
  90:	00000001 	andeq	r0, r0, r1
  94:	00000001 	andeq	r0, r0, r1
  98:	00000001 	andeq	r0, r0, r1
  9c:	00000001 	andeq	r0, r0, r1
  a0:	00000001 	andeq	r0, r0, r1
  a4:	00000001 	andeq	r0, r0, r1
  a8:	00000001 	andeq	r0, r0, r1
  ac:	00000001 	andeq	r0, r0, r1
  b0:	00000001 	andeq	r0, r0, r1
  b4:	00000001 	andeq	r0, r0, r1
	...
  c0:	0800090c 	stmdaeq	r0, {r2, r3, r8, fp}
  c4:	0800094c 	stmdaeq	r0, {r2, r3, r6, r8, fp}
  c8:	0800094c 	stmdaeq	r0, {r2, r3, r6, r8, fp}
  cc:	08000974 	stmdaeq	r0, {r2, r4, r5, r6, r8, fp}
  d0:	08000974 	stmdaeq	r0, {r2, r4, r5, r6, r8, fp}
  d4:	0800098c 	stmdaeq	r0, {r2, r3, r7, r8, fp}
  d8:	0800098c 	stmdaeq	r0, {r2, r3, r7, r8, fp}
  dc:	080009dc 	stmdaeq	r0, {r2, r3, r4, r6, r7, r8, fp}
	...
  e8:	ffffffff 			; <UNDEFINED> instruction: 0xffffffff
  ec:	00000000 	andeq	r0, r0, r0
  f0:	080009dc 	stmdaeq	r0, {r2, r3, r4, r6, r7, r8, fp}
  f4:	08000a2c 	stmdaeq	r0, {r2, r3, r5, r9, fp}
  f8:	08000a2c 	stmdaeq	r0, {r2, r3, r5, r9, fp}
  fc:	08000a2e 	stmdaeq	r0, {r1, r2, r3, r5, r9, fp}
	...

Disassembly of section .debug_macro:

00000000 <.debug_macro>:
       0:	00020004 	andeq	r0, r2, r4
       4:	07000000 	streq	r0, [r0, -r0]
       8:	00000152 	andeq	r0, r0, r2, asr r1
       c:	03010003 	movweq	r0, #4099	; 0x1003
      10:	09050b08 	stmdbeq	r5, {r3, r8, r9, fp}
      14:	00002a00 	andeq	r2, r0, r0, lsl #20
      18:	05090d03 	streq	r0, [r9, #-3331]	; 0xfffff2fd
      1c:	002f8209 	eoreq	r8, pc, r9, lsl #4
      20:	070e0300 	streq	r0, [lr, -r0, lsl #6]
      24:	762b0805 	strtvc	r0, [fp], -r5, lsl #16
      28:	0a030000 	beq	c0030 <_Min_Stack_Size+0xbfc30>
      2c:	0bb2070c 	bleq	fec81c64 <_estack+0xdec7f464>
      30:	03040000 	movweq	r0, #16384	; 0x4000
      34:	08050d0b 	stmdaeq	r5, {r0, r1, r3, r8, sl, fp}
      38:	000056d7 	ldrdeq	r5, [r0], -r7
      3c:	050e0a03 	streq	r0, [lr, #-2563]	; 0xfffff5fd
      40:	00132808 	andseq	r2, r3, r8, lsl #16
      44:	0f0e0300 	svceq	0x000e0300
      48:	000bca07 	andeq	ip, fp, r7, lsl #20
      4c:	ec070400 	cfstrs	mvf0, [r7], {-0}
      50:	0400000b 	streq	r0, [r0], #-11
      54:	05100b03 	ldreq	r0, [r0, #-2819]	; 0xfffff4fd
      58:	00810c02 	addeq	r0, r1, r2, lsl #24
      5c:	0c040300 	stceq	3, cr0, [r4], {-0}
      60:	11050304 	tstne	r5, r4, lsl #6
      64:	000c2c07 	andeq	r2, ip, r7, lsl #24
      68:	c0070400 	andgt	r0, r7, r0, lsl #8
      6c:	0400000c 	streq	r0, [r0], #-12
      70:	000cfc07 	andeq	pc, ip, r7, lsl #24
      74:	30070400 	andcc	r0, r7, r0, lsl #8
      78:	0300000d 	movweq	r0, #13
      7c:	46070510 			; <UNDEFINED> instruction: 0x46070510
      80:	0400000d 	streq	r0, [r0], #-13
      84:	05061203 	streq	r1, [r6, #-515]	; 0xfffffdfd
      88:	005a4d0b 	subseq	r4, sl, fp, lsl #26
      8c:	0d0d0300 	stceq	3, cr0, [sp, #-0]
      90:	050e0304 	streq	r0, [lr, #-772]	; 0xfffffcfc
      94:	000e5407 	andeq	r5, lr, r7, lsl #8
      98:	0f030400 	svceq	0x00030400
      9c:	e5140504 	ldr	r0, [r4, #-1284]	; 0xfffffafc
      a0:	03000085 	movweq	r0, #133	; 0x85
      a4:	06051218 			; <UNDEFINED> instruction: 0x06051218
      a8:	000076cb 	andeq	r7, r0, fp, asr #13
      ac:	07020703 	streq	r0, [r2, -r3, lsl #14]
      b0:	00000ee1 	andeq	r0, r0, r1, ror #29
      b4:	19030404 	stmdbne	r3, {r2, sl}
      b8:	0f380703 	svceq	0x00380703
      bc:	07040000 	streq	r0, [r4, -r0]
      c0:	00000f8a 	andeq	r0, r0, sl, lsl #31
      c4:	05019f03 	streq	r9, [r1, #-3843]	; 0xfffff0fd
      c8:	000fa907 	andeq	sl, pc, r7, lsl #18
      cc:	ec070400 	cfstrs	mvf0, [r7], {-0}
      d0:	0400000f 	streq	r0, [r0], #-15
      d4:	00100c07 	andseq	r0, r0, r7, lsl #24
      d8:	13030400 	movwne	r0, #13312	; 0x3400
      dc:	28290513 	stmdacs	r9!, {r0, r1, r4, r8, sl}
      e0:	0300008d 	movweq	r0, #141	; 0x8d
      e4:	0704052d 	streq	r0, [r4, -sp, lsr #10]
      e8:	000011af 	andeq	r1, r0, pc, lsr #3
      ec:	14140304 	ldrne	r0, [r4], #-772	; 0xfffffcfc
      f0:	24e30205 	strbtcs	r0, [r3], #517	; 0x205
      f4:	03040000 	movweq	r0, #16384	; 0x4000
      f8:	df071516 	svcle	0x00071516
      fc:	04000014 	streq	r0, [r0], #-20	; 0xffffffec
     100:	0014f507 	andseq	pc, r4, r7, lsl #10
     104:	0f030400 	svceq	0x00030400
     108:	17090316 	smladne	r9, r6, r3, r0
     10c:	07380a05 	ldreq	r0, [r8, -r5, lsl #20]!
     110:	0d030000 	stceq	0, cr0, [r3, #-0]
     114:	151e0718 	ldrne	r0, [lr, #-1816]	; 0xfffff8e8
     118:	03040000 	movweq	r0, #16384	; 0x4000
     11c:	0d07080e 	stceq	8, cr0, [r7, #-56]	; 0xffffffc8
     120:	04000016 	streq	r0, [r0], #-22	; 0xffffffea
     124:	00167707 	andseq	r7, r6, r7, lsl #14
     128:	0d050400 	cfstrseq	mvf0, [r5, #-0]
     12c:	0000072f 	andeq	r0, r0, pc, lsr #14
     130:	18560704 	ldmdane	r6, {r2, r8, r9, sl}^
     134:	03040000 	movweq	r0, #16384	; 0x4000
     138:	8f070a0e 	svchi	0x00070a0e
     13c:	0400001a 	streq	r0, [r0], #-26	; 0xffffffe6
     140:	001b5f07 	andseq	r5, fp, r7, lsl #30
     144:	09030400 	stmdbeq	r3, {sl}
     148:	1b05040a 	blne	141178 <_Min_Stack_Size+0x140d78>
     14c:	00001f06 	andeq	r1, r0, r6, lsl #30
     150:	00040004 	andeq	r0, r4, r4
     154:	b2000500 	andlt	r0, r0, #0, 10
     158:	05000084 	streq	r0, [r0, #-132]	; 0xffffff7c
     15c:	003d5400 	eorseq	r5, sp, r0, lsl #8
     160:	b5000500 	strlt	r0, [r0, #-1280]	; 0xfffffb00
     164:	0500005a 	streq	r0, [r0, #-90]	; 0xffffffa6
     168:	00233f00 	eoreq	r3, r3, r0, lsl #30
     16c:	b9000500 	stmdblt	r0, {r8, sl}
     170:	0500000c 	streq	r0, [r0, #-12]
     174:	00433200 	subeq	r3, r3, r0, lsl #4
     178:	33000500 	movwcc	r0, #1280	; 0x500
     17c:	05000074 	streq	r0, [r0, #-116]	; 0xffffff8c
     180:	00215300 	eoreq	r5, r1, r0, lsl #6
     184:	fb000500 	blx	158e <_Min_Stack_Size+0x118e>
     188:	05000046 	streq	r0, [r0, #-70]	; 0xffffffba
     18c:	007d0800 	rsbseq	r0, sp, r0, lsl #16
     190:	6a000500 	bvs	1598 <_Min_Stack_Size+0x1198>
     194:	05000024 	streq	r0, [r0, #-36]	; 0xffffffdc
     198:	003e9200 	eorseq	r9, lr, r0, lsl #4
     19c:	55000500 	strpl	r0, [r0, #-1280]	; 0xfffffb00
     1a0:	05000049 	streq	r0, [r0, #-73]	; 0xffffffb7
     1a4:	00900100 	addseq	r0, r0, r0, lsl #2
     1a8:	cb000500 	blgt	15b0 <_Min_Stack_Size+0x11b0>
     1ac:	05000004 	streq	r0, [r0, #-4]
     1b0:	004af800 	subeq	pc, sl, r0, lsl #16
     1b4:	bc000500 	cfstr32lt	mvfx0, [r0], {-0}
     1b8:	05000087 	streq	r0, [r0, #-135]	; 0xffffff79
     1bc:	0022b700 	eoreq	fp, r2, r0, lsl #14
     1c0:	72000500 	andvc	r0, r0, #0, 10
     1c4:	05000005 	streq	r0, [r0, #-5]
     1c8:	00268a00 	eoreq	r8, r6, r0, lsl #20
     1cc:	51000500 	tstpl	r0, r0, lsl #10
     1d0:	05000023 	streq	r0, [r0, #-35]	; 0xffffffdd
     1d4:	001c0e00 	andseq	r0, ip, r0, lsl #28
     1d8:	a3000500 	movwge	r0, #1280	; 0x500
     1dc:	05000027 	streq	r0, [r0, #-39]	; 0xffffffd9
     1e0:	00796c00 	rsbseq	r6, r9, r0, lsl #24
     1e4:	72000500 	andvc	r0, r0, #0, 10
     1e8:	05000054 	streq	r0, [r0, #-84]	; 0xffffffac
     1ec:	0062f600 	rsbeq	pc, r2, r0, lsl #12
     1f0:	7f000500 	svcvc	0x00000500
     1f4:	05000069 	streq	r0, [r0, #-105]	; 0xffffff97
     1f8:	0010db00 	andseq	sp, r0, r0, lsl #22
     1fc:	69000500 	stmdbvs	r0, {r8, sl}
     200:	0500005e 	streq	r0, [r0, #-94]	; 0xffffffa2
     204:	00564d00 	subseq	r4, r6, r0, lsl #26
     208:	cf000500 	svcgt	0x00000500
     20c:	0500005c 	streq	r0, [r0, #-92]	; 0xffffffa4
     210:	0018ae00 	andseq	sl, r8, r0, lsl #28
     214:	fe000500 	cdp2	5, 0, cr0, cr0, cr0, {0}
     218:	05000006 	streq	r0, [r0, #-6]
     21c:	00308900 	eorseq	r8, r0, r0, lsl #18
     220:	d8000500 	stmdale	r0, {r8, sl}
     224:	05000027 	streq	r0, [r0, #-39]	; 0xffffffd9
     228:	000d1100 	andeq	r1, sp, r0, lsl #2
     22c:	de000500 	cfsh32le	mvfx0, mvfx0, #0
     230:	05000074 	streq	r0, [r0, #-116]	; 0xffffff8c
     234:	0059ee00 	subseq	lr, r9, r0, lsl #28
     238:	34000500 	strcc	r0, [r0], #-1280	; 0xfffffb00
     23c:	0500006d 	streq	r0, [r0, #-109]	; 0xffffff93
     240:	001a9800 	andseq	r9, sl, r0, lsl #16
     244:	d0000500 	andle	r0, r0, r0, lsl #10
     248:	05000023 	streq	r0, [r0, #-35]	; 0xffffffdd
     24c:	00075800 	andeq	r5, r7, r0, lsl #16
     250:	50000500 	andpl	r0, r0, r0, lsl #10
     254:	0500000a 	streq	r0, [r0, #-10]
     258:	006fe200 	rsbeq	lr, pc, r0, lsl #4
     25c:	42000500 	andmi	r0, r0, #0, 10
     260:	05000054 	streq	r0, [r0, #-84]	; 0xffffffac
     264:	00316c00 	eorseq	r6, r1, r0, lsl #24
     268:	54000500 	strpl	r0, [r0], #-1280	; 0xfffffb00
     26c:	05000043 	streq	r0, [r0, #-67]	; 0xffffffbd
     270:	00867b00 	addeq	r7, r6, r0, lsl #22
     274:	dd000500 	cfstr32le	mvfx0, [r0, #-0]
     278:	05000079 	streq	r0, [r0, #-121]	; 0xffffff87
     27c:	0018c300 	andseq	ip, r8, r0, lsl #6
     280:	7e000500 	cfsh32vc	mvfx0, mvfx0, #0
     284:	0500008a 	streq	r0, [r0, #-138]	; 0xffffff76
     288:	00684100 	rsbeq	r4, r8, r0, lsl #2
     28c:	c5000500 	strgt	r0, [r0, #-1280]	; 0xfffffb00
     290:	05000092 	streq	r0, [r0, #-146]	; 0xffffff6e
     294:	00163600 	andseq	r3, r6, r0, lsl #12
     298:	d1000500 	tstle	r0, r0, lsl #10
     29c:	0500006c 	streq	r0, [r0, #-108]	; 0xffffff94
     2a0:	00746e00 	rsbseq	r6, r4, r0, lsl #28
     2a4:	f5000500 			; <UNDEFINED> instruction: 0xf5000500
     2a8:	05000047 	streq	r0, [r0, #-71]	; 0xffffffb9
     2ac:	00182c00 	andseq	r2, r8, r0, lsl #24
     2b0:	7a000500 	bvc	16b8 <_Min_Stack_Size+0x12b8>
     2b4:	0500006c 	streq	r0, [r0, #-108]	; 0xffffff94
     2b8:	00581500 	subseq	r1, r8, r0, lsl #10
     2bc:	ef000500 	svc	0x00000500
     2c0:	0500000c 	streq	r0, [r0, #-12]
     2c4:	00451000 	subeq	r1, r5, r0
     2c8:	d3000500 	movwle	r0, #1280	; 0x500
     2cc:	05000088 	streq	r0, [r0, #-136]	; 0xffffff78
     2d0:	00230c00 	eoreq	r0, r3, r0, lsl #24
     2d4:	fa000500 	blx	16dc <_Min_Stack_Size+0x12dc>
     2d8:	05000028 	streq	r0, [r0, #-40]	; 0xffffffd8
     2dc:	00781000 	rsbseq	r1, r8, r0
     2e0:	31000500 	tstcc	r0, r0, lsl #10
     2e4:	05000078 	streq	r0, [r0, #-120]	; 0xffffff88
     2e8:	003fb400 	eorseq	fp, pc, r0, lsl #8
     2ec:	c3000500 	movwgt	r0, #1280	; 0x500
     2f0:	0500002e 	streq	r0, [r0, #-46]	; 0xffffffd2
     2f4:	002d9800 	eoreq	r9, sp, r0, lsl #16
     2f8:	8b000500 	blhi	1700 <_Min_Stack_Size+0x1300>
     2fc:	0500005a 	streq	r0, [r0, #-90]	; 0xffffffa6
     300:	006adf00 	rsbeq	sp, sl, r0, lsl #30
     304:	63000500 	movwvs	r0, #1280	; 0x500
     308:	0500004f 	streq	r0, [r0, #-79]	; 0xffffffb1
     30c:	008cf500 	addeq	pc, ip, r0, lsl #10
     310:	fe000500 	cdp2	5, 0, cr0, cr0, cr0, {0}
     314:	05000063 	streq	r0, [r0, #-99]	; 0xffffff9d
     318:	0004f200 	andeq	pc, r4, r0, lsl #4
     31c:	6a000500 	bvs	1724 <_Min_Stack_Size+0x1324>
     320:	0500004e 	streq	r0, [r0, #-78]	; 0xffffffb2
     324:	008a1600 	addeq	r1, sl, r0, lsl #12
     328:	ca000500 	bgt	1730 <_Min_Stack_Size+0x1330>
     32c:	05000089 	streq	r0, [r0, #-137]	; 0xffffff77
     330:	0002b300 	andeq	fp, r2, r0, lsl #6
     334:	79000500 	stmdbvc	r0, {r8, sl}
     338:	05000073 	streq	r0, [r0, #-115]	; 0xffffff8d
     33c:	00444100 	subeq	r4, r4, r0, lsl #2
     340:	57000500 	strpl	r0, [r0, -r0, lsl #10]
     344:	0500005e 	streq	r0, [r0, #-94]	; 0xffffffa2
     348:	0033df00 	eorseq	sp, r3, r0, lsl #30
     34c:	1f000500 	svcne	0x00000500
     350:	0500004d 	streq	r0, [r0, #-77]	; 0xffffffb3
     354:	00513800 	subseq	r3, r1, r0, lsl #16
     358:	88000500 	stmdahi	r0, {r8, sl}
     35c:	0500008e 	streq	r0, [r0, #-142]	; 0xffffff72
     360:	00543000 	subseq	r3, r4, r0
     364:	29000500 	stmdbcs	r0, {r8, sl}
     368:	05000012 	streq	r0, [r0, #-18]	; 0xffffffee
     36c:	00898c00 	addeq	r8, r9, r0, lsl #24
     370:	17000500 	strne	r0, [r0, -r0, lsl #10]
     374:	05000003 	streq	r0, [r0, #-3]
     378:	0002f400 	andeq	pc, r2, r0, lsl #8
     37c:	1f000500 	svcne	0x00000500
     380:	05000092 	streq	r0, [r0, #-146]	; 0xffffff6e
     384:	00189600 	andseq	r9, r8, r0, lsl #12
     388:	83000500 	movwhi	r0, #1280	; 0x500
     38c:	05000006 	streq	r0, [r0, #-6]
     390:	007e1e00 	rsbseq	r1, lr, r0, lsl #28
     394:	79000500 	stmdbvc	r0, {r8, sl}
     398:	05000034 	streq	r0, [r0, #-52]	; 0xffffffcc
     39c:	0082c600 	addeq	ip, r2, r0, lsl #12
     3a0:	c3000500 	movwgt	r0, #1280	; 0x500
     3a4:	05000041 	streq	r0, [r0, #-65]	; 0xffffffbf
     3a8:	0080f700 	addeq	pc, r0, r0, lsl #14
     3ac:	bc000500 	cfstr32lt	mvfx0, [r0], {-0}
     3b0:	05000045 	streq	r0, [r0, #-69]	; 0xffffffbb
     3b4:	004b5600 	subeq	r5, fp, r0, lsl #12
     3b8:	b4000500 	strlt	r0, [r0], #-1280	; 0xfffffb00
     3bc:	0500002c 	streq	r0, [r0, #-44]	; 0xffffffd4
     3c0:	0025b000 	eoreq	fp, r5, r0
     3c4:	c2000500 	andgt	r0, r0, #0, 10
     3c8:	05000039 	streq	r0, [r0, #-57]	; 0xffffffc7
     3cc:	00396800 	eorseq	r6, r9, r0, lsl #16
     3d0:	e4000500 	str	r0, [r0], #-1280	; 0xfffffb00
     3d4:	0500003d 	streq	r0, [r0, #-61]	; 0xffffffc3
     3d8:	00654100 	rsbeq	r4, r5, r0, lsl #2
     3dc:	2f000500 	svccs	0x00000500
     3e0:	0500008a 	streq	r0, [r0, #-138]	; 0xffffff76
     3e4:	002dbe00 	eoreq	fp, sp, r0, lsl #28
     3e8:	18000500 	stmdane	r0, {r8, sl}
     3ec:	0500006f 	streq	r0, [r0, #-111]	; 0xffffff91
     3f0:	00362c00 	eorseq	r2, r6, r0, lsl #24
     3f4:	12000500 	andne	r0, r0, #0, 10
     3f8:	05000020 	streq	r0, [r0, #-32]	; 0xffffffe0
     3fc:	002b8b00 	eoreq	r8, fp, r0, lsl #22
     400:	22000500 	andcs	r0, r0, #0, 10
     404:	0500001c 	streq	r0, [r0, #-28]	; 0xffffffe4
     408:	00462200 	subeq	r2, r6, r0, lsl #4
     40c:	1d000500 	cfstr32ne	mvfx0, [r0, #-0]
     410:	0500007a 	streq	r0, [r0, #-122]	; 0xffffff86
     414:	00413b00 	subeq	r3, r1, r0, lsl #22
     418:	ae000500 	cfsh32ge	mvfx0, mvfx0, #0
     41c:	05000034 	streq	r0, [r0, #-52]	; 0xffffffcc
     420:	000a4100 	andeq	r4, sl, r0, lsl #2
     424:	c0000500 	andgt	r0, r0, r0, lsl #10
     428:	05000021 	streq	r0, [r0, #-33]	; 0xffffffdf
     42c:	007b9b00 	rsbseq	r9, fp, r0, lsl #22
     430:	51000500 	tstpl	r0, r0, lsl #10
     434:	05000040 	streq	r0, [r0, #-64]	; 0xffffffc0
     438:	002f1d00 	eoreq	r1, pc, r0, lsl #26
     43c:	bc000500 	cfstr32lt	mvfx0, [r0], {-0}
     440:	05000068 	streq	r0, [r0, #-104]	; 0xffffff98
     444:	0047de00 	subeq	sp, r7, r0, lsl #28
     448:	0a000500 	beq	1850 <_Min_Stack_Size+0x1450>
     44c:	05000085 	streq	r0, [r0, #-133]	; 0xffffff7b
     450:	005a9e00 	subseq	r9, sl, r0, lsl #28
     454:	fc000500 	stc2	5, cr0, [r0], {-0}
     458:	0500006d 	streq	r0, [r0, #-109]	; 0xffffff93
     45c:	00133700 	andseq	r3, r3, r0, lsl #14
     460:	4c000500 	cfstr32mi	mvfx0, [r0], {-0}
     464:	05000024 	streq	r0, [r0, #-36]	; 0xffffffdc
     468:	0085f400 	addeq	pc, r5, r0, lsl #8
     46c:	43000500 	movwmi	r0, #1280	; 0x500
     470:	05000017 	streq	r0, [r0, #-23]	; 0xffffffe9
     474:	000ffe00 	andeq	pc, pc, r0, lsl #28
     478:	96000500 	strls	r0, [r0], -r0, lsl #10
     47c:	05000012 	streq	r0, [r0, #-18]	; 0xffffffee
     480:	00140d00 	andseq	r0, r4, r0, lsl #26
     484:	1a000500 	bne	188c <_Min_Stack_Size+0x148c>
     488:	0500001b 	streq	r0, [r0, #-27]	; 0xffffffe5
     48c:	00519200 	subseq	r9, r1, r0, lsl #4
     490:	a3000500 	movwge	r0, #1280	; 0x500
     494:	05000013 	streq	r0, [r0, #-19]	; 0xffffffed
     498:	0051ed00 	subseq	lr, r1, r0, lsl #26
     49c:	43000500 	movwmi	r0, #1280	; 0x500
     4a0:	05000001 	streq	r0, [r0, #-1]
     4a4:	00243c00 	eoreq	r3, r4, r0, lsl #24
     4a8:	d1000500 	tstle	r0, r0, lsl #10
     4ac:	05000042 	streq	r0, [r0, #-66]	; 0xffffffbe
     4b0:	005a5c00 	subseq	r5, sl, r0, lsl #24
     4b4:	0a000500 	beq	18bc <_Min_Stack_Size+0x14bc>
     4b8:	05000044 	streq	r0, [r0, #-68]	; 0xffffffbc
     4bc:	00367300 	eorseq	r7, r6, r0, lsl #6
     4c0:	f4000500 	vst3.8	{d0,d2,d4}, [r0], r0
     4c4:	0500004f 	streq	r0, [r0, #-79]	; 0xffffffb1
     4c8:	00498c00 	subeq	r8, r9, r0, lsl #24
     4cc:	e0000500 	and	r0, r0, r0, lsl #10
     4d0:	05000059 	streq	r0, [r0, #-89]	; 0xffffffa7
     4d4:	00541900 	subseq	r1, r4, r0, lsl #18
     4d8:	19000500 	stmdbne	r0, {r8, sl}
     4dc:	0500006a 	streq	r0, [r0, #-106]	; 0xffffff96
     4e0:	001b4300 	andseq	r4, fp, r0, lsl #6
     4e4:	e8000500 	stmda	r0, {r8, sl}
     4e8:	05000073 	streq	r0, [r0, #-115]	; 0xffffff8d
     4ec:	001fad00 	andseq	sl, pc, r0, lsl #26
     4f0:	80000500 	andhi	r0, r0, r0, lsl #10
     4f4:	0500004d 	streq	r0, [r0, #-77]	; 0xffffffb3
     4f8:	0029bf00 	eoreq	fp, r9, r0, lsl #30
     4fc:	f5000500 			; <UNDEFINED> instruction: 0xf5000500
     500:	0500002f 	streq	r0, [r0, #-47]	; 0xffffffd1
     504:	002dd900 	eoreq	sp, sp, r0, lsl #18
     508:	43000500 	movwmi	r0, #1280	; 0x500
     50c:	05000007 	streq	r0, [r0, #-7]
     510:	00415400 	subeq	r5, r1, r0, lsl #8
     514:	39000500 	stmdbcc	r0, {r8, sl}
     518:	0500005f 	streq	r0, [r0, #-95]	; 0xffffffa1
     51c:	00924500 	addseq	r4, r2, r0, lsl #10
     520:	8c000500 	cfstr32hi	mvfx0, [r0], {-0}
     524:	05000078 	streq	r0, [r0, #-120]	; 0xffffff88
     528:	00658800 	rsbeq	r8, r5, r0, lsl #16
     52c:	b1000500 	tstlt	r0, r0, lsl #10
     530:	05000010 	streq	r0, [r0, #-16]
     534:	00493200 	subeq	r3, r9, r0, lsl #4
     538:	96000500 	strls	r0, [r0], -r0, lsl #10
     53c:	05000005 	streq	r0, [r0, #-5]
     540:	007fb600 	rsbseq	fp, pc, r0, lsl #12
     544:	b0000500 	andlt	r0, r0, r0, lsl #10
     548:	0500008a 	streq	r0, [r0, #-138]	; 0xffffff76
     54c:	00895d00 	addeq	r5, r9, r0, lsl #26
     550:	73000500 	movwvc	r0, #1280	; 0x500
     554:	05000040 	streq	r0, [r0, #-64]	; 0xffffffc0
     558:	0057d700 	subseq	sp, r7, r0, lsl #14
     55c:	3b000500 	blcc	1964 <_Min_Stack_Size+0x1564>
     560:	0500002d 	streq	r0, [r0, #-45]	; 0xffffffd3
     564:	007dbd00 	rsbseq	fp, sp, r0, lsl #26
     568:	37000500 	strcc	r0, [r0, -r0, lsl #10]
     56c:	05000076 	streq	r0, [r0, #-118]	; 0xffffff8a
     570:	000a0700 	andeq	r0, sl, r0, lsl #14
     574:	4d000500 	cfstr32mi	mvfx0, [r0, #-0]
     578:	05000089 	streq	r0, [r0, #-137]	; 0xffffff77
     57c:	00089400 	andeq	r9, r8, r0, lsl #8
     580:	1e000500 	cfsh32ne	mvfx0, mvfx0, #0
     584:	0500005f 	streq	r0, [r0, #-95]	; 0xffffffa1
     588:	002cef00 	eoreq	lr, ip, r0, lsl #30
     58c:	ae000500 	cfsh32ge	mvfx0, mvfx0, #0
     590:	05000057 	streq	r0, [r0, #-87]	; 0xffffffa9
     594:	00004700 	andeq	r4, r0, r0, lsl #14
     598:	bd000500 	cfstr32lt	mvfx0, [r0, #-0]
     59c:	05000084 	streq	r0, [r0, #-132]	; 0xffffff7c
     5a0:	00135c00 	andseq	r5, r3, r0, lsl #24
     5a4:	99000500 	stmdbls	r0, {r8, sl}
     5a8:	0500007a 	streq	r0, [r0, #-122]	; 0xffffff86
     5ac:	00484e00 	subeq	r4, r8, r0, lsl #28
     5b0:	1c000500 	cfstr32ne	mvfx0, [r0], {-0}
     5b4:	0500004b 	streq	r0, [r0, #-75]	; 0xffffffb5
     5b8:	00677300 	rsbeq	r7, r7, r0, lsl #6
     5bc:	03000500 	movweq	r0, #1280	; 0x500
     5c0:	05000033 	streq	r0, [r0, #-51]	; 0xffffffcd
     5c4:	0050a600 	subseq	sl, r0, r0, lsl #12
     5c8:	de000500 	cfsh32le	mvfx0, mvfx0, #0
     5cc:	05000046 	streq	r0, [r0, #-70]	; 0xffffffba
     5d0:	0066a600 	rsbeq	sl, r6, r0, lsl #12
     5d4:	61000500 	tstvs	r0, r0, lsl #10
     5d8:	0500000e 	streq	r0, [r0, #-14]
     5dc:	0061d400 	rsbeq	sp, r1, r0, lsl #8
     5e0:	7c000500 	cfstr32vc	mvfx0, [r0], {-0}
     5e4:	05000019 	streq	r0, [r0, #-25]	; 0xffffffe7
     5e8:	000d7e00 	andeq	r7, sp, r0, lsl #28
     5ec:	7c000500 	cfstr32vc	mvfx0, [r0], {-0}
     5f0:	05000008 	streq	r0, [r0, #-8]
     5f4:	00786400 	rsbseq	r6, r8, r0, lsl #8
     5f8:	b7000500 	strlt	r0, [r0, -r0, lsl #10]
     5fc:	05000072 	streq	r0, [r0, #-114]	; 0xffffff8e
     600:	00567400 	subseq	r7, r6, r0, lsl #8
     604:	4a000500 	bmi	1a0c <_Min_Stack_Size+0x160c>
     608:	05000047 	streq	r0, [r0, #-71]	; 0xffffffb9
     60c:	00852700 	addeq	r2, r5, r0, lsl #14
     610:	04000500 	streq	r0, [r0], #-1280	; 0xfffffb00
     614:	05000050 	streq	r0, [r0, #-80]	; 0xffffffb0
     618:	00327700 	eorseq	r7, r2, r0, lsl #14
     61c:	3c000500 	cfstr32cc	mvfx0, [r0], {-0}
     620:	0500007e 	streq	r0, [r0, #-126]	; 0xffffff82
     624:	0089e100 	addeq	lr, r9, r0, lsl #2
     628:	f7000500 			; <UNDEFINED> instruction: 0xf7000500
     62c:	05000011 	streq	r0, [r0, #-17]	; 0xffffffef
     630:	000fb400 	andeq	fp, pc, r0, lsl #8
     634:	9f000500 	svcls	0x00000500
     638:	05000052 	streq	r0, [r0, #-82]	; 0xffffffae
     63c:	00229e00 	eoreq	r9, r2, r0, lsl #28
     640:	35000500 	strcc	r0, [r0, #-1280]	; 0xfffffb00
     644:	05000004 	streq	r0, [r0, #-4]
     648:	000aed00 	andeq	lr, sl, r0, lsl #26
     64c:	15000500 	strne	r0, [r0, #-1280]	; 0xfffffb00
     650:	05000053 	streq	r0, [r0, #-83]	; 0xffffffad
     654:	00830e00 	addeq	r0, r3, r0, lsl #28
     658:	b6000500 	strlt	r0, [r0], -r0, lsl #10
     65c:	05000000 	streq	r0, [r0, #-0]
     660:	0059c900 	subseq	ip, r9, r0, lsl #18
     664:	cb000500 	blgt	1a6c <_Min_Stack_Size+0x166c>
     668:	05000001 	streq	r0, [r0, #-1]
     66c:	00589b00 	subseq	r9, r8, r0, lsl #22
     670:	4a000500 	bmi	1a78 <_Min_Stack_Size+0x1678>
     674:	0500008e 	streq	r0, [r0, #-142]	; 0xffffff72
     678:	006d7f00 	rsbeq	r7, sp, r0, lsl #30
     67c:	53000500 	movwpl	r0, #1280	; 0x500
     680:	0500001c 	streq	r0, [r0, #-28]	; 0xffffffe4
     684:	000c0700 	andeq	r0, ip, r0, lsl #14
     688:	9c000500 	cfstr32ls	mvfx0, [r0], {-0}
     68c:	0500003f 	streq	r0, [r0, #-63]	; 0xffffffc1
     690:	00337100 	eorseq	r7, r3, r0, lsl #2
     694:	6b000500 	blvs	1a9c <_Min_Stack_Size+0x169c>
     698:	05000017 	streq	r0, [r0, #-23]	; 0xffffffe9
     69c:	00726f00 	rsbseq	r6, r2, r0, lsl #30
     6a0:	47000500 	strmi	r0, [r0, -r0, lsl #10]
     6a4:	05000052 	streq	r0, [r0, #-82]	; 0xffffffae
     6a8:	0017b600 	andseq	fp, r7, r0, lsl #12
     6ac:	64000500 	strvs	r0, [r0], #-1280	; 0xfffffb00
     6b0:	05000023 	streq	r0, [r0, #-35]	; 0xffffffdd
     6b4:	00497400 	subeq	r7, r9, r0, lsl #8
     6b8:	b3000500 	movwlt	r0, #1280	; 0x500
     6bc:	05000015 	streq	r0, [r0, #-21]	; 0xffffffeb
     6c0:	00178f00 	andseq	r8, r7, r0, lsl #30
     6c4:	68000500 	stmdavs	r0, {r8, sl}
     6c8:	05000062 	streq	r0, [r0, #-98]	; 0xffffff9e
     6cc:	002b5200 	eoreq	r5, fp, r0, lsl #4
     6d0:	eb000500 	bl	1ad8 <_Min_Stack_Size+0x16d8>
     6d4:	05000043 	streq	r0, [r0, #-67]	; 0xffffffbd
     6d8:	00066d00 	andeq	r6, r6, r0, lsl #26
     6dc:	41000500 	tstmi	r0, r0, lsl #10
     6e0:	05000033 	streq	r0, [r0, #-51]	; 0xffffffcd
     6e4:	0012b500 	andseq	fp, r2, r0, lsl #10
     6e8:	d9000500 	stmdble	r0, {r8, sl}
     6ec:	05000003 	streq	r0, [r0, #-3]
     6f0:	0069c900 	rsbeq	ip, r9, r0, lsl #18
     6f4:	95000500 	strls	r0, [r0, #-1280]	; 0xfffffb00
     6f8:	0500005b 	streq	r0, [r0, #-91]	; 0xffffffa5
     6fc:	00071900 	andeq	r1, r7, r0, lsl #18
     700:	6c000500 	cfstr32vs	mvfx0, [r0], {-0}
     704:	0500007f 	streq	r0, [r0, #-127]	; 0xffffff81
     708:	001d6000 	andseq	r6, sp, r0
     70c:	f2000500 	vrshl.s8	d0, d0, d0
     710:	05000089 	streq	r0, [r0, #-137]	; 0xffffff77
     714:	00372100 	eorseq	r2, r7, r0, lsl #2
     718:	d1000500 	tstle	r0, r0, lsl #10
     71c:	0500001b 	streq	r0, [r0, #-27]	; 0xffffffe5
     720:	00181100 	andseq	r1, r8, r0, lsl #2
     724:	8e000500 	cfsh32hi	mvfx0, mvfx0, #0
     728:	0500005e 	streq	r0, [r0, #-94]	; 0xffffffa2
     72c:	007a0400 	rsbseq	r0, sl, r0, lsl #8
     730:	e8000500 	stmda	r0, {r8, sl}
     734:	05000023 	streq	r0, [r0, #-35]	; 0xffffffdd
     738:	00009b00 	andeq	r9, r0, r0, lsl #22
     73c:	df000500 	svcle	0x00000500
     740:	05000025 	streq	r0, [r0, #-37]	; 0xffffffdb
     744:	00017f00 	andeq	r7, r1, r0, lsl #30
     748:	f9000500 			; <UNDEFINED> instruction: 0xf9000500
     74c:	05000055 	streq	r0, [r0, #-85]	; 0xffffffab
     750:	00427700 	subeq	r7, r2, r0, lsl #14
     754:	e1000500 	tst	r0, r0, lsl #10
     758:	05000028 	streq	r0, [r0, #-40]	; 0xffffffd8
     75c:	00107600 	andseq	r7, r0, r0, lsl #12
     760:	ba000500 	blt	1b68 <_Min_Stack_Size+0x1768>
     764:	05000038 	streq	r0, [r0, #-56]	; 0xffffffc8
     768:	002b7800 	eoreq	r7, fp, r0, lsl #16
     76c:	e7000500 	str	r0, [r0, -r0, lsl #10]
     770:	0500002b 	streq	r0, [r0, #-43]	; 0xffffffd5
     774:	000e1900 	andeq	r1, lr, r0, lsl #18
     778:	52000500 	andpl	r0, r0, #0, 10
     77c:	05000037 	streq	r0, [r0, #-55]	; 0xffffffc9
     780:	00212200 	eoreq	r2, r1, r0, lsl #4
     784:	e7000500 	str	r0, [r0, -r0, lsl #10]
     788:	05000068 	streq	r0, [r0, #-104]	; 0xffffff98
     78c:	0005d500 	andeq	sp, r5, r0, lsl #10
     790:	22000500 	andcs	r0, r0, #0, 10
     794:	05000024 	streq	r0, [r0, #-36]	; 0xffffffdc
     798:	00454500 	subeq	r4, r5, r0, lsl #10
     79c:	31000500 	tstcc	r0, r0, lsl #10
     7a0:	05000057 	streq	r0, [r0, #-87]	; 0xffffffa9
     7a4:	00651b00 	rsbeq	r1, r5, r0, lsl #22
     7a8:	51000500 	tstpl	r0, r0, lsl #10
     7ac:	0500002a 	streq	r0, [r0, #-42]	; 0xffffffd6
     7b0:	00554300 	subseq	r4, r5, r0, lsl #6
     7b4:	4d000500 	cfstr32mi	mvfx0, [r0, #-0]
     7b8:	0500004e 	streq	r0, [r0, #-78]	; 0xffffffb2
     7bc:	00545f00 	subseq	r5, r4, r0, lsl #30
     7c0:	4f000500 	svcmi	0x00000500
     7c4:	05000065 	streq	r0, [r0, #-101]	; 0xffffff9b
     7c8:	0040c500 	subeq	ip, r0, r0, lsl #10
     7cc:	4c000500 	cfstr32mi	mvfx0, [r0], {-0}
     7d0:	0500005c 	streq	r0, [r0, #-92]	; 0xffffffa4
     7d4:	005fc700 	subseq	ip, pc, r0, lsl #14
     7d8:	66000500 	strvs	r0, [r0], -r0, lsl #10
     7dc:	0500000f 	streq	r0, [r0, #-15]
     7e0:	00925900 	addseq	r5, r2, r0, lsl #18
     7e4:	b0000500 	andlt	r0, r0, r0, lsl #10
     7e8:	0500006f 	streq	r0, [r0, #-111]	; 0xffffff91
     7ec:	007f9400 	rsbseq	r9, pc, r0, lsl #8
     7f0:	9b000500 	blls	1bf8 <_Min_Stack_Size+0x17f8>
     7f4:	05000078 	streq	r0, [r0, #-120]	; 0xffffff88
     7f8:	008adf00 	addeq	sp, sl, r0, lsl #30
     7fc:	fc000500 	stc2	5, cr0, [r0], {-0}
     800:	05000087 	streq	r0, [r0, #-135]	; 0xffffff79
     804:	00138200 	andseq	r8, r3, r0, lsl #4
     808:	ad000500 	cfstr32ge	mvfx0, [r0, #-0]
     80c:	05000056 	streq	r0, [r0, #-86]	; 0xffffffaa
     810:	008e1600 	addeq	r1, lr, r0, lsl #12
     814:	cb000500 	blgt	1c1c <_Min_Stack_Size+0x181c>
     818:	0500000c 	streq	r0, [r0, #-12]
     81c:	004be800 	subeq	lr, fp, r0, lsl #16
     820:	60000500 	andvs	r0, r0, r0, lsl #10
     824:	05000087 	streq	r0, [r0, #-135]	; 0xffffff79
     828:	0019b700 	andseq	fp, r9, r0, lsl #14
     82c:	23000500 	movwcs	r0, #1280	; 0x500
     830:	05000084 	streq	r0, [r0, #-132]	; 0xffffff7c
     834:	00678900 	rsbeq	r8, r7, r0, lsl #18
     838:	68000500 	stmdavs	r0, {r8, sl}
     83c:	0500006b 	streq	r0, [r0, #-107]	; 0xffffff95
     840:	006ca700 	rsbeq	sl, ip, r0, lsl #14
     844:	f5000500 			; <UNDEFINED> instruction: 0xf5000500
     848:	05000077 	streq	r0, [r0, #-119]	; 0xffffff89
     84c:	00884100 	addeq	r4, r8, r0, lsl #2
     850:	e8000500 	stmda	r0, {r8, sl}
     854:	05000031 	streq	r0, [r0, #-49]	; 0xffffffcf
     858:	0059a600 	subseq	sl, r9, r0, lsl #12
     85c:	0a000500 	beq	1c64 <_Min_Stack_Size+0x1864>
     860:	05000008 	streq	r0, [r0, #-8]
     864:	00065000 	andeq	r5, r6, r0
     868:	78000500 	stmdavc	r0, {r8, sl}
     86c:	05000018 	streq	r0, [r0, #-24]	; 0xffffffe8
     870:	0016b600 	andseq	fp, r6, r0, lsl #12
     874:	bf000500 	svclt	0x00000500
     878:	0500007a 	streq	r0, [r0, #-122]	; 0xffffff86
     87c:	0067d700 	rsbeq	sp, r7, r0, lsl #14
     880:	82000500 	andhi	r0, r0, #0, 10
     884:	05000041 	streq	r0, [r0, #-65]	; 0xffffffbf
     888:	00891300 	addeq	r1, r9, r0, lsl #6
     88c:	a4000500 	strge	r0, [r0], #-1280	; 0xfffffb00
     890:	0500004d 	streq	r0, [r0, #-77]	; 0xffffffb3
     894:	0072e400 	rsbseq	lr, r2, r0, lsl #8
     898:	96000500 	strls	r0, [r0], -r0, lsl #10
     89c:	0500002f 	streq	r0, [r0, #-47]	; 0xffffffd1
     8a0:	005bae00 	subseq	sl, fp, r0, lsl #28
     8a4:	05000500 	streq	r0, [r0, #-1280]	; 0xfffffb00
     8a8:	05000031 	streq	r0, [r0, #-49]	; 0xffffffcf
     8ac:	00323800 	eorseq	r3, r2, r0, lsl #16
     8b0:	f4000500 	vst3.8	{d0,d2,d4}, [r0], r0
     8b4:	05000012 	streq	r0, [r0, #-18]	; 0xffffffee
     8b8:	0084e600 	addeq	lr, r4, r0, lsl #12
     8bc:	0c000500 	cfstr32eq	mvfx0, [r0], {-0}
     8c0:	0500006d 	streq	r0, [r0, #-109]	; 0xffffff93
     8c4:	00503700 	subseq	r3, r0, r0, lsl #14
     8c8:	de000500 	cfsh32le	mvfx0, mvfx0, #0
     8cc:	05000004 	streq	r0, [r0, #-4]
     8d0:	006acb00 	rsbeq	ip, sl, r0, lsl #22
     8d4:	26000500 	strcs	r0, [r0], -r0, lsl #10
     8d8:	0500004f 	streq	r0, [r0, #-79]	; 0xffffffb1
     8dc:	006e9b00 	rsbeq	r9, lr, r0, lsl #22
     8e0:	2e000500 	cfsh32cs	mvfx0, mvfx0, #0
     8e4:	05000089 	streq	r0, [r0, #-137]	; 0xffffff77
     8e8:	0073b200 	rsbseq	fp, r3, r0, lsl #4
     8ec:	31000500 	tstcc	r0, r0, lsl #10
     8f0:	05000045 	streq	r0, [r0, #-69]	; 0xffffffbb
     8f4:	00028700 	andeq	r8, r2, r0, lsl #14
     8f8:	cd000500 	cfstr32gt	mvfx0, [r0, #-0]
     8fc:	05000038 	streq	r0, [r0, #-56]	; 0xffffffc8
     900:	00213400 	eoreq	r3, r1, r0, lsl #8
     904:	9d000500 	cfstr32ls	mvfx0, [r0, #-0]
     908:	05000026 	streq	r0, [r0, #-38]	; 0xffffffda
     90c:	006de700 	rsbeq	lr, sp, r0, lsl #14
     910:	cc000500 	cfstr32gt	mvfx0, [r0], {-0}
     914:	05000085 	streq	r0, [r0, #-133]	; 0xffffff7b
     918:	00593000 	subseq	r3, r9, r0
     91c:	17000500 	strne	r0, [r0, -r0, lsl #10]
     920:	0500006b 	streq	r0, [r0, #-107]	; 0xffffff95
     924:	008aa200 	addeq	sl, sl, r0, lsl #4
     928:	6b000500 	blvs	1d30 <_Min_Stack_Size+0x1930>
     92c:	05000073 	streq	r0, [r0, #-115]	; 0xffffff8d
     930:	008bb100 	addeq	fp, fp, r0, lsl #2
     934:	5e000500 	cfsh32pl	mvfx0, mvfx0, #0
     938:	05000090 	streq	r0, [r0, #-144]	; 0xffffff70
     93c:	0010ff00 	andseq	pc, r0, r0, lsl #30
     940:	f0000500 			; <UNDEFINED> instruction: 0xf0000500
     944:	05000006 	streq	r0, [r0, #-6]
     948:	006b4900 	rsbeq	r4, fp, r0, lsl #18
     94c:	d4000500 	strle	r0, [r0], #-1280	; 0xfffffb00
     950:	0500006f 	streq	r0, [r0, #-111]	; 0xffffff91
     954:	002e0400 	eoreq	r0, lr, r0, lsl #8
     958:	00000500 	andeq	r0, r0, r0, lsl #10
     95c:	05000004 	streq	r0, [r0, #-4]
     960:	000da100 	andeq	sl, sp, r0, lsl #2
     964:	99000500 	stmdbls	r0, {r8, sl}
     968:	0500004e 	streq	r0, [r0, #-78]	; 0xffffffb2
     96c:	0011a300 	andseq	sl, r1, r0, lsl #6
     970:	ad000500 	cfstr32ge	mvfx0, [r0, #-0]
     974:	0500006b 	streq	r0, [r0, #-107]	; 0xffffff95
     978:	0010cb00 	andseq	ip, r0, r0, lsl #22
     97c:	24000500 	strcs	r0, [r0], #-1280	; 0xfffffb00
     980:	05000074 	streq	r0, [r0, #-116]	; 0xffffff8c
     984:	00575700 	subseq	r5, r7, r0, lsl #14
     988:	c6000500 	strgt	r0, [r0], -r0, lsl #10
     98c:	05000049 	streq	r0, [r0, #-73]	; 0xffffffb7
     990:	006da100 	rsbeq	sl, sp, r0, lsl #2
     994:	38000500 	stmdacc	r0, {r8, sl}
     998:	05000072 	streq	r0, [r0, #-114]	; 0xffffff8e
     99c:	0029f200 	eoreq	pc, r9, r0, lsl #4
     9a0:	cd000500 	cfstr32gt	mvfx0, [r0, #-0]
     9a4:	05000051 	streq	r0, [r0, #-81]	; 0xffffffaf
     9a8:	00724f00 	rsbseq	r4, r2, r0, lsl #30
     9ac:	95000500 	strls	r0, [r0, #-1280]	; 0xfffffb00
     9b0:	05000042 	streq	r0, [r0, #-66]	; 0xffffffbe
     9b4:	002daf00 	eoreq	sl, sp, r0, lsl #30
     9b8:	cf000500 	svcgt	0x00000500
     9bc:	0500008e 	streq	r0, [r0, #-142]	; 0xffffff72
     9c0:	00199200 	andseq	r9, r9, r0, lsl #4
     9c4:	4f000500 	svcmi	0x00000500
     9c8:	05000063 	streq	r0, [r0, #-99]	; 0xffffff9d
     9cc:	00005a00 	andeq	r5, r0, r0, lsl #20
     9d0:	f5000500 			; <UNDEFINED> instruction: 0xf5000500
     9d4:	05000088 	streq	r0, [r0, #-136]	; 0xffffff78
     9d8:	005ee400 	subseq	lr, lr, r0, lsl #8
     9dc:	31000500 	tstcc	r0, r0, lsl #10
     9e0:	05000028 	streq	r0, [r0, #-40]	; 0xffffffd8
     9e4:	0059b900 	subseq	fp, r9, r0, lsl #18
     9e8:	12000500 	andne	r0, r0, #0, 10
     9ec:	0500007c 	streq	r0, [r0, #-124]	; 0xffffff84
     9f0:	001ebd00 	andseq	fp, lr, r0, lsl #26
     9f4:	a3000500 	movwge	r0, #1280	; 0x500
     9f8:	05000083 	streq	r0, [r0, #-131]	; 0xffffff7d
     9fc:	00784f00 	rsbseq	r4, r8, r0, lsl #30
     a00:	51000500 	tstpl	r0, r0, lsl #10
     a04:	05000039 	streq	r0, [r0, #-57]	; 0xffffffc7
     a08:	0020f300 	eoreq	pc, r0, r0, lsl #6
     a0c:	8f000500 	svchi	0x00000500
     a10:	0500007c 	streq	r0, [r0, #-124]	; 0xffffff84
     a14:	00012f00 	andeq	r2, r1, r0, lsl #30
     a18:	6e000500 	cfsh32vs	mvfx0, mvfx0, #0
     a1c:	0500000c 	streq	r0, [r0, #-12]
     a20:	00870a00 	addeq	r0, r7, r0, lsl #20
     a24:	9b000500 	blls	1e2c <_Min_Stack_Size+0x1a2c>
     a28:	05000067 	streq	r0, [r0, #-103]	; 0xffffff99
     a2c:	0018f200 	andseq	pc, r8, r0, lsl #4
     a30:	9b000500 	blls	1e38 <_Min_Stack_Size+0x1a38>
     a34:	0500005f 	streq	r0, [r0, #-95]	; 0xffffffa1
     a38:	0048e400 	subeq	lr, r8, r0, lsl #8
     a3c:	69000500 	stmdbvs	r0, {r8, sl}
     a40:	05000021 	streq	r0, [r0, #-33]	; 0xffffffdf
     a44:	00010e00 	andeq	r0, r1, r0, lsl #28
     a48:	49000500 	stmdbmi	r0, {r8, sl}
     a4c:	05000030 	streq	r0, [r0, #-48]	; 0xffffffd0
     a50:	00752200 	rsbseq	r2, r5, r0, lsl #4
     a54:	08000500 	stmdaeq	r0, {r8, sl}
     a58:	0500004f 	streq	r0, [r0, #-79]	; 0xffffffb1
     a5c:	00520100 	subseq	r0, r2, r0, lsl #2
     a60:	89000500 	stmdbhi	r0, {r8, sl}
     a64:	05000082 	streq	r0, [r0, #-130]	; 0xffffff7e
     a68:	003e3000 	eorseq	r3, lr, r0
     a6c:	47000500 	strmi	r0, [r0, -r0, lsl #10]
     a70:	05000042 	streq	r0, [r0, #-66]	; 0xffffffbe
     a74:	0027bc00 	eoreq	fp, r7, r0, lsl #24
     a78:	2c000500 	cfstr32cs	mvfx0, [r0], {-0}
     a7c:	05000068 	streq	r0, [r0, #-104]	; 0xffffff98
     a80:	00847500 	addeq	r7, r4, r0, lsl #10
     a84:	6c000500 	cfstr32vs	mvfx0, [r0], {-0}
     a88:	0600005c 			; <UNDEFINED> instruction: 0x0600005c
     a8c:	0051db00 	subseq	sp, r1, r0, lsl #22
     a90:	51000500 	tstpl	r0, r0, lsl #10
     a94:	0500003e 	streq	r0, [r0, #-62]	; 0xffffffc2
     a98:	004b7900 	subeq	r7, fp, r0, lsl #18
     a9c:	17000600 	strne	r0, [r0, -r0, lsl #12]
     aa0:	05000068 	streq	r0, [r0, #-104]	; 0xffffff98
     aa4:	00849800 	addeq	r9, r4, r0, lsl #16
     aa8:	d3000600 	movwle	r0, #1536	; 0x600
     aac:	05000063 	streq	r0, [r0, #-99]	; 0xffffff9d
     ab0:	00652d00 	rsbeq	r2, r5, r0, lsl #26
     ab4:	d9000500 	stmdble	r0, {r8, sl}
     ab8:	0500008d 	streq	r0, [r0, #-141]	; 0xffffff73
     abc:	003e6600 	eorseq	r6, lr, r0, lsl #12
     ac0:	a9000600 	stmdbge	r0, {r9, sl}
     ac4:	06000074 			; <UNDEFINED> instruction: 0x06000074
     ac8:	008e3500 	addeq	r3, lr, r0, lsl #10
     acc:	fc000500 	stc2	5, cr0, [r0], {-0}
     ad0:	05000060 	streq	r0, [r0, #-96]	; 0xffffffa0
     ad4:	003f8500 	eorseq	r8, pc, r0, lsl #10
     ad8:	72000500 	andvc	r0, r0, #0, 10
     adc:	05000007 	streq	r0, [r0, #-7]
     ae0:	00615c00 	rsbeq	r5, r1, r0, lsl #24
     ae4:	7a000500 	bvc	1eec <_Min_Stack_Size+0x1aec>
     ae8:	0500004f 	streq	r0, [r0, #-79]	; 0xffffffb1
     aec:	00464b00 	subeq	r4, r6, r0, lsl #22
     af0:	fd000500 	stc2	5, cr0, [r0, #-0]
     af4:	0500008a 	streq	r0, [r0, #-138]	; 0xffffff76
     af8:	0086c000 	addeq	ip, r6, r0
     afc:	20000500 	andcs	r0, r0, r0, lsl #10
     b00:	05000073 	streq	r0, [r0, #-115]	; 0xffffff8d
     b04:	0063e700 	rsbeq	lr, r3, r0, lsl #14
     b08:	09000500 	stmdbeq	r0, {r8, sl}
     b0c:	0500008b 	streq	r0, [r0, #-139]	; 0xffffff75
     b10:	0043a400 	subeq	sl, r3, r0, lsl #8
     b14:	4f000500 	svcmi	0x00000500
     b18:	06000013 			; <UNDEFINED> instruction: 0x06000013
     b1c:	0051c400 	subseq	ip, r1, r0, lsl #8
     b20:	3d000600 	stccc	6, cr0, [r0, #-0]
     b24:	06000043 	streq	r0, [r0], -r3, asr #32
     b28:	00623000 	rsbeq	r3, r2, r0
     b2c:	8c000600 	stchi	6, cr0, [r0], {-0}
     b30:	06000087 	streq	r0, [r0], -r7, lsl #1
     b34:	0075e600 	rsbseq	lr, r5, r0, lsl #12
     b38:	ba000600 	blt	2340 <_Min_Stack_Size+0x1f40>
     b3c:	0600001a 			; <UNDEFINED> instruction: 0x0600001a
     b40:	006cfa00 	rsbeq	pc, ip, r0, lsl #20
     b44:	51000600 	tstpl	r0, r0, lsl #12
     b48:	06000019 			; <UNDEFINED> instruction: 0x06000019
     b4c:	002c5c00 	eoreq	r5, ip, r0, lsl #24
     b50:	9f000600 	svcls	0x00000600
     b54:	05000056 	streq	r0, [r0, #-86]	; 0xffffffaa
     b58:	0019a100 	andseq	sl, r9, r0, lsl #2
     b5c:	ff000500 			; <UNDEFINED> instruction: 0xff000500
     b60:	05000017 	streq	r0, [r0, #-23]	; 0xffffffe9
     b64:	0033a300 	eorseq	sl, r3, r0, lsl #6
     b68:	b6000500 	strlt	r0, [r0], -r0, lsl #10
     b6c:	05000092 	streq	r0, [r0, #-146]	; 0xffffff6e
     b70:	00338b00 	eorseq	r8, r3, r0, lsl #22
     b74:	b4000500 	strlt	r0, [r0], #-1280	; 0xfffffb00
     b78:	0500005c 	streq	r0, [r0, #-92]	; 0xffffffa4
     b7c:	00864f00 	addeq	r4, r6, r0, lsl #30
     b80:	02000500 	andeq	r0, r0, #0, 10
     b84:	0500005e 	streq	r0, [r0, #-94]	; 0xffffffa2
     b88:	0045ef00 	subeq	lr, r5, r0, lsl #30
     b8c:	f7000500 			; <UNDEFINED> instruction: 0xf7000500
     b90:	05000072 	streq	r0, [r0, #-114]	; 0xffffff8e
     b94:	007f3b00 	rsbseq	r3, pc, r0, lsl #22
     b98:	76000500 	strvc	r0, [r0], -r0, lsl #10
     b9c:	05000063 	streq	r0, [r0, #-99]	; 0xffffff9d
     ba0:	0090a400 	addseq	sl, r0, r0, lsl #8
     ba4:	41000500 	tstmi	r0, r0, lsl #10
     ba8:	05000058 	streq	r0, [r0, #-88]	; 0xffffffa8
     bac:	0012ec00 	andseq	lr, r2, r0, lsl #24
     bb0:	00040000 	andeq	r0, r4, r0
     bb4:	084d0500 	stmdaeq	sp, {r8, sl}^
     bb8:	0500005f 	streq	r0, [r0, #-95]	; 0xffffffa1
     bbc:	5e1a03c5 	cdppl	3, 1, cr0, cr10, cr5, {6}
     bc0:	c8050000 	stmdagt	r5, {}	; <UNPREDICTABLE>
     bc4:	0032db03 	eorseq	sp, r2, r3, lsl #22
     bc8:	00040000 	andeq	r0, r4, r0
     bcc:	f2040500 	vrshl.s8	d0, d0, d4
     bd0:	0500004e 	streq	r0, [r0, #-78]	; 0xffffffb2
     bd4:	0036e306 	eorseq	lr, r6, r6, lsl #6
     bd8:	9e070500 	cfsh32ls	mvfx0, mvfx7, #0
     bdc:	0500001d 	streq	r0, [r0, #-29]	; 0xffffffe3
     be0:	00586408 	subseq	r6, r8, r8, lsl #8
     be4:	1d090500 	cfstr32ne	mvfx0, [r9, #-0]
     be8:	00000069 	andeq	r0, r0, r9, rrx
     bec:	05000004 	streq	r0, [r0, #-4]
     bf0:	00557e22 	subseq	r7, r5, r2, lsr #28
     bf4:	69280500 	stmdbvs	r8!, {r8, sl}
     bf8:	0500002d 	streq	r0, [r0, #-45]	; 0xffffffd3
     bfc:	007a3232 	rsbseq	r3, sl, r2, lsr r2
     c00:	3d360500 	cfldr32cc	mvfx0, [r6, #-0]
     c04:	0500004f 	streq	r0, [r0, #-79]	; 0xffffffb1
     c08:	00262439 	eoreq	r2, r6, r9, lsr r4
     c0c:	ac3c0500 	cfldr32ge	mvfx0, [ip], #-0
     c10:	05000053 	streq	r0, [r0, #-83]	; 0xffffffad
     c14:	000ce03f 	andeq	lr, ip, pc, lsr r0
     c18:	fb4e0500 	blx	1382022 <_Min_Stack_Size+0x1381c22>
     c1c:	0500007c 	streq	r0, [r0, #-124]	; 0xffffff84
     c20:	00416b51 	subeq	r6, r1, r1, asr fp
     c24:	34590500 	ldrbcc	r0, [r9], #-1280	; 0xfffffb00
     c28:	00000091 	muleq	r0, r1, r0
     c2c:	05000004 	streq	r0, [r0, #-4]
     c30:	00276a16 	eoreq	r6, r7, r6, lsl sl
     c34:	41210500 			; <UNDEFINED> instruction: 0x41210500
     c38:	05000015 	streq	r0, [r0, #-21]	; 0xffffffeb
     c3c:	0077b028 	rsbseq	fp, r7, r8, lsr #32
     c40:	01830600 	orreq	r0, r3, r0, lsl #12
     c44:	000086fa 	strdeq	r8, [r0], -sl
     c48:	cc018405 	cfstrsgt	mvf8, [r1], {5}
     c4c:	06000046 	streq	r0, [r0], -r6, asr #32
     c50:	43770188 	cmnmi	r7, #136, 2	; 0x22
     c54:	89050000 	stmdbhi	r5, {}	; <UNPREDICTABLE>
     c58:	0088a401 	addeq	sl, r8, r1, lsl #8
     c5c:	018a0600 	orreq	r0, sl, r0, lsl #12
     c60:	0000920f 	andeq	r9, r0, pc, lsl #4
     c64:	df018b05 	svcle	0x00018b05
     c68:	0600001a 			; <UNDEFINED> instruction: 0x0600001a
     c6c:	3d1c019e 	ldfccs	f0, [ip, #-632]	; 0xfffffd88
     c70:	9f050000 	svcls	0x00050000
     c74:	00560b01 	subseq	r0, r6, r1, lsl #22
     c78:	01f70500 	mvnseq	r0, r0, lsl #10
     c7c:	00001659 	andeq	r1, r0, r9, asr r6
     c80:	8a01fd05 	bhi	8009c <_Min_Stack_Size+0x7fc9c>
     c84:	05000054 	streq	r0, [r0, #-84]	; 0xffffffac
     c88:	6b580285 	blvs	16016a4 <_Min_Stack_Size+0x16012a4>
     c8c:	8a050000 	bhi	140c94 <_Min_Stack_Size+0x140894>
     c90:	00621b02 	rsbeq	r1, r2, r2, lsl #22
     c94:	02950500 	addseq	r0, r5, #0, 10
     c98:	00001d4a 	andeq	r1, r0, sl, asr #26
     c9c:	54029905 	strpl	r9, [r2], #-2309	; 0xfffff6fb
     ca0:	05000067 	streq	r0, [r0, #-103]	; 0xffffff99
     ca4:	0603029f 			; <UNDEFINED> instruction: 0x0603029f
     ca8:	af050000 	svcge	0x00050000
     cac:	00006902 	andeq	r6, r0, r2, lsl #18
     cb0:	02bf0500 	adcseq	r0, pc, #0, 10
     cb4:	0000823c 	andeq	r8, r0, ip, lsr r2
     cb8:	cf02ca05 	svcgt	0x0002ca05
     cbc:	00000081 	andeq	r0, r0, r1, lsl #1
     cc0:	05000004 	streq	r0, [r0, #-4]
     cc4:	106401dc 	ldrdne	r0, [r4], #-28	; 0xffffffe4	; <UNPREDICTABLE>
     cc8:	e2060000 	and	r0, r6, #0
     ccc:	00438e01 	subeq	r8, r3, r1, lsl #28
     cd0:	01e60500 	mvneq	r0, r0, lsl #10
     cd4:	0000637e 	andeq	r6, r0, lr, ror r3
     cd8:	f801f605 			; <UNDEFINED> instruction: 0xf801f605
     cdc:	0500005d 	streq	r0, [r0, #-93]	; 0xffffffa3
     ce0:	5ead01fa 	mcrpl	1, 5, r0, cr13, cr10, {7}
     ce4:	81050000 	mrshi	r0, (UNDEF: 5)
     ce8:	00247d02 	eoreq	r7, r4, r2, lsl #26
     cec:	02870500 	addeq	r0, r7, #0, 10
     cf0:	00001bf1 	strdeq	r1, [r0], -r1	; <UNPREDICTABLE>
     cf4:	9b029405 	blls	a5d10 <_Min_Stack_Size+0xa5910>
     cf8:	00000085 	andeq	r0, r0, r5, lsl #1
     cfc:	05000004 	streq	r0, [r0, #-4]
     d00:	0060141f 	rsbeq	r1, r0, pc, lsl r4
     d04:	97200500 	strls	r0, [r0, -r0, lsl #10]!
     d08:	0500002e 	streq	r0, [r0, #-46]	; 0xffffffd2
     d0c:	008eb621 	addeq	fp, lr, r1, lsr #12
     d10:	ce250500 	cfsh64gt	mvdx0, mvdx5, #0
     d14:	05000002 	streq	r0, [r0, #-2]
     d18:	007d1b2b 	rsbseq	r1, sp, fp, lsr #22
     d1c:	fb450500 	blx	1142126 <_Min_Stack_Size+0x1141d26>
     d20:	05000031 	streq	r0, [r0, #-49]	; 0xffffffcf
     d24:	00184349 	andseq	r4, r8, r9, asr #6
     d28:	a94a0500 	stmdbge	sl, {r8, sl}^
     d2c:	00000076 	andeq	r0, r0, r6, ror r0
     d30:	05000004 	streq	r0, [r0, #-4]
     d34:	0029e30d 	eoreq	lr, r9, sp, lsl #6
     d38:	730e0500 	movwvc	r0, #58624	; 0xe500
     d3c:	05000028 	streq	r0, [r0, #-40]	; 0xffffffd8
     d40:	00467a0f 	subeq	r7, r6, pc, lsl #20
     d44:	00040000 	andeq	r0, r4, r0
     d48:	01bb0500 			; <UNDEFINED> instruction: 0x01bb0500
     d4c:	0000186c 	andeq	r1, r0, ip, ror #16
     d50:	5401bc05 	strpl	fp, [r1], #-3077	; 0xfffff3fb
     d54:	0500000d 	streq	r0, [r0, #-13]
     d58:	873c01bd 			; <UNDEFINED> instruction: 0x873c01bd
     d5c:	be050000 	cdplt	0, 0, cr0, cr5, cr0, {0}
     d60:	0015f601 	andseq	pc, r5, r1, lsl #12
     d64:	01bf0500 			; <UNDEFINED> instruction: 0x01bf0500
     d68:	00004400 	andeq	r4, r0, r0, lsl #8
     d6c:	a801c005 	stmdage	r1, {r0, r2, lr, pc}
     d70:	05000010 	streq	r0, [r0, #-16]
     d74:	65a001c1 	strvs	r0, [r0, #449]!	; 0x1c1
     d78:	c2050000 	andgt	r0, r5, #0
     d7c:	0070eb01 	rsbseq	lr, r0, r1, lsl #22
     d80:	01c30500 	biceq	r0, r3, r0, lsl #10
     d84:	000070e7 	andeq	r7, r0, r7, ror #1
     d88:	f001c405 			; <UNDEFINED> instruction: 0xf001c405
     d8c:	05000022 	streq	r0, [r0, #-34]	; 0xffffffde
     d90:	6b3801c5 	blvs	e014ac <_Min_Stack_Size+0xe010ac>
     d94:	c6050000 	strgt	r0, [r5], -r0
     d98:	0022ec01 	eoreq	lr, r2, r1, lsl #24
     d9c:	01c70500 	biceq	r0, r7, r0, lsl #10
     da0:	00001a37 	andeq	r1, r0, r7, lsr sl
     da4:	2e01c805 	cdpcs	8, 0, cr12, cr1, cr5, {0}
     da8:	05000023 	streq	r0, [r0, #-35]	; 0xffffffdd
     dac:	873801c9 	ldrhi	r0, [r8, -r9, asr #3]!
     db0:	ca050000 	bgt	140db8 <_Min_Stack_Size+0x1409b8>
     db4:	00589201 	subseq	r9, r8, r1, lsl #4
     db8:	01d20500 	bicseq	r0, r2, r0, lsl #10
     dbc:	00000fd0 	ldrdeq	r0, [r0], -r0	; <UNPREDICTABLE>
     dc0:	5501ee06 	strpl	lr, [r1, #-3590]	; 0xfffff1fa
     dc4:	0500004f 	streq	r0, [r0, #-79]	; 0xffffffb1
     dc8:	5099028b 	addspl	r0, r9, fp, lsl #5
     dcc:	8c050000 	stchi	0, cr0, [r5], {-0}
     dd0:	005c8d02 	subseq	r8, ip, r2, lsl #26
     dd4:	028d0500 	addeq	r0, sp, #0, 10
     dd8:	00005d67 	andeq	r5, r0, r7, ror #26
     ddc:	79028e05 	stmdbvc	r2, {r0, r2, r9, sl, fp, pc}
     de0:	05000087 	streq	r0, [r0, #-135]	; 0xffffff79
     de4:	1595028f 	ldrne	r0, [r5, #655]	; 0x28f
     de8:	90050000 	andls	r0, r5, r0
     dec:	0052e902 	subseq	lr, r2, r2, lsl #18
     df0:	02910500 	addseq	r0, r1, #0, 10
     df4:	000034cb 	andeq	r3, r0, fp, asr #9
     df8:	c7029205 	strgt	r9, [r2, -r5, lsl #4]
     dfc:	05000034 	streq	r0, [r0, #-52]	; 0xffffffcc
     e00:	90910293 	umullsls	r0, r1, r3, r2
     e04:	94050000 	strls	r0, [r5], #-0
     e08:	006e8302 	rsbeq	r8, lr, r2, lsl #6
     e0c:	02950500 	addseq	r0, r5, #0, 10
     e10:	00007263 	andeq	r7, r0, r3, ror #4
     e14:	16029605 	strne	r9, [r2], -r5, lsl #12
     e18:	05000010 	streq	r0, [r0, #-16]
     e1c:	725e0297 	subsvc	r0, lr, #1879048201	; 0x70000009
     e20:	98050000 	stmdals	r5, {}	; <UNPREDICTABLE>
     e24:	005d6302 	subseq	r6, sp, r2, lsl #6
     e28:	02990500 	addseq	r0, r9, #0, 10
     e2c:	00005a16 	andeq	r5, r0, r6, lsl sl
     e30:	cd02a606 	stcgt	6, cr10, [r2, #-24]	; 0xffffffe8
     e34:	06000087 	streq	r0, [r0], -r7, lsl #1
     e38:	0e5202db 	mrceq	2, 2, r0, cr2, cr11, {6}
     e3c:	91060000 	mrsls	r0, (UNDEF: 6)
     e40:	0050c603 	subseq	ip, r0, r3, lsl #12
     e44:	03960500 	orrseq	r0, r6, #0, 10
     e48:	00003770 	andeq	r3, r0, r0, ror r7
     e4c:	bf039c06 	svclt	0x00039c06
     e50:	00000050 	andeq	r0, r0, r0, asr r0
     e54:	05000004 	streq	r0, [r0, #-4]
     e58:	004c5027 	subeq	r5, ip, r7, lsr #32
     e5c:	61280500 			; <UNDEFINED> instruction: 0x61280500
     e60:	05000065 	streq	r0, [r0, #-101]	; 0xffffff9b
     e64:	004c4b2a 	subeq	r4, ip, sl, lsr #22
     e68:	01890500 	orreq	r0, r9, r0, lsl #10
     e6c:	00006325 	andeq	r6, r0, r5, lsr #6
     e70:	0f018a05 	svceq	0x00018a05
     e74:	0500004b 	streq	r0, [r0, #-75]	; 0xffffffb5
     e78:	5b54018b 	blpl	15014ac <_Min_Stack_Size+0x15010ac>
     e7c:	8c050000 	stchi	0, cr0, [r5], {-0}
     e80:	006ba001 	rsbeq	sl, fp, r1
     e84:	018d0500 	orreq	r0, sp, r0, lsl #10
     e88:	00000ef0 	strdeq	r0, [r0], -r0	; <UNPREDICTABLE>
     e8c:	ec018e05 	stc	14, cr8, [r1], {5}
     e90:	0500000e 	streq	r0, [r0, #-14]
     e94:	1a23018f 	bne	8c14d8 <_Min_Stack_Size+0x8c10d8>
     e98:	90050000 	andls	r0, r5, r0
     e9c:	00632101 	rsbeq	r2, r3, r1, lsl #2
     ea0:	01910500 	orrseq	r0, r1, r0, lsl #10
     ea4:	00005ecf 	andeq	r5, r0, pc, asr #29
     ea8:	8301a106 	movwhi	sl, #4358	; 0x1106
     eac:	0600007f 			; <UNDEFINED> instruction: 0x0600007f
     eb0:	4f5501ee 	svcmi	0x005501ee
     eb4:	db060000 	blle	180ebc <_Min_Stack_Size+0x180abc>
     eb8:	000e5202 	andeq	r5, lr, r2, lsl #4
     ebc:	03910600 	orrseq	r0, r1, #0, 12
     ec0:	000050c6 	andeq	r5, r0, r6, asr #1
     ec4:	70039605 	andvc	r9, r3, r5, lsl #12
     ec8:	06000037 			; <UNDEFINED> instruction: 0x06000037
     ecc:	50bf039c 	umlalspl	r0, pc, ip, r3	; <UNPREDICTABLE>
     ed0:	a1050000 	mrsge	r0, (UNDEF: 5)
     ed4:	0047a603 	subeq	sl, r7, r3, lsl #12
     ed8:	03a60500 			; <UNDEFINED> instruction: 0x03a60500
     edc:	000075ad 	andeq	r7, r0, sp, lsr #11
     ee0:	00000400 	andeq	r0, r0, r0, lsl #8
     ee4:	62db0605 	sbcsvs	r0, fp, #5242880	; 0x500000
     ee8:	0f050000 	svceq	0x00050000
     eec:	00005638 	andeq	r5, r0, r8, lsr r6
     ef0:	6e1a1a05 	vnmlsvs.f32	s2, s20, s10
     ef4:	21050000 	mrscs	r0, (UNDEF: 5)
     ef8:	00007fd5 	ldrdeq	r7, [r0], -r5
     efc:	42632f05 	rsbmi	r2, r3, #5, 30
     f00:	3d050000 	stccc	0, cr0, [r5, #-0]
     f04:	00002cc7 	andeq	r2, r0, r7, asr #25
     f08:	53885305 	orrpl	r5, r8, #335544320	; 0x14000000
     f0c:	6d050000 	stcvs	0, cr0, [r5, #-0]
     f10:	00001910 	andeq	r1, r0, r0, lsl r9
     f14:	9a018c05 	bls	63f30 <_Min_Stack_Size+0x63b30>
     f18:	0500005c 	streq	r0, [r0, #-92]	; 0xffffffa4
     f1c:	17e401a6 	strbne	r0, [r4, r6, lsr #3]!
     f20:	bc050000 	stclt	0, cr0, [r5], {-0}
     f24:	0075cb01 	rsbseq	ip, r5, r1, lsl #22
     f28:	01ce0500 	biceq	r0, lr, r0, lsl #10
     f2c:	0000885d 	andeq	r8, r0, sp, asr r8
     f30:	6501f406 	strvs	pc, [r1, #-1030]	; 0xfffffbfa
     f34:	00000067 	andeq	r0, r0, r7, rrx
     f38:	05000004 	streq	r0, [r0, #-4]
     f3c:	00911c02 	addseq	r1, r1, r2, lsl #24
     f40:	940e0500 	strls	r0, [lr], #-1280	; 0xfffffb00
     f44:	05000063 	streq	r0, [r0, #-99]	; 0xffffff9d
     f48:	004a5b0f 	subeq	r5, sl, pc, lsl #22
     f4c:	4f100500 	svcmi	0x00100500
     f50:	0500007f 	streq	r0, [r0, #-127]	; 0xffffff81
     f54:	00040e11 	andeq	r0, r4, r1, lsl lr
     f58:	a1120500 	tstge	r2, r0, lsl #10
     f5c:	05000029 	streq	r0, [r0, #-41]	; 0xffffffd7
     f60:	00798013 	rsbseq	r8, r9, r3, lsl r0
     f64:	a5140500 	ldrge	r0, [r4, #-1280]	; 0xfffffb00
     f68:	05000040 	streq	r0, [r0, #-64]	; 0xffffffc0
     f6c:	0044d215 	subeq	sp, r4, r5, lsl r2
     f70:	f7160500 			; <UNDEFINED> instruction: 0xf7160500
     f74:	05000061 	streq	r0, [r0, #-97]	; 0xffffff9f
     f78:	008be817 	addeq	lr, fp, r7, lsl r8
     f7c:	9c180500 	cfldr32ls	mvfx0, [r8], {-0}
     f80:	05000087 	streq	r0, [r0, #-135]	; 0xffffff79
     f84:	00744419 	rsbseq	r4, r4, r9, lsl r4
     f88:	00040000 	andeq	r0, r4, r0
     f8c:	9c7d0600 	ldclls	6, cr0, [sp], #-0
     f90:	05000069 	streq	r0, [r0, #-105]	; 0xffffff97
     f94:	3f1b0190 	svccc	0x001b0190
     f98:	92060000 	andls	r0, r6, #0
     f9c:	007ad101 	rsbseq	sp, sl, r1, lsl #2
     fa0:	019e0500 	orrseq	r0, lr, r0, lsl #10
     fa4:	00008904 	andeq	r8, r0, r4, lsl #18
     fa8:	00000400 	andeq	r0, r0, r0, lsl #8
     fac:	8301a106 	movwhi	sl, #4358	; 0x1106
     fb0:	0600007f 			; <UNDEFINED> instruction: 0x0600007f
     fb4:	4f5501ee 	svcmi	0x005501ee
     fb8:	db060000 	blle	180fc0 <_Min_Stack_Size+0x180bc0>
     fbc:	000e5202 	andeq	r5, lr, r2, lsl #4
     fc0:	02e00500 	rsceq	r0, r0, #0, 10
     fc4:	00002944 	andeq	r2, r0, r4, asr #18
     fc8:	0c02e706 	stceq	7, cr14, [r2], {6}
     fcc:	06000025 	streq	r0, [r0], -r5, lsr #32
     fd0:	50c60391 	smullpl	r0, r6, r1, r3
     fd4:	96050000 	strls	r0, [r5], -r0
     fd8:	00377003 	eorseq	r7, r7, r3
     fdc:	039c0600 	orrseq	r0, ip, #0, 12
     fe0:	000050bf 	strheq	r5, [r0], -pc	; <UNPREDICTABLE>
     fe4:	a603a105 	strge	sl, [r3], -r5, lsl #2
     fe8:	00000047 	andeq	r0, r0, r7, asr #32
     fec:	05000004 	streq	r0, [r0, #-4]
     ff0:	1c3b01b8 	ldfnes	f0, [fp], #-736	; 0xfffffd20
     ff4:	c0050000 	andgt	r0, r5, r0
     ff8:	0071eb01 	rsbseq	lr, r1, r1, lsl #22
     ffc:	01c50500 	biceq	r0, r5, r0, lsl #10
    1000:	00007204 	andeq	r7, r0, r4, lsl #4
    1004:	4401ca05 	strmi	ip, [r1], #-2565	; 0xfffff5fb
    1008:	00000084 	andeq	r0, r0, r4, lsl #1
    100c:	05000004 	streq	r0, [r0, #-4]
    1010:	00802f11 	addeq	r2, r0, r1, lsl pc
    1014:	bf150500 	svclt	0x00150500
    1018:	05000075 	streq	r0, [r0, #-117]	; 0xffffff8b
    101c:	00846548 	addeq	r6, r4, r8, asr #10
    1020:	ff5b0500 			; <UNDEFINED> instruction: 0xff5b0500
    1024:	05000035 	streq	r0, [r0, #-53]	; 0xffffffcb
    1028:	00833a68 	addeq	r3, r3, r8, ror #20
    102c:	01aa0500 			; <UNDEFINED> instruction: 0x01aa0500
    1030:	00006176 	andeq	r6, r0, r6, ror r1
    1034:	4602b805 	strmi	fp, [r2], -r5, lsl #16
    1038:	05000075 	streq	r0, [r0, #-117]	; 0xffffff8b
    103c:	49ae02b9 	stmibmi	lr!, {r0, r3, r4, r5, r7, r9}
    1040:	ba050000 	blt	141048 <_Min_Stack_Size+0x140c48>
    1044:	005eb702 	subseq	fp, lr, r2, lsl #14
    1048:	02bb0500 	adcseq	r0, fp, #0, 10
    104c:	0000860c 	andeq	r8, r0, ip, lsl #12
    1050:	c602bc05 	strgt	fp, [r2], -r5, lsl #24
    1054:	05000074 	streq	r0, [r0, #-116]	; 0xffffff8c
    1058:	5ac702bd 	bpl	ff1c1b54 <_estack+0xdf1bf354>
    105c:	be050000 	cdplt	0, 0, cr0, cr5, cr0, {0}
    1060:	008dab02 	addeq	sl, sp, r2, lsl #22
    1064:	02ca0500 	sbceq	r0, sl, #0, 10
    1068:	00001b57 	andeq	r1, r0, r7, asr fp
    106c:	ff02cb05 			; <UNDEFINED> instruction: 0xff02cb05
    1070:	0500008d 	streq	r0, [r0, #-141]	; 0xffffff73
    1074:	044e02cc 	strbeq	r0, [lr], #-716	; 0xfffffd34
    1078:	ce050000 	cdpgt	0, 0, cr0, cr5, cr0, {0}
    107c:	001dab03 	andseq	sl, sp, r3, lsl #22
    1080:	03e80500 	mvneq	r0, #0, 10
    1084:	0000804f 	andeq	r8, r0, pc, asr #32
    1088:	4603f505 	strmi	pc, [r3], -r5, lsl #10
    108c:	0500008a 	streq	r0, [r0, #-138]	; 0xffffff76
    1090:	148603fd 	strne	r0, [r6], #1021	; 0x3fd
    1094:	86050000 	strhi	r0, [r5], -r0
    1098:	000db004 	andeq	fp, sp, r4
    109c:	048a0500 	streq	r0, [sl], #1280	; 0x500
    10a0:	00006022 	andeq	r6, r0, r2, lsr #32
    10a4:	ad048f05 	stcge	15, cr8, [r4, #-20]	; 0xffffffec
    10a8:	05000008 	streq	r0, [r0, #-8]
    10ac:	7e52049a 	mrcvc	4, 2, r0, cr2, cr10, {4}
    10b0:	9d050000 	stcls	0, cr0, [r5, #-0]
    10b4:	00033b04 	andeq	r3, r3, r4, lsl #22
    10b8:	04a30500 	strteq	r0, [r3], #1280	; 0x500
    10bc:	00003411 	andeq	r3, r0, r1, lsl r4
    10c0:	8d04a605 	stchi	6, cr10, [r4, #-20]	; 0xffffffec
    10c4:	0500004b 	streq	r0, [r0, #-75]	; 0xffffffb5
    10c8:	39de04a9 	ldmibcc	lr, {r0, r3, r5, r7, sl}^
    10cc:	bf050000 	svclt	0x00050000
    10d0:	005adf04 	subseq	sp, sl, r4, lsl #30
    10d4:	04c20500 	strbeq	r0, [r2], #1280	; 0x500
    10d8:	00003689 	andeq	r3, r0, r9, lsl #13
    10dc:	f404c505 	vst3.8	{d12,d14,d16}, [r4], r5
    10e0:	05000027 	streq	r0, [r0, #-39]	; 0xffffffd9
    10e4:	6f4304c6 	svcvs	0x004304c6
    10e8:	c7050000 	strgt	r0, [r5, -r0]
    10ec:	001d1d04 	andseq	r1, sp, r4, lsl #26
    10f0:	04c80500 	strbeq	r0, [r8], #1280	; 0x500
    10f4:	00005272 	andeq	r5, r0, r2, ror r2
    10f8:	3d04c905 	vstrcc.16	s24, [r4, #-10]	; <UNPREDICTABLE>
    10fc:	05000002 	streq	r0, [r0, #-2]
    1100:	899e04ca 	ldmibhi	lr, {r1, r3, r6, r7, sl}
    1104:	cb050000 	blgt	14110c <_Min_Stack_Size+0x140d0c>
    1108:	0066f104 	rsbeq	pc, r6, r4, lsl #2
    110c:	04cc0500 	strbeq	r0, [ip], #1280	; 0x500
    1110:	00003520 	andeq	r3, r0, r0, lsr #10
    1114:	bb04cd05 	bllt	134530 <_Min_Stack_Size+0x134130>
    1118:	05000071 	streq	r0, [r0, #-113]	; 0xffffff8f
    111c:	4aca04ce 	bmi	ff28245c <_estack+0xdf27fc5c>
    1120:	cf050000 	svcgt	0x00050000
    1124:	0043b104 	subeq	fp, r3, r4, lsl #2
    1128:	04d00500 	ldrbeq	r0, [r0], #1280	; 0x500
    112c:	00002c67 	andeq	r2, r0, r7, ror #24
    1130:	8d04d105 	stfhid	f5, [r4, #-20]	; 0xffffffec
    1134:	05000039 	streq	r0, [r0, #-57]	; 0xffffffc7
    1138:	2a1c04d2 	bcs	702488 <_Min_Stack_Size+0x702088>
    113c:	d3050000 	movwle	r0, #20480	; 0x5000
    1140:	002fab04 	eoreq	sl, pc, r4, lsl #22
    1144:	04d40500 	ldrbeq	r0, [r4], #1280	; 0x500
    1148:	00005bfc 	strdeq	r5, [r0], -ip
    114c:	7804d505 	stmdavc	r4, {r0, r2, r8, sl, ip, lr, pc}
    1150:	05000020 	streq	r0, [r0, #-32]	; 0xffffffe0
    1154:	265104d6 			; <UNDEFINED> instruction: 0x265104d6
    1158:	d7050000 	strle	r0, [r5, -r0]
    115c:	00069704 	andeq	r9, r6, r4, lsl #14
    1160:	04d80500 	ldrbeq	r0, [r8], #1280	; 0x500
    1164:	00004cb3 			; <UNDEFINED> instruction: 0x00004cb3
    1168:	fe04d905 	vseleq.f16	s26, s8, s10
    116c:	05000040 	streq	r0, [r0, #-64]	; 0xffffffc0
    1170:	793d04da 	ldmdbvc	sp!, {r1, r3, r4, r6, r7, sl}
    1174:	db050000 	blle	14117c <_Min_Stack_Size+0x140d7c>
    1178:	0069df04 	rsbeq	sp, r9, r4, lsl #30
    117c:	04dc0500 	ldrbeq	r0, [ip], #1280	; 0x500
    1180:	00002baa 	andeq	r2, r0, sl, lsr #23
    1184:	a6069b05 	strge	r9, [r6], -r5, lsl #22
    1188:	05000064 	streq	r0, [r0, #-100]	; 0xffffff9c
    118c:	04ae06a3 	strteq	r0, [lr], #1699	; 0x6a3
    1190:	ab050000 	blge	141198 <_Min_Stack_Size+0x140d98>
    1194:	000d2c06 	andeq	r2, sp, r6, lsl #24
    1198:	06bb0500 	ldrteq	r0, [fp], r0, lsl #10
    119c:	00002cdc 	ldrdeq	r2, [r0], -ip
    11a0:	0e06be05 	cdpeq	14, 0, cr11, cr6, cr5, {0}
    11a4:	05000080 	streq	r0, [r0, #-128]	; 0xffffff80
    11a8:	49d506c2 	ldmibmi	r5, {r1, r6, r7, r9, sl}^
    11ac:	04000000 	streq	r0, [r0], #-0
    11b0:	2f050000 	svccs	0x00050000
    11b4:	00003592 	muleq	r0, r2, r5
    11b8:	69bc3005 	ldmibvs	ip!, {r0, r2, ip, sp}
    11bc:	31050000 	mrscc	r0, (UNDEF: 5)
    11c0:	00002eba 			; <UNDEFINED> instruction: 0x00002eba
    11c4:	1ecd3405 	cdpne	4, 12, cr3, cr13, cr5, {0}
    11c8:	37050000 	strcc	r0, [r5, -r0]
    11cc:	000020e4 	andeq	r2, r0, r4, ror #1
    11d0:	8a623805 	bhi	188f1ec <_Min_Stack_Size+0x188edec>
    11d4:	3a050000 	bcc	1411dc <_Min_Stack_Size+0x140ddc>
    11d8:	0000442b 	andeq	r4, r0, fp, lsr #8
    11dc:	30353b05 	eorscc	r3, r5, r5, lsl #22
    11e0:	3c050000 	stccc	0, cr0, [r5], {-0}
    11e4:	000022c9 	andeq	r2, r0, r9, asr #5
    11e8:	80373d05 	eorshi	r3, r7, r5, lsl #26
    11ec:	40050000 	andmi	r0, r5, r0
    11f0:	00000fda 	ldrdeq	r0, [r0], -sl
    11f4:	0bfa4105 	bleq	ffe91610 <_estack+0xdfe8ee10>
    11f8:	42050000 	andmi	r0, r5, #0
    11fc:	0000769d 	muleq	r0, sp, r6
    1200:	12ce4c05 	sbcne	r4, lr, #1280	; 0x500
    1204:	4f050000 	svcmi	0x00050000
    1208:	0000630e 	andeq	r6, r0, lr, lsl #6
    120c:	7afe5505 	bvc	fff96628 <_estack+0xdff93e28>
    1210:	5c050000 	stcpl	0, cr0, [r5], {-0}
    1214:	000067c8 	andeq	r6, r0, r8, asr #15
    1218:	7a8c5d05 	bvc	fe318634 <_estack+0xde315e34>
    121c:	69050000 	stmdbvs	r5, {}	; <UNPREDICTABLE>
    1220:	000084d5 	ldrdeq	r8, [r0], -r5
    1224:	869d6a05 	ldrhi	r6, [sp], r5, lsl #20
    1228:	6e050000 	cdpvs	0, 0, cr0, cr5, cr0, {0}
    122c:	0000055c 	andeq	r0, r0, ip, asr r5
    1230:	7b836f05 	blvc	fe0dce4c <_estack+0xde0da64c>
    1234:	70050000 	andvc	r0, r5, r0
    1238:	00000018 	andeq	r0, r0, r8, lsl r0
    123c:	2c917305 	ldccs	3, cr7, [r1], {5}
    1240:	76050000 	strvc	r0, [r5], -r0
    1244:	00001466 	andeq	r1, r0, r6, ror #8
    1248:	30e87d05 	rsccc	r7, r8, r5, lsl #26
    124c:	7e050000 	cdpvc	0, 0, cr0, cr5, cr0, {0}
    1250:	000081e5 	andeq	r8, r0, r5, ror #3
    1254:	729a7f05 	addsvc	r7, sl, #5, 30
    1258:	83050000 	movwhi	r0, #20480	; 0x5000
    125c:	0067f801 	rsbeq	pc, r7, r1, lsl #16
    1260:	018a0500 	orreq	r0, sl, r0, lsl #10
    1264:	00008b78 	andeq	r8, r0, r8, ror fp
    1268:	31018e05 	tstcc	r1, r5, lsl #28
    126c:	05000063 	streq	r0, [r0, #-99]	; 0xffffff9d
    1270:	2396018f 	orrscs	r0, r6, #-1073741789	; 0xc0000023
    1274:	92050000 	andls	r0, r5, #0
    1278:	00579201 	subseq	r9, r7, r1, lsl #4
    127c:	01950500 	orrseq	r0, r5, r0, lsl #10
    1280:	000069a5 	andeq	r6, r0, r5, lsr #19
    1284:	50019605 	andpl	r9, r1, r5, lsl #12
    1288:	0500002d 	streq	r0, [r0, #-45]	; 0xffffffd3
    128c:	7bf70197 	blvc	ffdc18f0 <_estack+0xdfdbf0f0>
    1290:	99050000 	stmdbls	r5, {}	; <UNPREDICTABLE>
    1294:	004aa901 	subeq	sl, sl, r1, lsl #18
    1298:	019a0500 	orrseq	r0, sl, r0, lsl #10
    129c:	00003e7a 	andeq	r3, r0, sl, ror lr
    12a0:	0f019c05 	svceq	0x00019c05
    12a4:	05000088 	streq	r0, [r0, #-136]	; 0xffffff78
    12a8:	1af7019e 	bne	ffdc1928 <_estack+0xdfdbf128>
    12ac:	af050000 	svcge	0x00050000
    12b0:	0005f001 	andeq	pc, r5, r1
    12b4:	01b00500 	lslseq	r0, r0, #10
    12b8:	00001092 	muleq	r0, r2, r0
    12bc:	3801b105 	stmdacc	r1, {r0, r2, r8, ip, sp, pc}
    12c0:	05000005 	streq	r0, [r0, #-5]
    12c4:	648701b2 	strvs	r0, [r7], #434	; 0x1b2
    12c8:	b3050000 	movwlt	r0, #20480	; 0x5000
    12cc:	00301c01 	eorseq	r1, r0, r1, lsl #24
    12d0:	01b50500 			; <UNDEFINED> instruction: 0x01b50500
    12d4:	000076de 	ldrdeq	r7, [r0], -lr
    12d8:	9101b605 	tstls	r1, r5, lsl #12
    12dc:	0500006d 	streq	r0, [r0, #-109]	; 0xffffff93
    12e0:	5ef401b7 	mrcpl	1, 7, r0, cr4, cr7, {5}
    12e4:	ef050000 	svc	0x00050000
    12e8:	00019101 	andeq	r9, r1, r1, lsl #2
    12ec:	01fc0500 	mvnseq	r0, r0, lsl #10
    12f0:	000066bc 			; <UNDEFINED> instruction: 0x000066bc
    12f4:	c101fd05 	tstgt	r1, r5, lsl #26	; <UNPREDICTABLE>
    12f8:	05000048 	streq	r0, [r0, #-72]	; 0xffffffb8
    12fc:	54c501fe 	strbpl	r0, [r5], #510	; 0x1fe
    1300:	ff050000 			; <UNDEFINED> instruction: 0xff050000
    1304:	002bfe01 	eoreq	pc, fp, r1, lsl #28
    1308:	02800500 	addeq	r0, r0, #0, 10
    130c:	0000906c 	andeq	r9, r0, ip, rrx
    1310:	69028105 	stmdbvs	r2, {r0, r2, r8, pc}
    1314:	0500000a 	streq	r0, [r0, #-10]
    1318:	47790282 	ldrbmi	r0, [r9, -r2, lsl #5]!
    131c:	85050000 	strhi	r0, [r5, #-0]
    1320:	004cec02 	subeq	lr, ip, r2, lsl #24
    1324:	028a0500 	addeq	r0, sl, #0, 10
    1328:	0000218b 	andeq	r2, r0, fp, lsl #3
    132c:	1f02e405 	svcne	0x0002e405
    1330:	0500002c 	streq	r0, [r0, #-44]	; 0xffffffd4
    1334:	45d602f6 	ldrbmi	r0, [r6, #758]	; 0x2f6
    1338:	fc050000 	stc2	0, cr0, [r5], {-0}
    133c:	003d6d02 	eorseq	r6, sp, r2, lsl #26
    1340:	02fd0500 	rscseq	r0, sp, #0, 10
    1344:	000033f0 	strdeq	r3, [r0], -r0
    1348:	fa038405 	blx	e2364 <_Min_Stack_Size+0xe1f64>
    134c:	0500006f 	streq	r0, [r0, #-111]	; 0xffffff91
    1350:	2a8d038a 	bcs	fe342180 <_estack+0xde33f980>
    1354:	90050000 	andls	r0, r5, r0
    1358:	008d7f03 	addeq	r7, sp, r3, lsl #30
    135c:	03910500 	orrseq	r0, r1, #0, 10
    1360:	00004307 	andeq	r4, r0, r7, lsl #6
    1364:	9f039805 	svcls	0x00039805
    1368:	0500007c 	streq	r0, [r0, #-124]	; 0xffffff84
    136c:	82010399 	andhi	r0, r1, #1677721602	; 0x64000002
    1370:	a0050000 	andge	r0, r5, r0
    1374:	0052b603 	subseq	fp, r2, r3, lsl #12
    1378:	03a60500 			; <UNDEFINED> instruction: 0x03a60500
    137c:	000000e6 	andeq	r0, r0, r6, ror #1
    1380:	fc03ba05 	stc2	10, cr11, [r3], {5}	; <UNPREDICTABLE>
    1384:	05000044 	streq	r0, [r0, #-68]	; 0xffffffbc
    1388:	21dc03db 	ldrsbcs	r0, [ip, #59]	; 0x3b
    138c:	dc050000 	stcle	0, cr0, [r5], {-0}
    1390:	005fe403 	subseq	lr, pc, r3, lsl #8
    1394:	03e30500 	mvneq	r0, #0, 10
    1398:	00005bce 	andeq	r5, r0, lr, asr #23
    139c:	0503e405 	streq	lr, [r3, #-1029]	; 0xfffffbfb
    13a0:	0500002d 	streq	r0, [r0, #-45]	; 0xffffffd3
    13a4:	288303e7 	stmcs	r3, {r0, r1, r2, r5, r6, r7, r8, r9}
    13a8:	f1050000 			; <UNDEFINED> instruction: 0xf1050000
    13ac:	0042a403 	subeq	sl, r2, r3, lsl #8
    13b0:	03f20500 	mvnseq	r0, #0, 10
    13b4:	00007ee5 	andeq	r7, r0, r5, ror #29
    13b8:	4703fc05 	strmi	pc, [r3, -r5, lsl #24]
    13bc:	05000070 	streq	r0, [r0, #-112]	; 0xffffff90
    13c0:	7c300492 	cfldrsvc	mvf0, [r0], #-584	; 0xfffffdb8
    13c4:	94050000 	strls	r0, [r5], #-0
    13c8:	00853e04 	addeq	r3, r5, r4, lsl #28
    13cc:	04960500 	ldreq	r0, [r6], #1280	; 0x500
    13d0:	00008b3a 	andeq	r8, r0, sl, lsr fp
    13d4:	70049705 	andvc	r9, r4, r5, lsl #14
    13d8:	0500001b 	streq	r0, [r0, #-27]	; 0xffffffe5
    13dc:	8eeb0499 	mcrhi	4, 7, r0, cr11, cr9, {4}
    13e0:	a3050000 	movwge	r0, #20480	; 0x5000
    13e4:	00662004 	rsbeq	r2, r6, r4
    13e8:	04a80500 	strteq	r0, [r8], #1280	; 0x500
    13ec:	000083b3 			; <UNDEFINED> instruction: 0x000083b3
    13f0:	3e04ad05 	cdpcc	13, 0, cr10, cr4, cr5, {0}
    13f4:	05000012 	streq	r0, [r0, #-18]	; 0xffffffee
    13f8:	4db704b0 	cfldrsmi	mvf0, [r7, #704]!	; 0x2c0
    13fc:	b4050000 	strlt	r0, [r5], #-0
    1400:	007bab04 	rsbseq	sl, fp, r4, lsl #22
    1404:	04b60500 	ldrteq	r0, [r6], #1280	; 0x500
    1408:	0000251a 	andeq	r2, r0, sl, lsl r5
    140c:	4e04d905 	vmlami.f16	s26, s8, s10	; <UNPREDICTABLE>
    1410:	05000062 	streq	r0, [r0, #-98]	; 0xffffff9e
    1414:	78ba04dd 	ldmvc	sl!, {r0, r2, r3, r4, r6, r7, sl}
    1418:	e1050000 	mrs	r0, (UNDEF: 5)
    141c:	0005b504 	andeq	fp, r5, r4, lsl #10
    1420:	04e50500 	strbteq	r0, [r5], #1280	; 0x500
    1424:	00005e3d 	andeq	r5, r0, sp, lsr lr
    1428:	fe04e905 	vseleq.f16	s28, s8, s10
    142c:	05000064 	streq	r0, [r0, #-100]	; 0xffffff9c
    1430:	26fc04ed 	ldrbtcs	r0, [ip], sp, ror #9
    1434:	f1050000 			; <UNDEFINED> instruction: 0xf1050000
    1438:	00811e04 	addeq	r1, r1, r4, lsl #28
    143c:	04f50500 	ldrbteq	r0, [r5], #1280	; 0x500
    1440:	00008f6a 	andeq	r8, r0, sl, ror #30
    1444:	3104fc05 	tstcc	r4, r5, lsl #24	; <UNPREDICTABLE>
    1448:	05000015 	streq	r0, [r0, #-21]	; 0xffffffeb
    144c:	0d9604fd 	cfldrseq	mvf0, [r6, #1012]	; 0x3f4
    1450:	fe050000 	cdp2	0, 0, cr0, cr5, cr0, {0}
    1454:	002fe204 	eoreq	lr, pc, r4, lsl #4
    1458:	04ff0500 	ldrbteq	r0, [pc], #1280	; 1460 <_Min_Stack_Size+0x1060>
    145c:	00004906 	andeq	r4, r0, r6, lsl #18
    1460:	1e058005 	cdpne	0, 0, cr8, cr5, cr5, {0}
    1464:	05000032 	streq	r0, [r0, #-50]	; 0xffffffce
    1468:	64580595 	ldrbvs	r0, [r8], #-1429	; 0xfffffa6b
    146c:	96050000 	strls	r0, [r5], -r0
    1470:	008bc805 	addeq	ip, fp, r5, lsl #16
    1474:	05a80500 	streq	r0, [r8, #1280]!	; 0x500
    1478:	00007ce7 	andeq	r7, r0, r7, ror #25
    147c:	4805ae05 	stmdami	r5, {r0, r2, r9, sl, fp, sp, pc}
    1480:	0500007a 	streq	r0, [r0, #-122]	; 0xffffff86
    1484:	0a9605b1 	beq	fe582b50 <_estack+0xde580350>
    1488:	b3050000 	movwlt	r0, #20480	; 0x5000
    148c:	003ec805 	eorseq	ip, lr, r5, lsl #16
    1490:	05b70500 	ldreq	r0, [r7, #1280]!	; 0x500
    1494:	00006ec5 	andeq	r6, r0, r5, asr #29
    1498:	9705b905 	strls	fp, [r5, -r5, lsl #18]
    149c:	0500003d 	streq	r0, [r0, #-61]	; 0xffffffc3
    14a0:	5dbb05bd 	cfldr32pl	mvfx0, [fp, #756]!	; 0x2f4
    14a4:	c0050000 	andgt	r0, r5, r0
    14a8:	00383805 	eorseq	r3, r8, r5, lsl #16
    14ac:	05c20500 	strbeq	r0, [r2, #1280]	; 0x500
    14b0:	000090d5 	ldrdeq	r9, [r0], -r5
    14b4:	ec05c605 	stc	6, cr12, [r5], {5}
    14b8:	05000001 	streq	r0, [r0, #-1]
    14bc:	2e4c05c8 	cdpcs	5, 4, cr0, cr12, cr8, {6}
    14c0:	ca050000 	bgt	1414c8 <_Min_Stack_Size+0x1410c8>
    14c4:	00456005 	subeq	r6, r5, r5
    14c8:	05ce0500 	strbeq	r0, [lr, #1280]	; 0x500
    14cc:	0000713f 	andeq	r7, r0, pc, lsr r1
    14d0:	4605d105 	strmi	sp, [r5], -r5, lsl #2
    14d4:	0500007b 	streq	r0, [r0, #-123]	; 0xffffff85
    14d8:	7b1105d2 	blvc	442c28 <_Min_Stack_Size+0x442828>
    14dc:	04000000 	streq	r0, [r0], #-0
    14e0:	08050000 	stmdaeq	r5, {}	; <UNPREDICTABLE>
    14e4:	00008631 	andeq	r8, r0, r1, lsr r6
    14e8:	5c450d06 	mcrrpl	13, 0, r0, r5, cr6
    14ec:	10050000 	andne	r0, r5, r0
    14f0:	000065f6 	strdeq	r6, [r0], -r6	; <UNPREDICTABLE>
    14f4:	00000400 	andeq	r0, r0, r0, lsl #8
    14f8:	67213805 	strvs	r3, [r1, -r5, lsl #16]!
    14fc:	3c050000 	stccc	0, cr0, [r5], {-0}
    1500:	00008dc0 	andeq	r8, r0, r0, asr #27
    1504:	1ea13d05 	cdpne	13, 10, cr3, cr1, cr5, {0}
    1508:	3f050000 	svccc	0x00050000
    150c:	00004385 	andeq	r4, r0, r5, lsl #7
    1510:	52f44305 	rscspl	r4, r4, #335544320	; 0x14000000
    1514:	a5050000 	strge	r0, [r5, #-0]
    1518:	00866c01 	addeq	r6, r6, r1, lsl #24
    151c:	00040000 	andeq	r0, r4, r0
    1520:	310a0500 	tstcc	sl, r0, lsl #10
    1524:	05000088 	streq	r0, [r0, #-136]	; 0xffffff78
    1528:	00561c10 	subseq	r1, r6, r0, lsl ip
    152c:	9a2a0600 	bls	a82d34 <_Min_Stack_Size+0xa82934>
    1530:	0600006d 	streq	r0, [r0], -sp, rrx
    1534:	007ad12b 	rsbseq	sp, sl, fp, lsr #2
    1538:	6d2c0600 	stcvs	6, cr0, [ip, #-0]
    153c:	06000007 	streq	r0, [r0], -r7
    1540:	0064a02d 	rsbeq	sl, r4, sp, lsr #32
    1544:	692e0200 	stmdbvs	lr!, {r9}
    1548:	0600746e 	streq	r7, [r0], -lr, ror #8
    154c:	00912c2f 	addseq	r2, r1, pc, lsr #24
    1550:	71300600 	teqvc	r0, r0, lsl #12
    1554:	05000010 	streq	r0, [r0, #-16]
    1558:	00496a31 	subeq	r6, r9, r1, lsr sl
    155c:	68320500 	ldmdavs	r2!, {r8, sl}
    1560:	05000049 	streq	r0, [r0, #-73]	; 0xffffffb7
    1564:	005c3d33 	subseq	r3, ip, r3, lsr sp
    1568:	2f340500 	svccs	0x00340500
    156c:	05000087 	streq	r0, [r0, #-135]	; 0xffffff79
    1570:	00007a35 	andeq	r7, r0, r5, lsr sl
    1574:	8e360500 	cfabs32hi	mvfx0, mvfx6
    1578:	0500005b 	streq	r0, [r0, #-91]	; 0xffffffa5
    157c:	008d5737 	addeq	r5, sp, r7, lsr r7
    1580:	75400500 	strbvc	r0, [r0, #-1280]	; 0xfffffb00
    1584:	0500003f 	streq	r0, [r0, #-63]	; 0xffffffc1
    1588:	008def47 	addeq	lr, sp, r7, asr #30
    158c:	204f0500 	subcs	r0, pc, r0, lsl #10
    1590:	05000093 	streq	r0, [r0, #-147]	; 0xffffff6d
    1594:	003f0f5a 	eorseq	r0, pc, sl, asr pc	; <UNPREDICTABLE>
    1598:	43650500 	cmnmi	r5, #0, 10
    159c:	05000086 	streq	r0, [r0, #-134]	; 0xffffff7a
    15a0:	008c846e 	addeq	r8, ip, lr, ror #8
    15a4:	92750500 	rsbsls	r0, r5, #0, 10
    15a8:	0500007d 	streq	r0, [r0, #-125]	; 0xffffff83
    15ac:	001d077e 	andseq	r0, sp, lr, ror r7
    15b0:	01850500 	orreq	r0, r5, r0, lsl #10
    15b4:	000082ad 	andeq	r8, r0, sp, lsr #5
    15b8:	47019005 	strmi	r9, [r1, -r5]
    15bc:	05000049 	streq	r0, [r0, #-73]	; 0xffffffb7
    15c0:	58770194 	ldmdapl	r7!, {r2, r4, r7, r8}^
    15c4:	9f050000 	svcls	0x00050000
    15c8:	007c2201 	rsbseq	r2, ip, r1, lsl #4
    15cc:	01aa0500 			; <UNDEFINED> instruction: 0x01aa0500
    15d0:	0000210a 	andeq	r2, r0, sl, lsl #2
    15d4:	e201b305 	and	fp, r1, #335544320	; 0x14000000
    15d8:	06000066 	streq	r0, [r0], -r6, rrx
    15dc:	6d9a01b5 	ldfvss	f0, [sl, #724]	; 0x2d4
    15e0:	b6060000 	strlt	r0, [r6], -r0
    15e4:	007ad101 	rsbseq	sp, sl, r1, lsl #2
    15e8:	01b70600 			; <UNDEFINED> instruction: 0x01b70600
    15ec:	0000076d 	andeq	r0, r0, sp, ror #14
    15f0:	a001b806 	andge	fp, r1, r6, lsl #16
    15f4:	02000064 	andeq	r0, r0, #100	; 0x64
    15f8:	6e6901b9 	mcrvs	1, 3, r0, cr9, cr9, {5}
    15fc:	ba060074 	blt	1817d4 <_Min_Stack_Size+0x1813d4>
    1600:	00107101 	andseq	r7, r0, r1, lsl #2
    1604:	01bf0600 			; <UNDEFINED> instruction: 0x01bf0600
    1608:	0000912c 	andeq	r9, r0, ip, lsr #2
    160c:	00000400 	andeq	r0, r0, r0, lsl #8
    1610:	466a0a05 	strbtmi	r0, [sl], -r5, lsl #20
    1614:	15050000 	strne	r0, [r5, #-0]
    1618:	00007359 	andeq	r7, r0, r9, asr r3
    161c:	6e3c1905 	vaddvs.f16	s2, s24, s10	; <UNPREDICTABLE>
    1620:	1b050000 	blne	141628 <_Min_Stack_Size+0x141228>
    1624:	00004264 	andeq	r4, r0, r4, ror #4
    1628:	357a2105 	ldrbcc	r2, [sl, #-261]!	; 0xfffffefb
    162c:	25050000 	strcs	r0, [r5, #-0]
    1630:	00001164 	andeq	r1, r0, r4, ror #2
    1634:	2cc82705 	stclcs	7, cr2, [r8], {5}
    1638:	2d050000 	stccs	0, cr0, [r5, #-0]
    163c:	00007496 	muleq	r0, r6, r4
    1640:	70d33105 	sbcsvc	r3, r3, r5, lsl #2
    1644:	33050000 	movwcc	r0, #20480	; 0x5000
    1648:	00005389 	andeq	r5, r0, r9, lsl #7
    164c:	8e9b3905 	vfnmshi.f16	s6, s22, s10	; <UNPREDICTABLE>
    1650:	3d050000 	stccc	0, cr0, [r5, #-0]
    1654:	0000582d 	andeq	r5, r0, sp, lsr #16
    1658:	19113f05 	ldmdbne	r1, {r0, r2, r8, r9, sl, fp, ip, sp}
    165c:	44050000 	strmi	r0, [r5], #-0
    1660:	00008b26 	andeq	r8, r0, r6, lsr #22
    1664:	6c924905 			; <UNDEFINED> instruction: 0x6c924905
    1668:	4e050000 	cdpmi	0, 0, cr0, cr5, cr0, {0}
    166c:	0000159f 	muleq	r0, pc, r5	; <UNPREDICTABLE>
    1670:	6e605305 	cdpvs	3, 6, cr5, cr0, cr5, {0}
    1674:	04000000 	streq	r0, [r0], #-0
    1678:	17050000 	strne	r0, [r5, -r0]
    167c:	00005c9b 	muleq	r0, fp, ip
    1680:	17e51d05 	strbne	r1, [r5, r5, lsl #26]!
    1684:	23050000 	movwcs	r0, #20480	; 0x5000
    1688:	000075cc 	andeq	r7, r0, ip, asr #11
    168c:	885e2905 	ldmdahi	lr, {r0, r2, r8, fp, sp}^
    1690:	35050000 	strcc	r0, [r5, #-0]
    1694:	00001d86 	andeq	r1, r0, r6, lsl #27
    1698:	5a723f05 	bpl	1c912b4 <_Min_Stack_Size+0x1c90eb4>
    169c:	49050000 	stmdbmi	r5, {}	; <UNPREDICTABLE>
    16a0:	00000fe5 	andeq	r0, r0, r5, ror #31
    16a4:	26385305 	ldrtcs	r5, [r8], -r5, lsl #6
    16a8:	80050000 	andhi	r0, r5, r0
    16ac:	0091b601 	addseq	fp, r1, r1, lsl #12
    16b0:	01810500 	orreq	r0, r1, r0, lsl #10
    16b4:	000006d4 	ldrdeq	r0, [r0], -r4
    16b8:	5e018205 	cdppl	2, 0, cr8, cr1, cr5, {0}
    16bc:	05000019 	streq	r0, [r0, #-25]	; 0xffffffe7
    16c0:	11470198 			; <UNDEFINED> instruction: 0x11470198
    16c4:	99050000 	stmdbls	r5, {}	; <UNPREDICTABLE>
    16c8:	00000001 	andeq	r0, r0, r1
    16cc:	019a0500 	orrseq	r0, sl, r0, lsl #10
    16d0:	00008cdb 	ldrdeq	r8, [r0], -fp
    16d4:	e501a205 	str	sl, [r1, #-517]	; 0xfffffdfb
    16d8:	0500007f 	streq	r0, [r0, #-127]	; 0xffffff81
    16dc:	297d01a3 	ldmdbcs	sp!, {r0, r1, r5, r7, r8}^
    16e0:	a4050000 	strge	r0, [r5], #-0
    16e4:	0073fe01 	rsbseq	pc, r3, r1, lsl #28
    16e8:	01ae0500 			; <UNDEFINED> instruction: 0x01ae0500
    16ec:	00000268 	andeq	r0, r0, r8, ror #4
    16f0:	fd01af05 	stc2	15, cr10, [r1, #-20]	; 0xffffffec
    16f4:	0500000e 	streq	r0, [r0, #-14]
    16f8:	73cc01b0 	bicvc	r0, ip, #176, 2	; 0x2c
    16fc:	b8050000 	stmdalt	r5, {}	; <UNPREDICTABLE>
    1700:	00549a01 	subseq	r9, r4, r1, lsl #20
    1704:	01b90500 			; <UNDEFINED> instruction: 0x01b90500
    1708:	00000c93 	muleq	r0, r3, ip
    170c:	f501ba05 			; <UNDEFINED> instruction: 0xf501ba05
    1710:	0500002e 	streq	r0, [r0, #-46]	; 0xffffffd2
    1714:	730101c4 	movwvc	r0, #4548	; 0x11c4
    1718:	c5050000 	strgt	r0, [r5, #-0]
    171c:	002d7e01 	eoreq	r7, sp, r1, lsl #28
    1720:	01c60500 	biceq	r0, r6, r0, lsl #10
    1724:	000036fb 	strdeq	r3, [r0], -fp
    1728:	9101d405 	tstls	r1, r5, lsl #8
    172c:	05000031 	streq	r0, [r0, #-49]	; 0xffffffcf
    1730:	28b601d5 	ldmcs	r6!, {r0, r2, r4, r6, r7, r8}
    1734:	d6050000 	strle	r0, [r5], -r0
    1738:	00772001 	rsbseq	r2, r7, r1
    173c:	01e60500 	mvneq	r0, r0, lsl #10
    1740:	00007cc8 	andeq	r7, r0, r8, asr #25
    1744:	1d01e705 	stcne	7, cr14, [r1, #-20]	; 0xffffffec
    1748:	05000050 	streq	r0, [r0, #-80]	; 0xffffffb0
    174c:	2ab701e8 	bcs	fedc1ef4 <_estack+0xdedbf6f4>
    1750:	f6050000 			; <UNDEFINED> instruction: 0xf6050000
    1754:	00142d01 	andseq	r2, r4, r1, lsl #26
    1758:	01f70500 	mvnseq	r0, r0, lsl #10
    175c:	000011d1 	ldrdeq	r1, [r0], -r1	; <UNPREDICTABLE>
    1760:	f301f805 	vsub.i8	d15, d1, d5
    1764:	05000056 	streq	r0, [r0, #-86]	; 0xffffffaa
    1768:	90ae0286 	adcls	r0, lr, r6, lsl #5
    176c:	87050000 	strhi	r0, [r5, -r0]
    1770:	00258e02 	eoreq	r8, r5, r2, lsl #28
    1774:	02880500 	addeq	r0, r8, #0, 10
    1778:	00006af3 	strdeq	r6, [r0], -r3
    177c:	2b029605 	blcs	a6f98 <_Min_Stack_Size+0xa6b98>
    1780:	0500003d 	streq	r0, [r0, #-61]	; 0xffffffc3
    1784:	5a290297 	bpl	a421e8 <_Min_Stack_Size+0xa41de8>
    1788:	98050000 	stmdals	r5, {}	; <UNPREDICTABLE>
    178c:	002e1402 	eoreq	r1, lr, r2, lsl #8
    1790:	02a60500 	adceq	r0, r6, #0, 10
    1794:	000015cd 	andeq	r1, r0, sp, asr #11
    1798:	4902a705 	stmdbmi	r2, {r0, r2, r8, r9, sl, sp, pc}
    179c:	05000091 	streq	r0, [r0, #-145]	; 0xffffff6f
    17a0:	74fc02a8 	ldrbtvc	r0, [ip], #680	; 0x2a8
    17a4:	b6050000 	strlt	r0, [r5], -r0
    17a8:	0062b202 	rsbeq	fp, r2, r2, lsl #4
    17ac:	02b70500 	adcseq	r0, r7, #0, 10
    17b0:	00008880 	andeq	r8, r0, r0, lsl #17
    17b4:	1b02b805 	blne	af7d0 <_Min_Stack_Size+0xaf3d0>
    17b8:	05000033 	streq	r0, [r0, #-51]	; 0xffffffcd
    17bc:	4c5b02c6 	lfmmi	f0, 2, [fp], {198}	; 0xc6
    17c0:	c7050000 	strgt	r0, [r5, -r0]
    17c4:	005d4602 	subseq	r4, sp, r2, lsl #12
    17c8:	02cf0500 	sbceq	r0, pc, #0, 10
    17cc:	000049f3 	strdeq	r4, [r0], -r3
    17d0:	1102d705 	tstne	r2, r5, lsl #14
    17d4:	05000012 	streq	r0, [r0, #-18]	; 0xffffffee
    17d8:	354602dd 	strbcc	r0, [r6, #-733]	; 0xfffffd23
    17dc:	de050000 	cdple	0, 0, cr0, cr5, cr0, {0}
    17e0:	002a6602 	eoreq	r6, sl, r2, lsl #12
    17e4:	02e20500 	rsceq	r0, r2, #0, 10
    17e8:	00000d60 	andeq	r0, r0, r0, ror #26
    17ec:	f002e605 			; <UNDEFINED> instruction: 0xf002e605
    17f0:	05000091 	streq	r0, [r0, #-145]	; 0xffffff6f
    17f4:	110e02eb 	smlattne	lr, fp, r2, r0
    17f8:	f6050000 			; <UNDEFINED> instruction: 0xf6050000
    17fc:	0065aa02 	rsbeq	sl, r5, r2, lsl #20
    1800:	03800500 	orreq	r0, r0, #0, 10
    1804:	0000515b 	andeq	r5, r0, fp, asr r1
    1808:	2f038505 	svccs	0x00038505
    180c:	05000000 	streq	r0, [r0, #-0]
    1810:	45a6038c 	strmi	r0, [r6, #908]!	; 0x38c
    1814:	8d050000 	stchi	0, cr0, [r5, #-0]
    1818:	00734103 	rsbseq	r4, r3, r3, lsl #2
    181c:	03980500 	orrseq	r0, r8, #0, 10
    1820:	0000104c 	andeq	r1, r0, ip, asr #32
    1824:	1e039905 	vmlane.f16	s18, s6, s10	; <UNPREDICTABLE>
    1828:	05000072 	streq	r0, [r0, #-114]	; 0xffffff8e
    182c:	768503a4 	strvc	r0, [r5], r4, lsr #7
    1830:	a5050000 	strge	r0, [r5, #-0]
    1834:	0058b503 	subseq	fp, r8, r3, lsl #10
    1838:	03b10500 			; <UNDEFINED> instruction: 0x03b10500
    183c:	0000061a 	andeq	r0, r0, sl, lsl r6
    1840:	9803b205 	stmdals	r3, {r0, r2, r9, ip, sp, pc}
    1844:	05000073 	streq	r0, [r0, #-115]	; 0xffffff8d
    1848:	285903c1 	ldmdacs	r9, {r0, r6, r7, r8, r9}^
    184c:	c2050000 	andgt	r0, r5, #0
    1850:	00673803 	rsbeq	r3, r7, r3, lsl #16
    1854:	00040000 	andeq	r0, r4, r0
    1858:	58140500 	ldmdapl	r4, {r8, sl}
    185c:	05000032 	streq	r0, [r0, #-50]	; 0xffffffce
    1860:	008d3715 	addeq	r3, sp, r5, lsl r7
    1864:	88160500 	ldmdahi	r6, {r8, sl}
    1868:	05000066 	streq	r0, [r0, #-102]	; 0xffffff9a
    186c:	0042e918 	subeq	lr, r2, r8, lsl r9
    1870:	4c1a0500 	cfldr32mi	mvfx0, [sl], {-0}
    1874:	05000082 	streq	r0, [r0, #-130]	; 0xffffff7e
    1878:	004a921c 	subeq	r9, sl, ip, lsl r2
    187c:	d2240500 	eorle	r0, r4, #0, 10
    1880:	05000031 	streq	r0, [r0, #-49]	; 0xffffffcf
    1884:	0077dd2c 	rsbseq	sp, r7, ip, lsr #26
    1888:	7a2d0500 	bvc	b42c90 <_Min_Stack_Size+0xb42890>
    188c:	0500006b 	streq	r0, [r0, #-107]	; 0xffffff95
    1890:	00764f2f 	rsbseq	r4, r6, pc, lsr #30
    1894:	5e300500 	cfabs32pl	mvfx0, mvfx0
    1898:	05000063 	streq	r0, [r0, #-99]	; 0xffffff9d
    189c:	00130734 	andseq	r0, r3, r4, lsr r7
    18a0:	da370500 	ble	dc2ca8 <_Min_Stack_Size+0xdc28a8>
    18a4:	0500007a 	streq	r0, [r0, #-122]	; 0xffffff86
    18a8:	0025c639 	eoreq	ip, r5, r9, lsr r6
    18ac:	d7410500 	strble	r0, [r1, -r0, lsl #10]
    18b0:	05000091 	streq	r0, [r0, #-145]	; 0xffffff6f
    18b4:	00556542 	subseq	r6, r5, r2, asr #10
    18b8:	01930500 	orrseq	r0, r3, r0, lsl #10
    18bc:	000020af 	andeq	r2, r0, pc, lsr #1
    18c0:	a8019405 	stmdage	r1, {r0, r2, sl, ip, pc}
    18c4:	05000079 	streq	r0, [r0, #-121]	; 0xffffff87
    18c8:	6db20195 	ldfvss	f0, [r2, #596]!	; 0x254
    18cc:	96050000 	strls	r0, [r5], -r0
    18d0:	00388501 	eorseq	r8, r8, r1, lsl #10
    18d4:	01970500 	orrseq	r0, r7, r0, lsl #10
    18d8:	0000449d 	muleq	r0, sp, r4
    18dc:	7d019805 	stcvc	8, cr9, [r1, #-20]	; 0xffffffec
    18e0:	05000062 	streq	r0, [r0, #-98]	; 0xffffff9e
    18e4:	41a001a0 	lsrmi	r0, r0, #3
    18e8:	a1050000 	mrsge	r0, (UNDEF: 5)
    18ec:	00402e01 	subeq	r2, r0, r1, lsl #28
    18f0:	01a20500 			; <UNDEFINED> instruction: 0x01a20500
    18f4:	00003ea5 	andeq	r3, r0, r5, lsr #29
    18f8:	2401a305 	strcs	sl, [r1], #-773	; 0xfffffcfb
    18fc:	05000042 	streq	r0, [r0, #-66]	; 0xffffffbe
    1900:	063201a7 	ldrteq	r0, [r2], -r7, lsr #3
    1904:	aa050000 	bge	14190c <_Min_Stack_Size+0x14150c>
    1908:	00015f01 	andeq	r5, r1, r1, lsl #30
    190c:	01ad0500 			; <UNDEFINED> instruction: 0x01ad0500
    1910:	000087db 	ldrdeq	r8, [r0], -fp
    1914:	6801b005 	stmdavs	r1, {r0, r2, ip, sp, pc}
    1918:	05000025 	streq	r0, [r0, #-37]	; 0xffffffdb
    191c:	86cd01b1 			; <UNDEFINED> instruction: 0x86cd01b1
    1920:	b2050000 	andlt	r0, r5, #0
    1924:	00117d01 	andseq	r7, r1, r1, lsl #26
    1928:	01ba0500 			; <UNDEFINED> instruction: 0x01ba0500
    192c:	0000918a 	andeq	r9, r0, sl, lsl #3
    1930:	0c01bb05 			; <UNDEFINED> instruction: 0x0c01bb05
    1934:	05000005 	streq	r0, [r0, #-5]
    1938:	482201bc 	stmdami	r2!, {r2, r3, r4, r5, r7, r8}
    193c:	bd050000 	stclt	0, cr0, [r5, #-0]
    1940:	00642501 	rsbeq	r2, r4, r1, lsl #10
    1944:	01be0500 			; <UNDEFINED> instruction: 0x01be0500
    1948:	00001925 	andeq	r1, r0, r5, lsr #18
    194c:	6701c105 	strvs	ip, [r1, -r5, lsl #2]
    1950:	05000057 	streq	r0, [r0, #-87]	; 0xffffffa9
    1954:	364501c4 	strbcc	r0, [r5], -r4, asr #3
    1958:	c5050000 	strgt	r0, [r5, #-0]
    195c:	00718601 	rsbseq	r8, r1, r1, lsl #12
    1960:	01c60500 	biceq	r0, r6, r0, lsl #10
    1964:	00007782 	andeq	r7, r0, r2, lsl #15
    1968:	e301ca05 	movw	ip, #6661	; 0x1a05
    196c:	05000019 	streq	r0, [r0, #-25]	; 0xffffffe7
    1970:	4c8101cb 	stfmis	f0, [r1], {203}	; 0xcb
    1974:	cc050000 	stcgt	0, cr0, [r5], {-0}
    1978:	0065c401 	rsbeq	ip, r5, r1, lsl #8
    197c:	01d30500 	bicseq	r0, r3, r0, lsl #10
    1980:	00006fa4 	andeq	r6, r0, r4, lsr #31
    1984:	4101d405 	tstmi	r1, r5, lsl #8
    1988:	05000028 	streq	r0, [r0, #-40]	; 0xffffffd8
    198c:	514f01d5 	ldrdpl	r0, [pc, #-21]	; 197f <_Min_Stack_Size+0x157f>
    1990:	d6050000 	strle	r0, [r5], -r0
    1994:	00336501 	eorseq	r6, r3, r1, lsl #10
    1998:	01d70500 	bicseq	r0, r7, r0, lsl #10
    199c:	00004b49 	andeq	r4, r0, r9, asr #22
    19a0:	8501d805 	strhi	sp, [r1, #-2053]	; 0xfffff7fb
    19a4:	05000058 	streq	r0, [r0, #-88]	; 0xffffffa8
    19a8:	1eb001d9 	mrcne	1, 5, r0, cr0, cr9, {6}
    19ac:	da050000 	ble	1419b4 <_Min_Stack_Size+0x1415b4>
    19b0:	007ed801 	rsbseq	sp, lr, r1, lsl #16
    19b4:	01db0500 	bicseq	r0, fp, r0, lsl #10
    19b8:	00007824 	andeq	r7, r0, r4, lsr #16
    19bc:	e701dc05 	str	sp, [r1, -r5, lsl #24]
    19c0:	05000002 	streq	r0, [r0, #-2]
    19c4:	56e501dd 	usatpl	r0, #5, sp, asr #3
    19c8:	de050000 	cdple	0, 0, cr0, cr5, cr0, {0}
    19cc:	0068f801 	rsbeq	pc, r8, r1, lsl #16
    19d0:	01df0500 	bicseq	r0, pc, r0, lsl #10
    19d4:	00007b75 	andeq	r7, r0, r5, ror fp
    19d8:	6a01e005 	bvs	799f4 <_Min_Stack_Size+0x795f4>
    19dc:	0500002b 	streq	r0, [r0, #-43]	; 0xffffffd5
    19e0:	571b01e1 	ldrpl	r0, [fp, -r1, ror #3]
    19e4:	e2050000 	and	r0, r5, #0
    19e8:	006e7501 	rsbeq	r7, lr, r1, lsl #10
    19ec:	01e50500 	mvneq	r0, r0, lsl #10
    19f0:	000049a0 	andeq	r4, r0, r0, lsr #19
    19f4:	7b01e605 	blvc	7b210 <_Min_Stack_Size+0x7ae10>
    19f8:	05000093 	streq	r0, [r0, #-147]	; 0xffffff6d
    19fc:	5fb901e7 	svcpl	0x00b901e7
    1a00:	f0050000 			; <UNDEFINED> instruction: 0xf0050000
    1a04:	0033af01 	eorseq	sl, r3, r1, lsl #30
    1a08:	01f10500 	mvnseq	r0, r0, lsl #10
    1a0c:	0000294d 	andeq	r2, r0, sp, asr #18
    1a10:	8401f205 	strhi	pc, [r1], #-517	; 0xfffffdfb
    1a14:	0500000f 	streq	r0, [r0, #-15]
    1a18:	82de01f3 	sbcshi	r0, lr, #-1073741764	; 0xc000003c
    1a1c:	f4050000 	vst4.8	{d0-d3}, [r5], r0
    1a20:	000b1601 	andeq	r1, fp, r1, lsl #12
    1a24:	01f50500 	mvnseq	r0, r0, lsl #10
    1a28:	00003dfc 	strdeq	r3, [r0], -ip
    1a2c:	ec01f605 	stc	6, cr15, [r1], {5}
    1a30:	05000076 	streq	r0, [r0, #-118]	; 0xffffff8a
    1a34:	611801f9 			; <UNDEFINED> instruction: 0x611801f9
    1a38:	fa050000 	blx	141a40 <_Min_Stack_Size+0x141640>
    1a3c:	00220b01 	eoreq	r0, r2, r1, lsl #22
    1a40:	01fb0500 	mvnseq	r0, r0, lsl #10
    1a44:	0000835f 	andeq	r8, r0, pc, asr r3
    1a48:	3901ff05 	stmdbcc	r1, {r0, r2, r8, r9, sl, fp, ip, sp, lr, pc}
    1a4c:	05000027 	streq	r0, [r0, #-39]	; 0xffffffd9
    1a50:	6f730280 	svcvs	0x00730280
    1a54:	81050000 	mrshi	r0, (UNDEF: 5)
    1a58:	00774802 	rsbseq	r4, r7, r2, lsl #16
    1a5c:	02820500 	addeq	r0, r2, #0, 10
    1a60:	00001605 	andeq	r1, r0, r5, lsl #12
    1a64:	d7028305 	strle	r8, [r2, -r5, lsl #6]
    1a68:	05000007 	streq	r0, [r0, #-7]
    1a6c:	3fdc0284 	svccc	0x00dc0284
    1a70:	85050000 	strhi	r0, [r5, #-0]
    1a74:	002ad302 	eoreq	sp, sl, r2, lsl #6
    1a78:	02880500 	addeq	r0, r8, #0, 10
    1a7c:	00004687 	andeq	r4, r0, r7, lsl #13
    1a80:	54028905 	strpl	r8, [r2], #-2309	; 0xfffff6fb
    1a84:	05000050 	streq	r0, [r0, #-80]	; 0xffffffb0
    1a88:	6643028a 	strbvs	r0, [r3], -sl, lsl #5
    1a8c:	04000000 	streq	r0, [r0], #-0
    1a90:	09050000 	stmdbeq	r5, {}	; <UNPREDICTABLE>
    1a94:	00006f27 	andeq	r6, r0, r7, lsr #30
    1a98:	17252805 	strne	r2, [r5, -r5, lsl #16]!
    1a9c:	29050000 	stmdbcs	r5, {}	; <UNPREDICTABLE>
    1aa0:	00001028 	andeq	r1, r0, r8, lsr #32
    1aa4:	4fd62a05 	svcmi	0x00d62a05
    1aa8:	2b050000 	blcs	141ab0 <_Min_Stack_Size+0x1416b0>
    1aac:	00002785 	andeq	r2, r0, r5, lsl #15
    1ab0:	0b922c05 	bleq	fe48cacc <_estack+0xde48a2cc>
    1ab4:	2d050000 	stccs	0, cr0, [r5, #-0]
    1ab8:	00006c50 	andeq	r6, r0, r0, asr ip
    1abc:	6d612e05 	stclvs	14, cr2, [r1, #-20]!	; 0xffffffec
    1ac0:	2f050000 	svccs	0x00050000
    1ac4:	00007667 	andeq	r7, r0, r7, ror #12
    1ac8:	11b33005 			; <UNDEFINED> instruction: 0x11b33005
    1acc:	31050000 	mrscc	r0, (UNDEF: 5)
    1ad0:	00000e34 	andeq	r0, r0, r4, lsr lr
    1ad4:	51733205 	cmnpl	r3, r5, lsl #4
    1ad8:	33050000 	movwcc	r0, #20480	; 0x5000
    1adc:	00008e69 	andeq	r8, r0, r9, ror #28
    1ae0:	20323405 	eorscs	r3, r2, r5, lsl #8
    1ae4:	35050000 	strcc	r0, [r5, #-0]
    1ae8:	00004e2e 	andeq	r4, r0, lr, lsr #28
    1aec:	7a6d3605 	bvc	1b4f308 <_Min_Stack_Size+0x1b4ef08>
    1af0:	37050000 	strcc	r0, [r5, -r0]
    1af4:	00008161 	andeq	r8, r0, r1, ror #2
    1af8:	92f43805 	rscsls	r3, r4, #327680	; 0x50000
    1afc:	3c050000 	stccc	0, cr0, [r5], {-0}
    1b00:	00004011 	andeq	r4, r0, r1, lsl r0
    1b04:	760b3d05 	strvc	r3, [fp], -r5, lsl #26
    1b08:	3e050000 	cdpcc	0, 0, cr0, cr5, cr0, {0}
    1b0c:	00005b6f 	andeq	r5, r0, pc, ror #22
    1b10:	11283f05 			; <UNDEFINED> instruction: 0x11283f05
    1b14:	40050000 	andmi	r0, r5, r0
    1b18:	000078d3 	ldrdeq	r7, [r0], -r3
    1b1c:	8d5f4105 	ldfhie	f4, [pc, #-20]	; 1b10 <_Min_Stack_Size+0x1710>
    1b20:	42050000 	andmi	r0, r5, #0
    1b24:	000085a9 	andeq	r8, r0, r9, lsr #11
    1b28:	51154305 	tstpl	r5, r5, lsl #6
    1b2c:	44050000 	strmi	r0, [r5], #-0
    1b30:	000088b4 			; <UNDEFINED> instruction: 0x000088b4
    1b34:	656d4805 	strbvs	r4, [sp, #-2053]!	; 0xfffff7fb
    1b38:	49050000 	stmdbmi	r5, {}	; <UNPREDICTABLE>
    1b3c:	00008d0e 	andeq	r8, r0, lr, lsl #26
    1b40:	40e34a05 	rscmi	r4, r3, r5, lsl #20
    1b44:	51050000 	mrspl	r0, (UNDEF: 5)
    1b48:	000082b7 			; <UNDEFINED> instruction: 0x000082b7
    1b4c:	8b155205 	blhi	556368 <_Min_Stack_Size+0x555f68>
    1b50:	56050000 	strpl	r0, [r5], -r0
    1b54:	00007d9b 	muleq	r0, fp, sp
    1b58:	2ea35705 	cdpcs	7, 10, cr5, cr3, cr5, {0}
    1b5c:	04000000 	streq	r0, [r0], #-0
    1b60:	30050000 	andcc	r0, r5, r0
    1b64:	0000335d 	andeq	r3, r0, sp, asr r3
    1b68:	57293105 	strpl	r3, [r9, -r5, lsl #2]!
    1b6c:	32050000 	andcc	r0, r5, #0
    1b70:	00007247 	andeq	r7, r0, r7, asr #4
    1b74:	51bc3305 			; <UNDEFINED> instruction: 0x51bc3305
    1b78:	34050000 	strcc	r0, [r5], #-0
    1b7c:	000063c1 	andeq	r6, r0, r1, asr #7
    1b80:	34a63505 	strtcc	r3, [r6], #1285	; 0x505
    1b84:	36050000 	strcc	r0, [r5], -r0
    1b88:	0000585c 	andeq	r5, r0, ip, asr r8
    1b8c:	827c3705 	rsbshi	r3, ip, #1310720	; 0x140000
    1b90:	38050000 	stmdacc	r5, {}	; <UNPREDICTABLE>
    1b94:	00008e61 	andeq	r8, r0, r1, ror #28
    1b98:	67c03905 	strbvs	r3, [r0, r5, lsl #18]
    1b9c:	3a050000 	bcc	141ba4 <_Min_Stack_Size+0x1417a4>
    1ba0:	00004e8f 	andeq	r4, r0, pc, lsl #29
    1ba4:	5c833b05 	fstmiaxpl	r3, {d3-d4}	;@ Deprecated
    1ba8:	3c050000 	stccc	0, cr0, [r5], {-0}
    1bac:	00000f7a 	andeq	r0, r0, sl, ror pc
    1bb0:	8dcf3d05 	stclhi	13, cr3, [pc, #20]	; 1bcc <_Min_Stack_Size+0x17cc>
    1bb4:	3e050000 	cdpcc	0, 0, cr0, cr5, cr0, {0}
    1bb8:	000010f5 	strdeq	r1, [r0], -r5
    1bbc:	8a0c3f05 	bhi	3117d8 <_Min_Stack_Size+0x3113d8>
    1bc0:	45050000 	strmi	r0, [r5, #-0]
    1bc4:	00000bb0 			; <UNDEFINED> instruction: 0x00000bb0
    1bc8:	26b24605 	ldrtcs	r4, [r2], r5, lsl #12
    1bcc:	47050000 	strmi	r0, [r5, -r0]
    1bd0:	00004ea8 	andeq	r4, r0, r8, lsr #29
    1bd4:	1f634805 	svcne	0x00634805
    1bd8:	4c050000 	stcmi	0, cr0, [r5], {-0}
    1bdc:	00000c24 	andeq	r0, r0, r4, lsr #24
    1be0:	533e4d05 	teqpl	lr, #320	; 0x140
    1be4:	4e050000 	cdpmi	0, 0, cr0, cr5, cr0, {0}
    1be8:	00009014 	andeq	r9, r0, r4, lsl r0
    1bec:	5f514f05 	svcpl	0x00514f05
    1bf0:	53050000 	movwpl	r0, #20480	; 0x5000
    1bf4:	00007dd4 	ldrdeq	r7, [r0], -r4
    1bf8:	5d715405 	cfldrdpl	mvd5, [r1, #-20]!	; 0xffffffec
    1bfc:	55050000 	strpl	r0, [r5, #-0]
    1c00:	000070f5 	strdeq	r7, [r0], -r5
    1c04:	6a815605 	bvs	fe057420 <_estack+0xde054c20>
    1c08:	5a050000 	bpl	141c10 <_Min_Stack_Size+0x141810>
    1c0c:	00006935 	andeq	r6, r0, r5, lsr r9
    1c10:	4a115b05 	bmi	45882c <_Min_Stack_Size+0x45842c>
    1c14:	5c050000 	stcpl	0, cr0, [r5], {-0}
    1c18:	000050cb 	andeq	r5, r0, fp, asr #1
    1c1c:	44535d05 	ldrbmi	r5, [r3], #-3333	; 0xfffff2fb
    1c20:	61050000 	mrsvs	r0, (UNDEF: 5)
    1c24:	00006c06 	andeq	r6, r0, r6, lsl #24
    1c28:	926c6205 	rsbls	r6, ip, #1342177280	; 0x50000000
    1c2c:	63050000 	movwvs	r0, #20480	; 0x5000
    1c30:	00008c91 	muleq	r0, r1, ip
    1c34:	32916405 	addscc	r6, r1, #83886080	; 0x5000000
    1c38:	68050000 	stmdavs	r5, {}	; <UNPREDICTABLE>
    1c3c:	000060b2 	strheq	r6, [r0], -r2
    1c40:	309e6905 	addscc	r6, lr, r5, lsl #18
    1c44:	6a050000 	bvs	141c4c <_Min_Stack_Size+0x14184c>
    1c48:	00006bbc 			; <UNDEFINED> instruction: 0x00006bbc
    1c4c:	2b086b05 	blcs	21c868 <_Min_Stack_Size+0x21c468>
    1c50:	6f050000 	svcvs	0x00050000
    1c54:	0000595c 	andeq	r5, r0, ip, asr r9
    1c58:	53cf7005 	bicpl	r7, pc, #5
    1c5c:	71050000 	mrsvc	r0, (UNDEF: 5)
    1c60:	00004877 	andeq	r4, r0, r7, ror r8
    1c64:	34d67205 	ldrbcc	r7, [r6], #517	; 0x205
    1c68:	76050000 	strvc	r0, [r5], -r0
    1c6c:	00003122 	andeq	r3, r0, r2, lsr #2
    1c70:	166c7705 	strbtne	r7, [ip], -r5, lsl #14
    1c74:	78050000 	stmdavc	r5, {}	; <UNPREDICTABLE>
    1c78:	00002499 	muleq	r0, r9, r4
    1c7c:	1c6e7905 			; <UNDEFINED> instruction: 0x1c6e7905
    1c80:	7d050000 	stcvc	0, cr0, [r5, #-0]
    1c84:	00005cfc 	strdeq	r5, [r0], -ip
    1c88:	0b487e05 	bleq	12214a4 <_Min_Stack_Size+0x12210a4>
    1c8c:	7f050000 	svcvc	0x00050000
    1c90:	000078f3 	strdeq	r7, [r0], -r3
    1c94:	64018005 	strvs	r8, [r1], #-5
    1c98:	05000004 	streq	r0, [r0, #-4]
    1c9c:	55af0184 	strpl	r0, [pc, #388]!	; 1e28 <_Min_Stack_Size+0x1a28>
    1ca0:	85050000 	strhi	r0, [r5, #-0]
    1ca4:	00390701 	eorseq	r0, r9, r1, lsl #14
    1ca8:	01860500 	orreq	r0, r6, r0, lsl #10
    1cac:	000013c3 	andeq	r1, r0, r3, asr #7
    1cb0:	2b018705 	blcs	638cc <_Min_Stack_Size+0x634cc>
    1cb4:	0500003f 	streq	r0, [r0, #-63]	; 0xffffffc1
    1cb8:	0e90018b 	fmleqd	f0, f0, #3.0
    1cbc:	8c050000 	stchi	0, cr0, [r5], {-0}
    1cc0:	0058cf01 	subseq	ip, r8, r1, lsl #30
    1cc4:	018d0500 	orreq	r0, sp, r0, lsl #10
    1cc8:	00008180 	andeq	r8, r0, r0, lsl #3
    1ccc:	49018e05 	stmdbmi	r1, {r0, r2, r9, sl, fp, pc}
    1cd0:	0500001a 	streq	r0, [r0, #-26]	; 0xffffffe6
    1cd4:	0f170192 	svceq	0x00170192
    1cd8:	93050000 	movwls	r0, #20480	; 0x5000
    1cdc:	004d3101 	subeq	r3, sp, r1, lsl #2
    1ce0:	01940500 	orrseq	r0, r4, r0, lsl #10
    1ce4:	00006a32 	andeq	r6, r0, r2, lsr sl
    1ce8:	4f019505 	svcmi	0x00019505
    1cec:	05000022 	streq	r0, [r0, #-34]	; 0xffffffde
    1cf0:	932c0199 			; <UNDEFINED> instruction: 0x932c0199
    1cf4:	9a050000 	bls	141cfc <_Min_Stack_Size+0x1418fc>
    1cf8:	0054ea01 	subseq	lr, r4, r1, lsl #20
    1cfc:	019b0500 	orrseq	r0, fp, r0, lsl #10
    1d00:	00004f87 	andeq	r4, r0, r7, lsl #31
    1d04:	b2019c05 	andlt	r9, r1, #1280	; 0x500
    1d08:	0500008f 	streq	r0, [r0, #-143]	; 0xffffff71
    1d0c:	35a301a0 	strcc	r0, [r3, #416]!	; 0x1a0
    1d10:	a1050000 	mrsge	r0, (UNDEF: 5)
    1d14:	0016c801 	andseq	ip, r6, r1, lsl #16
    1d18:	01a20500 			; <UNDEFINED> instruction: 0x01a20500
    1d1c:	00001cb8 			; <UNDEFINED> instruction: 0x00001cb8
    1d20:	3301a305 	movwcc	sl, #4869	; 0x1305
    1d24:	0500002f 	streq	r0, [r0, #-47]	; 0xffffffd1
    1d28:	41d501a7 	bicsmi	r0, r5, r7, lsr #3
    1d2c:	a8050000 	stmdage	r5, {}	; <UNPREDICTABLE>
    1d30:	008c1601 	addeq	r1, ip, r1, lsl #12
    1d34:	01a90500 			; <UNDEFINED> instruction: 0x01a90500
    1d38:	00004bfc 	strdeq	r4, [r0], -ip
    1d3c:	6d01aa05 	vstrvs	s20, [r1, #-20]	; 0xffffffec
    1d40:	05000068 	streq	r0, [r0, #-104]	; 0xffffff98
    1d44:	755e01ae 	ldrbvc	r0, [lr, #-430]	; 0xfffffe52
    1d48:	af050000 	svcge	0x00050000
    1d4c:	007d4301 	rsbseq	r4, sp, r1, lsl #6
    1d50:	01b00500 	lslseq	r0, r0, #10
    1d54:	00001fc3 	andeq	r1, r0, r3, asr #31
    1d58:	8801b105 	stmdahi	r1, {r0, r2, r8, ip, sp, pc}
    1d5c:	05000007 	streq	r0, [r0, #-7]
    1d60:	008501b5 			; <UNDEFINED> instruction: 0x008501b5
    1d64:	b6050000 	strlt	r0, [r5], -r0
    1d68:	00205101 	eoreq	r5, r0, r1, lsl #2
    1d6c:	01b70500 			; <UNDEFINED> instruction: 0x01b70500
    1d70:	00002926 	andeq	r2, r0, r6, lsr #18
    1d74:	1e01bb05 	vmlane.f64	d11, d1, d5
    1d78:	05000059 	streq	r0, [r0, #-89]	; 0xffffffa7
    1d7c:	574401bc 			; <UNDEFINED> instruction: 0x574401bc
    1d80:	04000000 	streq	r0, [r0], #-0
    1d84:	06e60200 	strbteq	r0, [r6], r0, lsl #4
    1d88:	52070000 	andpl	r0, r7, #0
    1d8c:	03000001 	movweq	r0, #1
    1d90:	08030100 	stmdaeq	r3, {r8}
    1d94:	2709050a 	strcs	r0, [r9, -sl, lsl #10]
    1d98:	0300006f 	movweq	r0, #111	; 0x6f
    1d9c:	0905090d 	stmdbeq	r5, {r0, r2, r3, r8, fp}
    1da0:	00002f82 	andeq	r2, r0, r2, lsl #31
    1da4:	05070e03 	streq	r0, [r7, #-3587]	; 0xfffff1fd
    1da8:	00762b08 	rsbseq	r2, r6, r8, lsl #22
    1dac:	0b0a0300 	bleq	2829b4 <_Min_Stack_Size+0x2825b4>
    1db0:	000bb207 	andeq	fp, fp, r7, lsl #4
    1db4:	0b030400 	bleq	c2dbc <_Min_Stack_Size+0xc29bc>
    1db8:	d708050c 	strle	r0, [r8, -ip, lsl #10]
    1dbc:	03000056 	movweq	r0, #86	; 0x56
    1dc0:	08050d0a 	stmdaeq	r5, {r1, r3, r8, sl, fp}
    1dc4:	00001328 	andeq	r1, r0, r8, lsr #6
    1dc8:	070e0e03 	streq	r0, [lr, -r3, lsl #28]
    1dcc:	00000bca 	andeq	r0, r0, sl, asr #23
    1dd0:	0bec0704 	bleq	ffb039e8 <_estack+0xdfb011e8>
    1dd4:	03040000 	movweq	r0, #16384	; 0x4000
    1dd8:	02050f0b 	andeq	r0, r5, #11, 30	; 0x2c
    1ddc:	0000810c 	andeq	r8, r0, ip, lsl #2
    1de0:	040b0403 	streq	r0, [fp], #-1027	; 0xfffffbfd
    1de4:	07100503 	ldreq	r0, [r0, -r3, lsl #10]
    1de8:	00000c2c 	andeq	r0, r0, ip, lsr #24
    1dec:	0cc00704 	stcleq	7, cr0, [r0], {4}
    1df0:	07040000 	streq	r0, [r4, -r0]
    1df4:	00000cfc 	strdeq	r0, [r0], -ip
    1df8:	0d300704 	ldceq	7, cr0, [r0, #-16]!
    1dfc:	10030000 	andne	r0, r3, r0
    1e00:	0d460705 	stcleq	7, cr0, [r6, #-20]	; 0xffffffec
    1e04:	03040000 	movweq	r0, #16384	; 0x4000
    1e08:	0b050612 	bleq	143658 <_Min_Stack_Size+0x143258>
    1e0c:	00005a4d 	andeq	r5, r0, sp, asr #20
    1e10:	040c0d03 	streq	r0, [ip], #-3331	; 0xfffff2fd
    1e14:	07050e03 	streq	r0, [r5, -r3, lsl #28]
    1e18:	00000e54 	andeq	r0, r0, r4, asr lr
    1e1c:	040f0304 	streq	r0, [pc], #-772	; 1e24 <_Min_Stack_Size+0x1a24>
    1e20:	85e51405 	strbhi	r1, [r5, #1029]!	; 0x405
    1e24:	18030000 	stmdane	r3, {}	; <UNPREDICTABLE>
    1e28:	cb060511 	blgt	183274 <_Min_Stack_Size+0x182e74>
    1e2c:	03000076 	movweq	r0, #118	; 0x76
    1e30:	e1070207 	tst	r7, r7, lsl #4
    1e34:	0400000e 	streq	r0, [r0], #-14
    1e38:	03190304 	tsteq	r9, #4, 6	; 0x10000000
    1e3c:	000f3807 	andeq	r3, pc, r7, lsl #16
    1e40:	8a070400 	bhi	1c2e48 <_Min_Stack_Size+0x1c2a48>
    1e44:	0300000f 	movweq	r0, #15
    1e48:	0705019f 			; <UNDEFINED> instruction: 0x0705019f
    1e4c:	00000fa9 	andeq	r0, r0, r9, lsr #31
    1e50:	0fec0704 	svceq	0x00ec0704
    1e54:	07040000 	streq	r0, [r4, -r0]
    1e58:	0000100c 	andeq	r1, r0, ip
    1e5c:	12130304 	andsne	r0, r3, #4, 6	; 0x10000000
    1e60:	8d282905 			; <UNDEFINED> instruction: 0x8d282905
    1e64:	2d030000 	stccs	0, cr0, [r3, #-0]
    1e68:	af070405 	svcge	0x00070405
    1e6c:	04000011 	streq	r0, [r0], #-17	; 0xffffffef
    1e70:	05131403 	ldreq	r1, [r3, #-1027]	; 0xfffffbfd
    1e74:	0024e302 	eoreq	lr, r4, r2, lsl #6
    1e78:	16030400 	strne	r0, [r3], -r0, lsl #8
    1e7c:	14df0714 	ldrbne	r0, [pc], #1812	; 1e84 <_Min_Stack_Size+0x1a84>
    1e80:	07040000 	streq	r0, [r4, -r0]
    1e84:	000014f5 	strdeq	r1, [r0], -r5
    1e88:	150f0304 	strne	r0, [pc, #-772]	; 1b8c <_Min_Stack_Size+0x178c>
    1e8c:	05160903 	ldreq	r0, [r6, #-2307]	; 0xfffff6fd
    1e90:	0007380a 	andeq	r3, r7, sl, lsl #16
    1e94:	170d0300 	strne	r0, [sp, -r0, lsl #6]
    1e98:	00151e07 	andseq	r1, r5, r7, lsl #28
    1e9c:	0e030400 	cfcpyseq	mvf0, mvf3
    1ea0:	160d0708 	strne	r0, [sp], -r8, lsl #14
    1ea4:	07040000 	streq	r0, [r4, -r0]
    1ea8:	00001677 	andeq	r1, r0, r7, ror r6
    1eac:	2f0d0504 	svccs	0x000d0504
    1eb0:	04000007 	streq	r0, [r0], #-7
    1eb4:	00185607 	andseq	r5, r8, r7, lsl #12
    1eb8:	c2070400 	andgt	r0, r7, #0, 8
    1ebc:	0400001e 	streq	r0, [r0], #-30	; 0xffffffe2
    1ec0:	00040004 	andeq	r0, r4, r4
    1ec4:	25280500 	strcs	r0, [r8, #-1280]!	; 0xfffffb00
    1ec8:	05000017 	streq	r0, [r0, #-23]	; 0xffffffe9
    1ecc:	00102829 	andseq	r2, r0, r9, lsr #16
    1ed0:	d62a0500 	strtle	r0, [sl], -r0, lsl #10
    1ed4:	0500004f 	streq	r0, [r0, #-79]	; 0xffffffb1
    1ed8:	0027852b 	eoreq	r8, r7, fp, lsr #10
    1edc:	922c0500 	eorls	r0, ip, #0, 10
    1ee0:	0500000b 	streq	r0, [r0, #-11]
    1ee4:	006c502d 	rsbeq	r5, ip, sp, lsr #32
    1ee8:	612e0500 			; <UNDEFINED> instruction: 0x612e0500
    1eec:	0500006d 	streq	r0, [r0, #-109]	; 0xffffff93
    1ef0:	0076672f 	rsbseq	r6, r6, pc, lsr #14
    1ef4:	b3300500 	teqlt	r0, #0, 10
    1ef8:	05000011 	streq	r0, [r0, #-17]	; 0xffffffef
    1efc:	000e3431 	andeq	r3, lr, r1, lsr r4
    1f00:	73320500 	teqvc	r2, #0, 10
    1f04:	05000051 	streq	r0, [r0, #-81]	; 0xffffffaf
    1f08:	008e6933 	addeq	r6, lr, r3, lsr r9
    1f0c:	32340500 	eorscc	r0, r4, #0, 10
    1f10:	05000020 	streq	r0, [r0, #-32]	; 0xffffffe0
    1f14:	004e2e35 	subeq	r2, lr, r5, lsr lr
    1f18:	6d360500 	cfldr32vs	mvfx0, [r6, #-0]
    1f1c:	0500007a 	streq	r0, [r0, #-122]	; 0xffffff86
    1f20:	00816137 	addeq	r6, r1, r7, lsr r1
    1f24:	f4380500 			; <UNDEFINED> instruction: 0xf4380500
    1f28:	05000092 	streq	r0, [r0, #-146]	; 0xffffff6e
    1f2c:	0040113c 	subeq	r1, r0, ip, lsr r1
    1f30:	0b3d0500 	bleq	f43338 <_Min_Stack_Size+0xf42f38>
    1f34:	05000076 	streq	r0, [r0, #-118]	; 0xffffff8a
    1f38:	005b6f3e 	subseq	r6, fp, lr, lsr pc
    1f3c:	283f0500 	ldmdacs	pc!, {r8, sl}	; <UNPREDICTABLE>
    1f40:	05000011 	streq	r0, [r0, #-17]	; 0xffffffef
    1f44:	0078d340 	rsbseq	sp, r8, r0, asr #6
    1f48:	5f410500 	svcpl	0x00410500
    1f4c:	0500008d 	streq	r0, [r0, #-141]	; 0xffffff73
    1f50:	0085a942 	addeq	sl, r5, r2, asr #18
    1f54:	15430500 	strbne	r0, [r3, #-1280]	; 0xfffffb00
    1f58:	05000051 	streq	r0, [r0, #-81]	; 0xffffffaf
    1f5c:	0088b444 	addeq	fp, r8, r4, asr #8
    1f60:	6d480500 	cfstr64vs	mvdx0, [r8, #-0]
    1f64:	05000065 	streq	r0, [r0, #-101]	; 0xffffff9b
    1f68:	008d0e49 	addeq	r0, sp, r9, asr #28
    1f6c:	e34a0500 	movt	r0, #42240	; 0xa500
    1f70:	05000040 	streq	r0, [r0, #-64]	; 0xffffffc0
    1f74:	0082b751 	addeq	fp, r2, r1, asr r7
    1f78:	15520500 	ldrbne	r0, [r2, #-1280]	; 0xfffffb00
    1f7c:	0500008b 	streq	r0, [r0, #-139]	; 0xffffff75
    1f80:	007d9b56 	rsbseq	r9, sp, r6, asr fp
    1f84:	a3570500 	cmpge	r7, #0, 10
    1f88:	0000002e 	andeq	r0, r0, lr, lsr #32
    1f8c:	0b020004 	bleq	81fa4 <_Min_Stack_Size+0x81ba4>
    1f90:	0700000d 	streq	r0, [r0, -sp]
    1f94:	00000152 	andeq	r0, r0, r2, asr r1
    1f98:	03010003 	movweq	r0, #4099	; 0x1003
    1f9c:	09050a17 	stmdbeq	r5, {r0, r1, r2, r4, r9, fp}
    1fa0:	00002a00 	andeq	r2, r0, r0, lsl #20
    1fa4:	05090d03 	streq	r0, [r9, #-3331]	; 0xfffff2fd
    1fa8:	002f8209 	eoreq	r8, pc, r9, lsl #4
    1fac:	070e0300 	streq	r0, [lr, -r0, lsl #6]
    1fb0:	762b0805 	strtvc	r0, [fp], -r5, lsl #16
    1fb4:	0a030000 	beq	c1fbc <_Min_Stack_Size+0xc1bbc>
    1fb8:	0bb2070b 	bleq	fec83bec <_estack+0xdec813ec>
    1fbc:	03040000 	movweq	r0, #16384	; 0x4000
    1fc0:	08050c0b 	stmdaeq	r5, {r0, r1, r3, sl, fp}
    1fc4:	000056d7 	ldrdeq	r5, [r0], -r7
    1fc8:	050d0a03 	streq	r0, [sp, #-2563]	; 0xfffff5fd
    1fcc:	00132808 	andseq	r2, r3, r8, lsl #16
    1fd0:	0e0e0300 	cdpeq	3, 0, cr0, cr14, cr0, {0}
    1fd4:	000bca07 	andeq	ip, fp, r7, lsl #20
    1fd8:	ec070400 	cfstrs	mvf0, [r7], {-0}
    1fdc:	0400000b 	streq	r0, [r0], #-11
    1fe0:	050f0b03 	streq	r0, [pc, #-2819]	; 14e5 <_Min_Stack_Size+0x10e5>
    1fe4:	00810c02 	addeq	r0, r1, r2, lsl #24
    1fe8:	0b040300 	bleq	102bf0 <_Min_Stack_Size+0x1027f0>
    1fec:	10050304 	andne	r0, r5, r4, lsl #6
    1ff0:	000c2c07 	andeq	r2, ip, r7, lsl #24
    1ff4:	c0070400 	andgt	r0, r7, r0, lsl #8
    1ff8:	0400000c 	streq	r0, [r0], #-12
    1ffc:	000cfc07 	andeq	pc, ip, r7, lsl #24
    2000:	30070400 	andcc	r0, r7, r0, lsl #8
    2004:	0300000d 	movweq	r0, #13
    2008:	46070510 			; <UNDEFINED> instruction: 0x46070510
    200c:	0400000d 	streq	r0, [r0], #-13
    2010:	05061203 	streq	r1, [r6, #-515]	; 0xfffffdfd
    2014:	005a4d0b 	subseq	r4, sl, fp, lsl #26
    2018:	0c0d0300 	stceq	3, cr0, [sp], {-0}
    201c:	050e0304 	streq	r0, [lr, #-772]	; 0xfffffcfc
    2020:	000e5407 	andeq	r5, lr, r7, lsl #8
    2024:	0f030400 	svceq	0x00030400
    2028:	e5140504 	ldr	r0, [r4, #-1284]	; 0xfffffafc
    202c:	03000085 	movweq	r0, #133	; 0x85
    2030:	06051118 			; <UNDEFINED> instruction: 0x06051118
    2034:	000076cb 	andeq	r7, r0, fp, asr #13
    2038:	07020703 	streq	r0, [r2, -r3, lsl #14]
    203c:	00000ee1 	andeq	r0, r0, r1, ror #29
    2040:	19030404 	stmdbne	r3, {r2, sl}
    2044:	0f380703 	svceq	0x00380703
    2048:	07040000 	streq	r0, [r4, -r0]
    204c:	00000f8a 	andeq	r0, r0, sl, lsl #31
    2050:	05019f03 	streq	r9, [r1, #-3843]	; 0xfffff0fd
    2054:	000fa907 	andeq	sl, pc, r7, lsl #18
    2058:	ec070400 	cfstrs	mvf0, [r7], {-0}
    205c:	0400000f 	streq	r0, [r0], #-15
    2060:	00100c07 	andseq	r0, r0, r7, lsl #24
    2064:	13030400 	movwne	r0, #13312	; 0x3400
    2068:	28290512 	stmdacs	r9!, {r1, r4, r8, sl}
    206c:	0300008d 	movweq	r0, #141	; 0x8d
    2070:	0704052d 	streq	r0, [r4, -sp, lsr #10]
    2074:	000011af 	andeq	r1, r0, pc, lsr #3
    2078:	13140304 	tstne	r4, #4, 6	; 0x10000000
    207c:	24e30205 	strbtcs	r0, [r3], #517	; 0x205
    2080:	03040000 	movweq	r0, #16384	; 0x4000
    2084:	df071416 	svcle	0x00071416
    2088:	04000014 	streq	r0, [r0], #-20	; 0xffffffec
    208c:	0014f507 	andseq	pc, r4, r7, lsl #10
    2090:	0f030400 	svceq	0x00030400
    2094:	16090315 			; <UNDEFINED> instruction: 0x16090315
    2098:	07380a05 	ldreq	r0, [r8, -r5, lsl #20]!
    209c:	0d030000 	stceq	0, cr0, [r3, #-0]
    20a0:	151e0717 	ldrne	r0, [lr, #-1815]	; 0xfffff8e9
    20a4:	03040000 	movweq	r0, #16384	; 0x4000
    20a8:	0d07080e 	stceq	8, cr0, [r7, #-56]	; 0xffffffc8
    20ac:	04000016 	streq	r0, [r0], #-22	; 0xffffffea
    20b0:	00167707 	andseq	r7, r6, r7, lsl #14
    20b4:	0d050400 	cfstrseq	mvf0, [r5, #-0]
    20b8:	0000072f 	andeq	r0, r0, pc, lsr #14
    20bc:	18560704 	ldmdane	r6, {r2, r8, r9, sl}^
    20c0:	03040000 	movweq	r0, #16384	; 0x4000
    20c4:	8f07180e 	svchi	0x0007180e
    20c8:	0400001a 	streq	r0, [r0], #-26	; 0xffffffe6
    20cc:	001b5f07 	andseq	r5, fp, r7, lsl #30
    20d0:	00040400 	andeq	r0, r4, r0, lsl #8

Disassembly of section .debug_line:

00000000 <.debug_line>:
       0:	000006e2 	andeq	r0, r0, r2, ror #13
       4:	051a0002 	ldreq	r0, [sl, #-2]
       8:	01020000 	mrseq	r0, (UNDEF: 2)
       c:	000d0efb 	strdeq	r0, [sp], -fp
      10:	01010101 	tsteq	r1, r1, lsl #2
      14:	01000000 	mrseq	r0, (UNDEF: 0)
      18:	2e010000 	cdpcs	0, 0, cr0, cr1, cr0, {0}
      1c:	72532f2e 	subsvc	r2, r3, #46, 30	; 0xb8
      20:	3a630063 	bcc	18c01b4 <_Min_Stack_Size+0x18bfdb4>
      24:	5c74735c 	ldclpl	3, cr7, [r4], #-368	; 0xfffffe90
      28:	336d7473 	cmncc	sp, #1929379840	; 0x73000000
      2c:	62756332 	rsbsvs	r6, r5, #-939524096	; 0xc8000000
      30:	65646965 	strbvs	r6, [r4, #-2405]!	; 0xfffff69b
      34:	342e315f 	strtcc	r3, [lr], #-351	; 0xfffffea1
      38:	735c302e 	cmpvc	ip, #46	; 0x2e
      3c:	32336d74 	eorscc	r6, r3, #116, 26	; 0x1d00
      40:	65627563 	strbvs	r7, [r2, #-1379]!	; 0xfffffa9d
      44:	5c656469 	cfstrdpl	mvd6, [r5], #-420	; 0xfffffe5c
      48:	67756c70 			; <UNDEFINED> instruction: 0x67756c70
      4c:	5c736e69 	ldclpl	14, cr6, [r3], #-420	; 0xfffffe5c
      50:	2e6d6f63 	cdpcs	15, 6, cr6, cr13, cr3, {3}
      54:	732e7473 			; <UNDEFINED> instruction: 0x732e7473
      58:	32336d74 	eorscc	r6, r3, #116, 26	; 0x1d00
      5c:	65627563 	strbvs	r7, [r2, #-1379]!	; 0xfffffa9d
      60:	6564692e 	strbvs	r6, [r4, #-2350]!	; 0xfffff6d2
      64:	75636d2e 	strbvc	r6, [r3, #-3374]!	; 0xfffff2d2
      68:	7478652e 	ldrbtvc	r6, [r8], #-1326	; 0xfffffad2
      6c:	616e7265 	cmnvs	lr, r5, ror #4
      70:	6f6f746c 	svcvs	0x006f746c
      74:	672e736c 	strvs	r7, [lr, -ip, ror #6]!
      78:	742d756e 	strtvc	r7, [sp], #-1390	; 0xfffffa92
      7c:	736c6f6f 	cmnvc	ip, #444	; 0x1bc
      80:	726f662d 	rsbvc	r6, pc, #47185920	; 0x2d00000
      84:	6d74732d 	ldclvs	3, cr7, [r4, #-180]!	; 0xffffff4c
      88:	372e3233 			; <UNDEFINED> instruction: 0x372e3233
      8c:	3130322d 	teqcc	r0, sp, lsr #4
      90:	32712d38 	rsbscc	r2, r1, #56, 26	; 0xe00
      94:	6470752d 	ldrbtvs	r7, [r0], #-1325	; 0xfffffad3
      98:	2e657461 	cdpcs	4, 6, cr7, cr5, cr1, {3}
      9c:	336e6977 	cmncc	lr, #1949696	; 0x1dc000
      a0:	2e315f32 	mrccs	15, 1, r5, cr1, cr2, {1}
      a4:	2e302e34 	mrccs	14, 1, r2, cr0, cr4, {1}
      a8:	30323032 	eorscc	r3, r2, r2, lsr r0
      ac:	38303730 	ldmdacc	r0!, {r4, r5, r8, r9, sl, ip, sp}
      b0:	38303231 	ldmdacc	r0!, {r0, r4, r5, r9, ip, sp}
      b4:	6f6f745c 	svcvs	0x006f745c
      b8:	615c736c 	cmpvs	ip, ip, ror #6
      bc:	6e2d6d72 	mcrvs	13, 1, r6, cr13, cr2, {3}
      c0:	2d656e6f 	stclcs	14, cr6, [r5, #-444]!	; 0xfffffe44
      c4:	69626165 	stmdbvs	r2!, {r0, r2, r5, r6, r8, sp, lr}^
      c8:	636e695c 	cmnvs	lr, #92, 18	; 0x170000
      cc:	6564756c 	strbvs	r7, [r4, #-1388]!	; 0xfffffa94
      d0:	63616d5c 	cmnvs	r1, #92, 26	; 0x1700
      d4:	656e6968 	strbvs	r6, [lr, #-2408]!	; 0xfffff698
      d8:	5c3a6300 	ldcpl	3, cr6, [sl], #-0
      dc:	735c7473 	cmpvc	ip, #1929379840	; 0x73000000
      e0:	32336d74 	eorscc	r6, r3, #116, 26	; 0x1d00
      e4:	65627563 	strbvs	r7, [r2, #-1379]!	; 0xfffffa9d
      e8:	5f656469 	svcpl	0x00656469
      ec:	2e342e31 	mrccs	14, 1, r2, cr4, cr1, {1}
      f0:	74735c30 	ldrbtvc	r5, [r3], #-3120	; 0xfffff3d0
      f4:	6332336d 	teqvs	r2, #-1275068415	; 0xb4000001
      f8:	69656275 	stmdbvs	r5!, {r0, r2, r4, r5, r6, r9, sp, lr}^
      fc:	705c6564 	subsvc	r6, ip, r4, ror #10
     100:	6967756c 	stmdbvs	r7!, {r2, r3, r5, r6, r8, sl, ip, sp, lr}^
     104:	635c736e 	cmpvs	ip, #-1207959551	; 0xb8000001
     108:	732e6d6f 			; <UNDEFINED> instruction: 0x732e6d6f
     10c:	74732e74 	ldrbtvc	r2, [r3], #-3700	; 0xfffff18c
     110:	6332336d 	teqvs	r2, #-1275068415	; 0xb4000001
     114:	2e656275 	mcrcs	2, 3, r6, cr5, cr5, {3}
     118:	2e656469 	cdpcs	4, 6, cr6, cr5, cr9, {3}
     11c:	2e75636d 	cdpcs	3, 7, cr6, cr5, cr13, {3}
     120:	65747865 	ldrbvs	r7, [r4, #-2149]!	; 0xfffff79b
     124:	6c616e72 	stclvs	14, cr6, [r1], #-456	; 0xfffffe38
     128:	6c6f6f74 	stclvs	15, cr6, [pc], #-464	; ffffff60 <_estack+0xdfffd760>
     12c:	6e672e73 	mcrvs	14, 3, r2, cr7, cr3, {3}
     130:	6f742d75 	svcvs	0x00742d75
     134:	2d736c6f 	ldclcs	12, cr6, [r3, #-444]!	; 0xfffffe44
     138:	2d726f66 	ldclcs	15, cr6, [r2, #-408]!	; 0xfffffe68
     13c:	336d7473 	cmncc	sp, #1929379840	; 0x73000000
     140:	2d372e32 	ldccs	14, cr2, [r7, #-200]!	; 0xffffff38
     144:	38313032 	ldmdacc	r1!, {r1, r4, r5, ip, sp}
     148:	2d32712d 	ldfcss	f7, [r2, #-180]!	; 0xffffff4c
     14c:	61647075 	smcvs	18181	; 0x4705
     150:	772e6574 			; <UNDEFINED> instruction: 0x772e6574
     154:	32336e69 	eorscc	r6, r3, #1680	; 0x690
     158:	342e315f 	strtcc	r3, [lr], #-351	; 0xfffffea1
     15c:	322e302e 	eorcc	r3, lr, #46	; 0x2e
     160:	30303230 	eorscc	r3, r0, r0, lsr r2
     164:	31383037 	teqcc	r8, r7, lsr r0
     168:	5c383032 	ldcpl	0, cr3, [r8], #-200	; 0xffffff38
     16c:	6c6f6f74 	stclvs	15, cr6, [pc], #-464	; ffffffa4 <_estack+0xdfffd7a4>
     170:	72615c73 	rsbvc	r5, r1, #29440	; 0x7300
     174:	6f6e2d6d 	svcvs	0x006e2d6d
     178:	652d656e 	strvs	r6, [sp, #-1390]!	; 0xfffffa92
     17c:	5c696261 	sfmpl	f6, 2, [r9], #-388	; 0xfffffe7c
     180:	6c636e69 	stclvs	14, cr6, [r3], #-420	; 0xfffffe5c
     184:	5c656475 	cfstrdpl	mvd6, [r5], #-468	; 0xfffffe2c
     188:	00737973 	rsbseq	r7, r3, r3, ror r9
     18c:	735c3a63 	cmpvc	ip, #405504	; 0x63000
     190:	74735c74 	ldrbtvc	r5, [r3], #-3188	; 0xfffff38c
     194:	6332336d 	teqvs	r2, #-1275068415	; 0xb4000001
     198:	69656275 	stmdbvs	r5!, {r0, r2, r4, r5, r6, r9, sp, lr}^
     19c:	315f6564 	cmpcc	pc, r4, ror #10
     1a0:	302e342e 	eorcc	r3, lr, lr, lsr #8
     1a4:	6d74735c 	ldclvs	3, cr7, [r4, #-368]!	; 0xfffffe90
     1a8:	75633233 	strbvc	r3, [r3, #-563]!	; 0xfffffdcd
     1ac:	64696562 	strbtvs	r6, [r9], #-1378	; 0xfffffa9e
     1b0:	6c705c65 	ldclvs	12, cr5, [r0], #-404	; 0xfffffe6c
     1b4:	6e696775 	mcrvs	7, 3, r6, cr9, cr5, {3}
     1b8:	6f635c73 	svcvs	0x00635c73
     1bc:	74732e6d 	ldrbtvc	r2, [r3], #-3693	; 0xfffff193
     1c0:	6d74732e 	ldclvs	3, cr7, [r4, #-184]!	; 0xffffff48
     1c4:	75633233 	strbvc	r3, [r3, #-563]!	; 0xfffffdcd
     1c8:	692e6562 	stmdbvs	lr!, {r1, r5, r6, r8, sl, sp, lr}
     1cc:	6d2e6564 	cfstr32vs	mvfx6, [lr, #-400]!	; 0xfffffe70
     1d0:	652e7563 	strvs	r7, [lr, #-1379]!	; 0xfffffa9d
     1d4:	72657478 	rsbvc	r7, r5, #120, 8	; 0x78000000
     1d8:	746c616e 	strbtvc	r6, [ip], #-366	; 0xfffffe92
     1dc:	736c6f6f 	cmnvc	ip, #444	; 0x1bc
     1e0:	756e672e 	strbvc	r6, [lr, #-1838]!	; 0xfffff8d2
     1e4:	6f6f742d 	svcvs	0x006f742d
     1e8:	662d736c 	strtvs	r7, [sp], -ip, ror #6
     1ec:	732d726f 			; <UNDEFINED> instruction: 0x732d726f
     1f0:	32336d74 	eorscc	r6, r3, #116, 26	; 0x1d00
     1f4:	322d372e 	eorcc	r3, sp, #12058624	; 0xb80000
     1f8:	2d383130 	ldfcss	f3, [r8, #-192]!	; 0xffffff40
     1fc:	752d3271 	strvc	r3, [sp, #-625]!	; 0xfffffd8f
     200:	74616470 	strbtvc	r6, [r1], #-1136	; 0xfffffb90
     204:	69772e65 	ldmdbvs	r7!, {r0, r2, r5, r6, r9, sl, fp, sp}^
     208:	5f32336e 	svcpl	0x0032336e
     20c:	2e342e31 	mrccs	14, 1, r2, cr4, cr1, {1}
     210:	30322e30 	eorscc	r2, r2, r0, lsr lr
     214:	37303032 			; <UNDEFINED> instruction: 0x37303032
     218:	32313830 	eorscc	r3, r1, #48, 16	; 0x300000
     21c:	745c3830 	ldrbvc	r3, [ip], #-2096	; 0xfffff7d0
     220:	736c6f6f 	cmnvc	ip, #444	; 0x1bc
     224:	62696c5c 	rsbvs	r6, r9, #92, 24	; 0x5c00
     228:	6363675c 	cmnvs	r3, #92, 14	; 0x1700000
     22c:	6d72615c 	ldfvse	f6, [r2, #-368]!	; 0xfffffe90
     230:	6e6f6e2d 	cdpvs	14, 6, cr6, cr15, cr13, {1}
     234:	61652d65 	cmnvs	r5, r5, ror #26
     238:	375c6962 	ldrbcc	r6, [ip, -r2, ror #18]
     23c:	312e332e 			; <UNDEFINED> instruction: 0x312e332e
     240:	636e695c 	cmnvs	lr, #92, 18	; 0x170000
     244:	6564756c 	strbvs	r7, [r4, #-1388]!	; 0xfffffa94
     248:	5c3a6300 	ldcpl	3, cr6, [sl], #-0
     24c:	735c7473 	cmpvc	ip, #1929379840	; 0x73000000
     250:	32336d74 	eorscc	r6, r3, #116, 26	; 0x1d00
     254:	65627563 	strbvs	r7, [r2, #-1379]!	; 0xfffffa9d
     258:	5f656469 	svcpl	0x00656469
     25c:	2e342e31 	mrccs	14, 1, r2, cr4, cr1, {1}
     260:	74735c30 	ldrbtvc	r5, [r3], #-3120	; 0xfffff3d0
     264:	6332336d 	teqvs	r2, #-1275068415	; 0xb4000001
     268:	69656275 	stmdbvs	r5!, {r0, r2, r4, r5, r6, r9, sp, lr}^
     26c:	705c6564 	subsvc	r6, ip, r4, ror #10
     270:	6967756c 	stmdbvs	r7!, {r2, r3, r5, r6, r8, sl, ip, sp, lr}^
     274:	635c736e 	cmpvs	ip, #-1207959551	; 0xb8000001
     278:	732e6d6f 			; <UNDEFINED> instruction: 0x732e6d6f
     27c:	74732e74 	ldrbtvc	r2, [r3], #-3700	; 0xfffff18c
     280:	6332336d 	teqvs	r2, #-1275068415	; 0xb4000001
     284:	2e656275 	mcrcs	2, 3, r6, cr5, cr5, {3}
     288:	2e656469 	cdpcs	4, 6, cr6, cr5, cr9, {3}
     28c:	2e75636d 	cdpcs	3, 7, cr6, cr5, cr13, {3}
     290:	65747865 	ldrbvs	r7, [r4, #-2149]!	; 0xfffff79b
     294:	6c616e72 	stclvs	14, cr6, [r1], #-456	; 0xfffffe38
     298:	6c6f6f74 	stclvs	15, cr6, [pc], #-464	; d0 <_Min_Heap_Size-0x130>
     29c:	6e672e73 	mcrvs	14, 3, r2, cr7, cr3, {3}
     2a0:	6f742d75 	svcvs	0x00742d75
     2a4:	2d736c6f 	ldclcs	12, cr6, [r3, #-444]!	; 0xfffffe44
     2a8:	2d726f66 	ldclcs	15, cr6, [r2, #-408]!	; 0xfffffe68
     2ac:	336d7473 	cmncc	sp, #1929379840	; 0x73000000
     2b0:	2d372e32 	ldccs	14, cr2, [r7, #-200]!	; 0xffffff38
     2b4:	38313032 	ldmdacc	r1!, {r1, r4, r5, ip, sp}
     2b8:	2d32712d 	ldfcss	f7, [r2, #-180]!	; 0xffffff4c
     2bc:	61647075 	smcvs	18181	; 0x4705
     2c0:	772e6574 			; <UNDEFINED> instruction: 0x772e6574
     2c4:	32336e69 	eorscc	r6, r3, #1680	; 0x690
     2c8:	342e315f 	strtcc	r3, [lr], #-351	; 0xfffffea1
     2cc:	322e302e 	eorcc	r3, lr, #46	; 0x2e
     2d0:	30303230 	eorscc	r3, r0, r0, lsr r2
     2d4:	31383037 	teqcc	r8, r7, lsr r0
     2d8:	5c383032 	ldcpl	0, cr3, [r8], #-200	; 0xffffff38
     2dc:	6c6f6f74 	stclvs	15, cr6, [pc], #-464	; 114 <_Min_Heap_Size-0xec>
     2e0:	72615c73 	rsbvc	r5, r1, #29440	; 0x7300
     2e4:	6f6e2d6d 	svcvs	0x006e2d6d
     2e8:	652d656e 	strvs	r6, [sp, #-1390]!	; 0xfffffa92
     2ec:	5c696261 	sfmpl	f6, 2, [r9], #-388	; 0xfffffe7c
     2f0:	6c636e69 	stclvs	14, cr6, [r3], #-420	; 0xfffffe5c
     2f4:	00656475 	rsbeq	r6, r5, r5, ror r4
     2f8:	492f2e2e 	stmdbmi	pc!, {r1, r2, r3, r5, r9, sl, fp, sp}	; <UNPREDICTABLE>
     2fc:	6300636e 	movwvs	r6, #878	; 0x36e
     300:	74735c3a 	ldrbtvc	r5, [r3], #-3130	; 0xfffff3c6
     304:	6d74735c 	ldclvs	3, cr7, [r4, #-368]!	; 0xfffffe90
     308:	75633233 	strbvc	r3, [r3, #-563]!	; 0xfffffdcd
     30c:	64696562 	strbtvs	r6, [r9], #-1378	; 0xfffffa9e
     310:	2e315f65 	cdpcs	15, 3, cr5, cr1, cr5, {3}
     314:	5c302e34 	ldcpl	14, cr2, [r0], #-208	; 0xffffff30
     318:	336d7473 	cmncc	sp, #1929379840	; 0x73000000
     31c:	62756332 	rsbsvs	r6, r5, #-939524096	; 0xc8000000
     320:	65646965 	strbvs	r6, [r4, #-2405]!	; 0xfffff69b
     324:	756c705c 	strbvc	r7, [ip, #-92]!	; 0xffffffa4
     328:	736e6967 	cmnvc	lr, #1687552	; 0x19c000
     32c:	6d6f635c 	stclvs	3, cr6, [pc, #-368]!	; 1c4 <_Min_Heap_Size-0x3c>
     330:	2e74732e 	cdpcs	3, 7, cr7, cr4, cr14, {1}
     334:	336d7473 	cmncc	sp, #1929379840	; 0x73000000
     338:	62756332 	rsbsvs	r6, r5, #-939524096	; 0xc8000000
     33c:	64692e65 	strbtvs	r2, [r9], #-3685	; 0xfffff19b
     340:	636d2e65 	cmnvs	sp, #1616	; 0x650
     344:	78652e75 	stmdavc	r5!, {r0, r2, r4, r5, r6, r9, sl, fp, sp}^
     348:	6e726574 	mrcvs	5, 3, r6, cr2, cr4, {3}
     34c:	6f746c61 	svcvs	0x00746c61
     350:	2e736c6f 	cdpcs	12, 7, cr6, cr3, cr15, {3}
     354:	2d756e67 	ldclcs	14, cr6, [r5, #-412]!	; 0xfffffe64
     358:	6c6f6f74 	stclvs	15, cr6, [pc], #-464	; 190 <_Min_Heap_Size-0x70>
     35c:	6f662d73 	svcvs	0x00662d73
     360:	74732d72 	ldrbtvc	r2, [r3], #-3442	; 0xfffff28e
     364:	2e32336d 	cdpcs	3, 3, cr3, cr2, cr13, {3}
     368:	30322d37 	eorscc	r2, r2, r7, lsr sp
     36c:	712d3831 			; <UNDEFINED> instruction: 0x712d3831
     370:	70752d32 	rsbsvc	r2, r5, r2, lsr sp
     374:	65746164 	ldrbvs	r6, [r4, #-356]!	; 0xfffffe9c
     378:	6e69772e 	cdpvs	7, 6, cr7, cr9, cr14, {1}
     37c:	315f3233 	cmpcc	pc, r3, lsr r2	; <UNPREDICTABLE>
     380:	302e342e 	eorcc	r3, lr, lr, lsr #8
     384:	3230322e 	eorscc	r3, r0, #-536870910	; 0xe0000002
     388:	30373030 	eorscc	r3, r7, r0, lsr r0
     38c:	30323138 	eorscc	r3, r2, r8, lsr r1
     390:	6f745c38 	svcvs	0x00745c38
     394:	5c736c6f 	ldclpl	12, cr6, [r3], #-444	; 0xfffffe44
     398:	2d6d7261 	sfmcs	f7, 2, [sp, #-388]!	; 0xfffffe7c
     39c:	656e6f6e 	strbvs	r6, [lr, #-3950]!	; 0xfffff092
     3a0:	6261652d 	rsbvs	r6, r1, #188743680	; 0xb400000
     3a4:	6e695c69 	cdpvs	12, 6, cr5, cr9, cr9, {3}
     3a8:	64756c63 	ldrbtvs	r6, [r5], #-3171	; 0xfffff39d
     3ac:	656e5c65 	strbvs	r5, [lr, #-3173]!	; 0xfffff39b
     3b0:	62696c77 	rsbvs	r6, r9, #30464	; 0x7700
     3b4:	6e616e2d 	cdpvs	14, 6, cr6, cr1, cr13, {1}
     3b8:	5300006f 	movwpl	r0, #111	; 0x6f
     3bc:	32334d54 	eorscc	r4, r3, #84, 26	; 0x1500
     3c0:	33303146 	teqcc	r0, #-2147483631	; 0x80000011
     3c4:	455f3643 	ldrbmi	r3, [pc, #-1603]	; fffffd89 <_estack+0xdfffd589>
     3c8:	5f495458 	svcpl	0x00495458
     3cc:	76697244 	strbtvc	r7, [r9], -r4, asr #4
     3d0:	632e7265 			; <UNDEFINED> instruction: 0x632e7265
     3d4:	00000100 	andeq	r0, r0, r0, lsl #2
     3d8:	6665645f 			; <UNDEFINED> instruction: 0x6665645f
     3dc:	746c7561 	strbtvc	r7, [ip], #-1377	; 0xfffffa9f
     3e0:	7079745f 	rsbsvc	r7, r9, pc, asr r4
     3e4:	682e7365 	stmdavs	lr!, {r0, r2, r5, r6, r8, r9, ip, sp, lr}
     3e8:	00000200 	andeq	r0, r0, r0, lsl #4
     3ec:	6b636f6c 	blvs	18dc1a4 <_Min_Stack_Size+0x18dbda4>
     3f0:	0300682e 	movweq	r6, #2094	; 0x82e
     3f4:	745f0000 	ldrbvc	r0, [pc], #-0	; 3fc <_Min_Heap_Size+0x1fc>
     3f8:	73657079 	cmnvc	r5, #121	; 0x79
     3fc:	0300682e 	movweq	r6, #2094	; 0x82e
     400:	74730000 	ldrbtvc	r0, [r3], #-0
     404:	66656464 	strbtvs	r6, [r5], -r4, ror #8
     408:	0400682e 	streq	r6, [r0], #-2094	; 0xfffff7d2
     40c:	65720000 	ldrbvs	r0, [r2, #-0]!
     410:	2e746e65 	cdpcs	14, 7, cr6, cr4, cr5, {3}
     414:	00030068 	andeq	r0, r3, r8, rrx
     418:	64747300 	ldrbtvs	r7, [r4], #-768	; 0xfffffd00
     41c:	2e62696c 	vnmulcs.f16	s13, s4, s25	; <UNPREDICTABLE>
     420:	00050068 	andeq	r0, r5, r8, rrx
     424:	74735f00 	ldrbtvc	r5, [r3], #-3840	; 0xfffff100
     428:	746e6964 	strbtvc	r6, [lr], #-2404	; 0xfffff69c
     42c:	0300682e 	movweq	r6, #2094	; 0x82e
     430:	54530000 	ldrbpl	r0, [r3], #-0
     434:	4632334d 	ldrtmi	r3, [r2], -sp, asr #6
     438:	58333031 	ldmdapl	r3!, {r0, r4, r5, ip, sp}
     43c:	00682e36 	rsbeq	r2, r8, r6, lsr lr
     440:	53000006 	movwpl	r0, #6
     444:	32334d54 	eorscc	r4, r3, #84, 26	; 0x1500
     448:	33303146 	teqcc	r0, #-2147483631	; 0x80000011
     44c:	475f3643 	ldrbmi	r3, [pc, -r3, asr #12]
     450:	5f4f4950 	svcpl	0x004f4950
     454:	76697244 	strbtvc	r7, [r9], -r4, asr #4
     458:	682e7265 	stmdavs	lr!, {r0, r2, r5, r6, r9, ip, sp, lr}
     45c:	00000600 	andeq	r0, r0, r0, lsl #12
     460:	334d5453 	movtcc	r5, #54355	; 0xd453
     464:	30314632 	eorscc	r4, r1, r2, lsr r6
     468:	5f364333 	svcpl	0x00364333
     46c:	49545845 	ldmdbmi	r4, {r0, r2, r6, fp, ip, lr}^
     470:	6972445f 	ldmdbvs	r2!, {r0, r1, r2, r3, r4, r6, sl, lr}^
     474:	2e726576 	mrccs	5, 3, r6, cr2, cr6, {3}
     478:	00060068 	andeq	r0, r6, r8, rrx
     47c:	65656900 	strbvs	r6, [r5, #-2304]!	; 0xfffff700
     480:	2e706665 	cdpcs	6, 7, cr6, cr0, cr5, {3}
     484:	00020068 	andeq	r0, r2, r8, rrx
     488:	6e615f00 	cdpvs	15, 6, cr5, cr1, cr0, {0}
     48c:	682e6973 	stmdavs	lr!, {r0, r1, r4, r5, r6, r8, fp, sp, lr}
     490:	00000500 	andeq	r0, r0, r0, lsl #10
     494:	6c77656e 	cfldr64vs	mvdx6, [r7], #-440	; 0xfffffe48
     498:	682e6269 	stmdavs	lr!, {r0, r3, r5, r6, r9, sp, lr}
     49c:	00000700 	andeq	r0, r0, r0, lsl #14
     4a0:	77656e5f 			; <UNDEFINED> instruction: 0x77656e5f
     4a4:	5f62696c 	svcpl	0x0062696c
     4a8:	73726576 	cmnvc	r2, #494927872	; 0x1d800000
     4ac:	2e6e6f69 	cdpcs	15, 6, cr6, cr14, cr9, {3}
     4b0:	00050068 	andeq	r0, r5, r8, rrx
     4b4:	6e6f6300 	cdpvs	3, 6, cr6, cr15, cr0, {0}
     4b8:	2e676966 	vnmulcs.f16	s13, s14, s13	; <UNPREDICTABLE>
     4bc:	00030068 	andeq	r0, r3, r8, rrx
     4c0:	61656600 	cmnvs	r5, r0, lsl #12
     4c4:	65727574 	ldrbvs	r7, [r2, #-1396]!	; 0xfffffa8c
     4c8:	00682e73 	rsbeq	r2, r8, r3, ror lr
     4cc:	5f000003 	svcpl	0x00000003
     4d0:	65707974 	ldrbvs	r7, [r0, #-2420]!	; 0xfffff68c
     4d4:	00682e73 	rsbeq	r2, r8, r3, ror lr
     4d8:	63000002 	movwvs	r0, #2
     4dc:	73666564 	cmnvc	r6, #100, 10	; 0x19000000
     4e0:	0300682e 	movweq	r6, #2094	; 0x82e
     4e4:	74730000 	ldrbtvc	r0, [r3], #-0
     4e8:	62696c64 	rsbvs	r6, r9, #100, 24	; 0x6400
     4ec:	0200682e 	andeq	r6, r0, #3014656	; 0x2e0000
     4f0:	6c610000 	stclvs	0, cr0, [r1], #-0
     4f4:	61636f6c 	cmnvs	r3, ip, ror #30
     4f8:	0500682e 	streq	r6, [r0, #-2094]	; 0xfffff7d2
     4fc:	74730000 	ldrbtvc	r0, [r3], #-0
     500:	746e6964 	strbtvc	r6, [lr], #-2404	; 0xfffff69c
     504:	0400682e 	streq	r6, [r0], #-2094	; 0xfffff7d2
     508:	74730000 	ldrbtvc	r0, [r3], #-0
     50c:	746e6964 	strbtvc	r6, [lr], #-2404	; 0xfffff69c
     510:	0500682e 	streq	r6, [r0, #-2094]	; 0xfffff7d2
     514:	695f0000 	ldmdbvs	pc, {}^	; <UNPREDICTABLE>
     518:	7573746e 	ldrbvc	r7, [r3, #-1134]!	; 0xfffffb92
     51c:	00682e70 	rsbeq	r2, r8, r0, ror lr
     520:	00000003 	andeq	r0, r0, r3
     524:	70020500 	andvc	r0, r2, r0, lsl #10
     528:	03080001 	movweq	r0, #32769	; 0x8001
     52c:	02590126 	subseq	r0, r9, #-2147483639	; 0x80000009
     530:	22671527 	rsbcs	r1, r7, #163577856	; 0x9c00000
     534:	22672267 	rsbcs	r2, r7, #1879048198	; 0x70000006
     538:	27672267 	strbcs	r2, [r7, -r7, ror #4]!
     53c:	22672667 	rsbcs	r2, r7, #108003328	; 0x6700000
     540:	01000902 	tsteq	r0, r2, lsl #18
     544:	02050001 	andeq	r0, r5, #1
     548:	0800023c 	stmdaeq	r0, {r2, r3, r4, r5, r9}
     54c:	0100cc03 	tsteq	r0, r3, lsl #24
     550:	15270259 	strne	r0, [r7, #-601]!	; 0xfffffda7
     554:	22672267 	rsbcs	r2, r7, #1879048198	; 0x70000006
     558:	22672267 	rsbcs	r2, r7, #1879048198	; 0x70000006
     55c:	26672767 	strbtcs	r2, [r7], -r7, ror #14
     560:	09022267 	stmdbeq	r2, {r0, r1, r2, r5, r6, r9, sp}
     564:	00010100 	andeq	r0, r1, r0, lsl #2
     568:	03080205 	movweq	r0, #33285	; 0x8205
     56c:	f3030800 	vsub.i8	d0, d3, d0
     570:	2f4d0100 	svccs	0x004d0100
     574:	774b874b 	strbvc	r8, [fp, -fp, asr #14]
     578:	02001408 	andeq	r1, r0, #8, 8	; 0x8000000
     57c:	9e060104 	adflss	f0, f6, f4
     580:	03040200 	movweq	r0, #16896	; 0x4200
     584:	04020058 	streq	r0, [r2], #-88	; 0xffffffa8
     588:	02005805 	andeq	r5, r0, #327680	; 0x50000
     58c:	00580704 	subseq	r0, r8, r4, lsl #14
     590:	2e080402 	cdpcs	4, 0, cr0, cr8, cr2, {0}
     594:	06040200 	streq	r0, [r4], -r0, lsl #4
     598:	0402002e 	streq	r0, [r2], #-46	; 0xffffffd2
     59c:	02002e04 	andeq	r2, r0, #4, 28	; 0x40
     5a0:	002e0204 	eoreq	r0, lr, r4, lsl #4
     5a4:	20100402 	andscs	r0, r0, r2, lsl #8
     5a8:	10040200 	andne	r0, r4, r0, lsl #4
     5ac:	02009506 	andeq	r9, r0, #25165824	; 0x1800000
     5b0:	00bb1004 	adcseq	r1, fp, r4
     5b4:	bd100402 	cfldrslt	mvf0, [r0, #-8]
     5b8:	bc4cbc4c 	mcrrlt	12, 4, fp, ip, cr12
     5bc:	86b2ad4c 	ldrthi	sl, [r2], ip, asr #26
     5c0:	1c6ead4c 	stclne	13, cr10, [lr], #-304	; 0xfffffed0
     5c4:	130269bb 	movwne	r6, #10683	; 0x29bb
     5c8:	00010100 	andeq	r0, r1, r0, lsl #2
     5cc:	00000205 	andeq	r0, r0, r5, lsl #4
     5d0:	c0030000 	andgt	r0, r3, r0
     5d4:	3d300101 	ldfccs	f0, [r0, #-4]!
     5d8:	3e3d3d3d 	mrccc	13, 1, r3, cr13, cr13, {1}
     5dc:	6767674d 	strbvs	r6, [r7, -sp, asr #14]!
     5e0:	67676767 	strbvs	r6, [r7, -r7, ror #14]!
     5e4:	01000b02 	tsteq	r0, r2, lsl #22
     5e8:	02050001 	andeq	r0, r5, #1
     5ec:	080004e4 	stmdaeq	r0, {r2, r5, r6, r7, sl}
     5f0:	0101de03 	tsteq	r1, r3, lsl #28
     5f4:	04023d4b 	streq	r3, [r2], #-3403	; 0xfffff2b5
     5f8:	00010100 	andeq	r0, r1, r0, lsl #2
     5fc:	00000205 	andeq	r0, r0, r5, lsl #4
     600:	ec030000 	stc	0, cr0, [r3], {-0}
     604:	3d4b0101 	stfcce	f0, [fp, #-4]
     608:	01000402 	tsteq	r0, r2, lsl #8
     60c:	02050001 	andeq	r0, r5, #1
     610:	080004fc 	stmdaeq	r0, {r2, r3, r4, r5, r6, r7, sl}
     614:	0101f903 	tsteq	r1, r3, lsl #18	; <UNPREDICTABLE>
     618:	023d6830 	eorseq	r6, sp, #48, 16	; 0x300000
     61c:	01010007 	tsteq	r1, r7
     620:	20020500 	andcs	r0, r2, r0, lsl #10
     624:	03080005 	movweq	r0, #32773	; 0x8005
     628:	30010281 	andcc	r0, r1, r1, lsl #5
     62c:	07023d68 	streq	r3, [r2, -r8, ror #26]
     630:	00010100 	andeq	r0, r1, r0, lsl #2
     634:	05440205 	strbeq	r0, [r4, #-517]	; 0xfffffdfb
     638:	89030800 	stmdbhi	r3, {fp}
     63c:	68300102 	ldmdavs	r0!, {r1, r8}
     640:	0007023d 	andeq	r0, r7, sp, lsr r2
     644:	05000101 	streq	r0, [r0, #-257]	; 0xfffffeff
     648:	00056802 	andeq	r6, r5, r2, lsl #16
     64c:	02910308 	addseq	r0, r1, #8, 6	; 0x20000000
     650:	3d683001 	stclcc	0, cr3, [r8, #-4]!
     654:	01000702 	tsteq	r0, r2, lsl #14
     658:	02050001 	andeq	r0, r5, #1
     65c:	0800058c 	stmdaeq	r0, {r2, r3, r7, r8, sl}
     660:	01029903 	tsteq	r2, r3, lsl #18
     664:	023d6830 	eorseq	r6, sp, #48, 16	; 0x300000
     668:	01010007 	tsteq	r1, r7
     66c:	b0020500 	andlt	r0, r2, r0, lsl #10
     670:	03080005 	movweq	r0, #32773	; 0x8005
     674:	2f0102a1 	svccs	0x000102a1
     678:	01040200 	mrseq	r0, R12_usr
     67c:	91068206 	tstls	r6, r6, lsl #4
     680:	01040200 	mrseq	r0, R12_usr
     684:	91068206 	tstls	r6, r6, lsl #4
     688:	01040200 	mrseq	r0, R12_usr
     68c:	91068206 	tstls	r6, r6, lsl #4
     690:	01040200 	mrseq	r0, R12_usr
     694:	91068206 	tstls	r6, r6, lsl #4
     698:	01040200 	mrseq	r0, R12_usr
     69c:	91068206 	tstls	r6, r6, lsl #4
     6a0:	01000702 	tsteq	r0, r2, lsl #14
     6a4:	02050001 	andeq	r0, r5, #1
     6a8:	0800066c 	stmdaeq	r0, {r2, r3, r5, r6, r9, sl}
     6ac:	0102aa03 	tsteq	r2, r3, lsl #20
     6b0:	0402002f 	streq	r0, [r2], #-47	; 0xffffffd1
     6b4:	06820601 	streq	r0, [r2], r1, lsl #12
     6b8:	04020091 	streq	r0, [r2], #-145	; 0xffffff6f
     6bc:	06820601 	streq	r0, [r2], r1, lsl #12
     6c0:	04020091 	streq	r0, [r2], #-145	; 0xffffff6f
     6c4:	06820601 	streq	r0, [r2], r1, lsl #12
     6c8:	04020091 	streq	r0, [r2], #-145	; 0xffffff6f
     6cc:	06820601 	streq	r0, [r2], r1, lsl #12
     6d0:	04020091 	streq	r0, [r2], #-145	; 0xffffff6f
     6d4:	06820601 	streq	r0, [r2], r1, lsl #12
     6d8:	04020091 	streq	r0, [r2], #-145	; 0xffffff6f
     6dc:	06820601 	streq	r0, [r2], r1, lsl #12
     6e0:	00060291 	muleq	r6, r1, r2
     6e4:	06210101 	strteq	r0, [r1], -r1, lsl #2
     6e8:	00020000 	andeq	r0, r2, r0
     6ec:	000004fd 	strdeq	r0, [r0], -sp
     6f0:	0efb0102 	cdpeq	1, 15, cr0, cr11, cr2, {0}
     6f4:	0101000d 	tsteq	r1, sp
     6f8:	00000101 	andeq	r0, r0, r1, lsl #2
     6fc:	00000100 	andeq	r0, r0, r0, lsl #2
     700:	2f2e2e01 	svccs	0x002e2e01
     704:	00637253 	rsbeq	r7, r3, r3, asr r2
     708:	735c3a63 	cmpvc	ip, #405504	; 0x63000
     70c:	74735c74 	ldrbtvc	r5, [r3], #-3188	; 0xfffff38c
     710:	6332336d 	teqvs	r2, #-1275068415	; 0xb4000001
     714:	69656275 	stmdbvs	r5!, {r0, r2, r4, r5, r6, r9, sp, lr}^
     718:	315f6564 	cmpcc	pc, r4, ror #10
     71c:	302e342e 	eorcc	r3, lr, lr, lsr #8
     720:	6d74735c 	ldclvs	3, cr7, [r4, #-368]!	; 0xfffffe90
     724:	75633233 	strbvc	r3, [r3, #-563]!	; 0xfffffdcd
     728:	64696562 	strbtvs	r6, [r9], #-1378	; 0xfffffa9e
     72c:	6c705c65 	ldclvs	12, cr5, [r0], #-404	; 0xfffffe6c
     730:	6e696775 	mcrvs	7, 3, r6, cr9, cr5, {3}
     734:	6f635c73 	svcvs	0x00635c73
     738:	74732e6d 	ldrbtvc	r2, [r3], #-3693	; 0xfffff193
     73c:	6d74732e 	ldclvs	3, cr7, [r4, #-184]!	; 0xffffff48
     740:	75633233 	strbvc	r3, [r3, #-563]!	; 0xfffffdcd
     744:	692e6562 	stmdbvs	lr!, {r1, r5, r6, r8, sl, sp, lr}
     748:	6d2e6564 	cfstr32vs	mvfx6, [lr, #-400]!	; 0xfffffe70
     74c:	652e7563 	strvs	r7, [lr, #-1379]!	; 0xfffffa9d
     750:	72657478 	rsbvc	r7, r5, #120, 8	; 0x78000000
     754:	746c616e 	strbtvc	r6, [ip], #-366	; 0xfffffe92
     758:	736c6f6f 	cmnvc	ip, #444	; 0x1bc
     75c:	756e672e 	strbvc	r6, [lr, #-1838]!	; 0xfffff8d2
     760:	6f6f742d 	svcvs	0x006f742d
     764:	662d736c 	strtvs	r7, [sp], -ip, ror #6
     768:	732d726f 			; <UNDEFINED> instruction: 0x732d726f
     76c:	32336d74 	eorscc	r6, r3, #116, 26	; 0x1d00
     770:	322d372e 	eorcc	r3, sp, #12058624	; 0xb80000
     774:	2d383130 	ldfcss	f3, [r8, #-192]!	; 0xffffff40
     778:	752d3271 	strvc	r3, [sp, #-625]!	; 0xfffffd8f
     77c:	74616470 	strbtvc	r6, [r1], #-1136	; 0xfffffb90
     780:	69772e65 	ldmdbvs	r7!, {r0, r2, r5, r6, r9, sl, fp, sp}^
     784:	5f32336e 	svcpl	0x0032336e
     788:	2e342e31 	mrccs	14, 1, r2, cr4, cr1, {1}
     78c:	30322e30 	eorscc	r2, r2, r0, lsr lr
     790:	37303032 			; <UNDEFINED> instruction: 0x37303032
     794:	32313830 	eorscc	r3, r1, #48, 16	; 0x300000
     798:	745c3830 	ldrbvc	r3, [ip], #-2096	; 0xfffff7d0
     79c:	736c6f6f 	cmnvc	ip, #444	; 0x1bc
     7a0:	6d72615c 	ldfvse	f6, [r2, #-368]!	; 0xfffffe90
     7a4:	6e6f6e2d 	cdpvs	14, 6, cr6, cr15, cr13, {1}
     7a8:	61652d65 	cmnvs	r5, r5, ror #26
     7ac:	695c6962 	ldmdbvs	ip, {r1, r5, r6, r8, fp, sp, lr}^
     7b0:	756c636e 	strbvc	r6, [ip, #-878]!	; 0xfffffc92
     7b4:	6d5c6564 	cfldr64vs	mvdx6, [ip, #-400]	; 0xfffffe70
     7b8:	69686361 	stmdbvs	r8!, {r0, r5, r6, r8, r9, sp, lr}^
     7bc:	6300656e 	movwvs	r6, #1390	; 0x56e
     7c0:	74735c3a 	ldrbtvc	r5, [r3], #-3130	; 0xfffff3c6
     7c4:	6d74735c 	ldclvs	3, cr7, [r4, #-368]!	; 0xfffffe90
     7c8:	75633233 	strbvc	r3, [r3, #-563]!	; 0xfffffdcd
     7cc:	64696562 	strbtvs	r6, [r9], #-1378	; 0xfffffa9e
     7d0:	2e315f65 	cdpcs	15, 3, cr5, cr1, cr5, {3}
     7d4:	5c302e34 	ldcpl	14, cr2, [r0], #-208	; 0xffffff30
     7d8:	336d7473 	cmncc	sp, #1929379840	; 0x73000000
     7dc:	62756332 	rsbsvs	r6, r5, #-939524096	; 0xc8000000
     7e0:	65646965 	strbvs	r6, [r4, #-2405]!	; 0xfffff69b
     7e4:	756c705c 	strbvc	r7, [ip, #-92]!	; 0xffffffa4
     7e8:	736e6967 	cmnvc	lr, #1687552	; 0x19c000
     7ec:	6d6f635c 	stclvs	3, cr6, [pc, #-368]!	; 684 <_Min_Stack_Size+0x284>
     7f0:	2e74732e 	cdpcs	3, 7, cr7, cr4, cr14, {1}
     7f4:	336d7473 	cmncc	sp, #1929379840	; 0x73000000
     7f8:	62756332 	rsbsvs	r6, r5, #-939524096	; 0xc8000000
     7fc:	64692e65 	strbtvs	r2, [r9], #-3685	; 0xfffff19b
     800:	636d2e65 	cmnvs	sp, #1616	; 0x650
     804:	78652e75 	stmdavc	r5!, {r0, r2, r4, r5, r6, r9, sl, fp, sp}^
     808:	6e726574 	mrcvs	5, 3, r6, cr2, cr4, {3}
     80c:	6f746c61 	svcvs	0x00746c61
     810:	2e736c6f 	cdpcs	12, 7, cr6, cr3, cr15, {3}
     814:	2d756e67 	ldclcs	14, cr6, [r5, #-412]!	; 0xfffffe64
     818:	6c6f6f74 	stclvs	15, cr6, [pc], #-464	; 650 <_Min_Stack_Size+0x250>
     81c:	6f662d73 	svcvs	0x00662d73
     820:	74732d72 	ldrbtvc	r2, [r3], #-3442	; 0xfffff28e
     824:	2e32336d 	cdpcs	3, 3, cr3, cr2, cr13, {3}
     828:	30322d37 	eorscc	r2, r2, r7, lsr sp
     82c:	712d3831 			; <UNDEFINED> instruction: 0x712d3831
     830:	70752d32 	rsbsvc	r2, r5, r2, lsr sp
     834:	65746164 	ldrbvs	r6, [r4, #-356]!	; 0xfffffe9c
     838:	6e69772e 	cdpvs	7, 6, cr7, cr9, cr14, {1}
     83c:	315f3233 	cmpcc	pc, r3, lsr r2	; <UNPREDICTABLE>
     840:	302e342e 	eorcc	r3, lr, lr, lsr #8
     844:	3230322e 	eorscc	r3, r0, #-536870910	; 0xe0000002
     848:	30373030 	eorscc	r3, r7, r0, lsr r0
     84c:	30323138 	eorscc	r3, r2, r8, lsr r1
     850:	6f745c38 	svcvs	0x00745c38
     854:	5c736c6f 	ldclpl	12, cr6, [r3], #-444	; 0xfffffe44
     858:	2d6d7261 	sfmcs	f7, 2, [sp, #-388]!	; 0xfffffe7c
     85c:	656e6f6e 	strbvs	r6, [lr, #-3950]!	; 0xfffff092
     860:	6261652d 	rsbvs	r6, r1, #188743680	; 0xb400000
     864:	6e695c69 	cdpvs	12, 6, cr5, cr9, cr9, {3}
     868:	64756c63 	ldrbtvs	r6, [r5], #-3171	; 0xfffff39d
     86c:	79735c65 	ldmdbvc	r3!, {r0, r2, r5, r6, sl, fp, ip, lr}^
     870:	3a630073 	bcc	18c0a44 <_Min_Stack_Size+0x18c0644>
     874:	5c74735c 	ldclpl	3, cr7, [r4], #-368	; 0xfffffe90
     878:	336d7473 	cmncc	sp, #1929379840	; 0x73000000
     87c:	62756332 	rsbsvs	r6, r5, #-939524096	; 0xc8000000
     880:	65646965 	strbvs	r6, [r4, #-2405]!	; 0xfffff69b
     884:	342e315f 	strtcc	r3, [lr], #-351	; 0xfffffea1
     888:	735c302e 	cmpvc	ip, #46	; 0x2e
     88c:	32336d74 	eorscc	r6, r3, #116, 26	; 0x1d00
     890:	65627563 	strbvs	r7, [r2, #-1379]!	; 0xfffffa9d
     894:	5c656469 	cfstrdpl	mvd6, [r5], #-420	; 0xfffffe5c
     898:	67756c70 			; <UNDEFINED> instruction: 0x67756c70
     89c:	5c736e69 	ldclpl	14, cr6, [r3], #-420	; 0xfffffe5c
     8a0:	2e6d6f63 	cdpcs	15, 6, cr6, cr13, cr3, {3}
     8a4:	732e7473 			; <UNDEFINED> instruction: 0x732e7473
     8a8:	32336d74 	eorscc	r6, r3, #116, 26	; 0x1d00
     8ac:	65627563 	strbvs	r7, [r2, #-1379]!	; 0xfffffa9d
     8b0:	6564692e 	strbvs	r6, [r4, #-2350]!	; 0xfffff6d2
     8b4:	75636d2e 	strbvc	r6, [r3, #-3374]!	; 0xfffff2d2
     8b8:	7478652e 	ldrbtvc	r6, [r8], #-1326	; 0xfffffad2
     8bc:	616e7265 	cmnvs	lr, r5, ror #4
     8c0:	6f6f746c 	svcvs	0x006f746c
     8c4:	672e736c 	strvs	r7, [lr, -ip, ror #6]!
     8c8:	742d756e 	strtvc	r7, [sp], #-1390	; 0xfffffa92
     8cc:	736c6f6f 	cmnvc	ip, #444	; 0x1bc
     8d0:	726f662d 	rsbvc	r6, pc, #47185920	; 0x2d00000
     8d4:	6d74732d 	ldclvs	3, cr7, [r4, #-180]!	; 0xffffff4c
     8d8:	372e3233 			; <UNDEFINED> instruction: 0x372e3233
     8dc:	3130322d 	teqcc	r0, sp, lsr #4
     8e0:	32712d38 	rsbscc	r2, r1, #56, 26	; 0xe00
     8e4:	6470752d 	ldrbtvs	r7, [r0], #-1325	; 0xfffffad3
     8e8:	2e657461 	cdpcs	4, 6, cr7, cr5, cr1, {3}
     8ec:	336e6977 	cmncc	lr, #1949696	; 0x1dc000
     8f0:	2e315f32 	mrccs	15, 1, r5, cr1, cr2, {1}
     8f4:	2e302e34 	mrccs	14, 1, r2, cr0, cr4, {1}
     8f8:	30323032 	eorscc	r3, r2, r2, lsr r0
     8fc:	38303730 	ldmdacc	r0!, {r4, r5, r8, r9, sl, ip, sp}
     900:	38303231 	ldmdacc	r0!, {r0, r4, r5, r9, ip, sp}
     904:	6f6f745c 	svcvs	0x006f745c
     908:	6c5c736c 	mrrcvs	3, 6, r7, ip, cr12
     90c:	675c6269 	ldrbvs	r6, [ip, -r9, ror #4]
     910:	615c6363 	cmpvs	ip, r3, ror #6
     914:	6e2d6d72 	mcrvs	13, 1, r6, cr13, cr2, {3}
     918:	2d656e6f 	stclcs	14, cr6, [r5, #-444]!	; 0xfffffe44
     91c:	69626165 	stmdbvs	r2!, {r0, r2, r5, r6, r8, sp, lr}^
     920:	332e375c 			; <UNDEFINED> instruction: 0x332e375c
     924:	695c312e 	ldmdbvs	ip, {r1, r2, r3, r5, r8, ip, sp}^
     928:	756c636e 	strbvc	r6, [ip, #-878]!	; 0xfffffc92
     92c:	63006564 	movwvs	r6, #1380	; 0x564
     930:	74735c3a 	ldrbtvc	r5, [r3], #-3130	; 0xfffff3c6
     934:	6d74735c 	ldclvs	3, cr7, [r4, #-368]!	; 0xfffffe90
     938:	75633233 	strbvc	r3, [r3, #-563]!	; 0xfffffdcd
     93c:	64696562 	strbtvs	r6, [r9], #-1378	; 0xfffffa9e
     940:	2e315f65 	cdpcs	15, 3, cr5, cr1, cr5, {3}
     944:	5c302e34 	ldcpl	14, cr2, [r0], #-208	; 0xffffff30
     948:	336d7473 	cmncc	sp, #1929379840	; 0x73000000
     94c:	62756332 	rsbsvs	r6, r5, #-939524096	; 0xc8000000
     950:	65646965 	strbvs	r6, [r4, #-2405]!	; 0xfffff69b
     954:	756c705c 	strbvc	r7, [ip, #-92]!	; 0xffffffa4
     958:	736e6967 	cmnvc	lr, #1687552	; 0x19c000
     95c:	6d6f635c 	stclvs	3, cr6, [pc, #-368]!	; 7f4 <_Min_Stack_Size+0x3f4>
     960:	2e74732e 	cdpcs	3, 7, cr7, cr4, cr14, {1}
     964:	336d7473 	cmncc	sp, #1929379840	; 0x73000000
     968:	62756332 	rsbsvs	r6, r5, #-939524096	; 0xc8000000
     96c:	64692e65 	strbtvs	r2, [r9], #-3685	; 0xfffff19b
     970:	636d2e65 	cmnvs	sp, #1616	; 0x650
     974:	78652e75 	stmdavc	r5!, {r0, r2, r4, r5, r6, r9, sl, fp, sp}^
     978:	6e726574 	mrcvs	5, 3, r6, cr2, cr4, {3}
     97c:	6f746c61 	svcvs	0x00746c61
     980:	2e736c6f 	cdpcs	12, 7, cr6, cr3, cr15, {3}
     984:	2d756e67 	ldclcs	14, cr6, [r5, #-412]!	; 0xfffffe64
     988:	6c6f6f74 	stclvs	15, cr6, [pc], #-464	; 7c0 <_Min_Stack_Size+0x3c0>
     98c:	6f662d73 	svcvs	0x00662d73
     990:	74732d72 	ldrbtvc	r2, [r3], #-3442	; 0xfffff28e
     994:	2e32336d 	cdpcs	3, 3, cr3, cr2, cr13, {3}
     998:	30322d37 	eorscc	r2, r2, r7, lsr sp
     99c:	712d3831 			; <UNDEFINED> instruction: 0x712d3831
     9a0:	70752d32 	rsbsvc	r2, r5, r2, lsr sp
     9a4:	65746164 	ldrbvs	r6, [r4, #-356]!	; 0xfffffe9c
     9a8:	6e69772e 	cdpvs	7, 6, cr7, cr9, cr14, {1}
     9ac:	315f3233 	cmpcc	pc, r3, lsr r2	; <UNPREDICTABLE>
     9b0:	302e342e 	eorcc	r3, lr, lr, lsr #8
     9b4:	3230322e 	eorscc	r3, r0, #-536870910	; 0xe0000002
     9b8:	30373030 	eorscc	r3, r7, r0, lsr r0
     9bc:	30323138 	eorscc	r3, r2, r8, lsr r1
     9c0:	6f745c38 	svcvs	0x00745c38
     9c4:	5c736c6f 	ldclpl	12, cr6, [r3], #-444	; 0xfffffe44
     9c8:	2d6d7261 	sfmcs	f7, 2, [sp, #-388]!	; 0xfffffe7c
     9cc:	656e6f6e 	strbvs	r6, [lr, #-3950]!	; 0xfffff092
     9d0:	6261652d 	rsbvs	r6, r1, #188743680	; 0xb400000
     9d4:	6e695c69 	cdpvs	12, 6, cr5, cr9, cr9, {3}
     9d8:	64756c63 	ldrbtvs	r6, [r5], #-3171	; 0xfffff39d
     9dc:	2e2e0065 	cdpcs	0, 2, cr0, cr14, cr5, {3}
     9e0:	636e492f 	cmnvs	lr, #770048	; 0xbc000
     9e4:	5c3a6300 	ldcpl	3, cr6, [sl], #-0
     9e8:	735c7473 	cmpvc	ip, #1929379840	; 0x73000000
     9ec:	32336d74 	eorscc	r6, r3, #116, 26	; 0x1d00
     9f0:	65627563 	strbvs	r7, [r2, #-1379]!	; 0xfffffa9d
     9f4:	5f656469 	svcpl	0x00656469
     9f8:	2e342e31 	mrccs	14, 1, r2, cr4, cr1, {1}
     9fc:	74735c30 	ldrbtvc	r5, [r3], #-3120	; 0xfffff3d0
     a00:	6332336d 	teqvs	r2, #-1275068415	; 0xb4000001
     a04:	69656275 	stmdbvs	r5!, {r0, r2, r4, r5, r6, r9, sp, lr}^
     a08:	705c6564 	subsvc	r6, ip, r4, ror #10
     a0c:	6967756c 	stmdbvs	r7!, {r2, r3, r5, r6, r8, sl, ip, sp, lr}^
     a10:	635c736e 	cmpvs	ip, #-1207959551	; 0xb8000001
     a14:	732e6d6f 			; <UNDEFINED> instruction: 0x732e6d6f
     a18:	74732e74 	ldrbtvc	r2, [r3], #-3700	; 0xfffff18c
     a1c:	6332336d 	teqvs	r2, #-1275068415	; 0xb4000001
     a20:	2e656275 	mcrcs	2, 3, r6, cr5, cr5, {3}
     a24:	2e656469 	cdpcs	4, 6, cr6, cr5, cr9, {3}
     a28:	2e75636d 	cdpcs	3, 7, cr6, cr5, cr13, {3}
     a2c:	65747865 	ldrbvs	r7, [r4, #-2149]!	; 0xfffff79b
     a30:	6c616e72 	stclvs	14, cr6, [r1], #-456	; 0xfffffe38
     a34:	6c6f6f74 	stclvs	15, cr6, [pc], #-464	; 86c <_Min_Stack_Size+0x46c>
     a38:	6e672e73 	mcrvs	14, 3, r2, cr7, cr3, {3}
     a3c:	6f742d75 	svcvs	0x00742d75
     a40:	2d736c6f 	ldclcs	12, cr6, [r3, #-444]!	; 0xfffffe44
     a44:	2d726f66 	ldclcs	15, cr6, [r2, #-408]!	; 0xfffffe68
     a48:	336d7473 	cmncc	sp, #1929379840	; 0x73000000
     a4c:	2d372e32 	ldccs	14, cr2, [r7, #-200]!	; 0xffffff38
     a50:	38313032 	ldmdacc	r1!, {r1, r4, r5, ip, sp}
     a54:	2d32712d 	ldfcss	f7, [r2, #-180]!	; 0xffffff4c
     a58:	61647075 	smcvs	18181	; 0x4705
     a5c:	772e6574 			; <UNDEFINED> instruction: 0x772e6574
     a60:	32336e69 	eorscc	r6, r3, #1680	; 0x690
     a64:	342e315f 	strtcc	r3, [lr], #-351	; 0xfffffea1
     a68:	322e302e 	eorcc	r3, lr, #46	; 0x2e
     a6c:	30303230 	eorscc	r3, r0, r0, lsr r2
     a70:	31383037 	teqcc	r8, r7, lsr r0
     a74:	5c383032 	ldcpl	0, cr3, [r8], #-200	; 0xffffff38
     a78:	6c6f6f74 	stclvs	15, cr6, [pc], #-464	; 8b0 <_Min_Stack_Size+0x4b0>
     a7c:	72615c73 	rsbvc	r5, r1, #29440	; 0x7300
     a80:	6f6e2d6d 	svcvs	0x006e2d6d
     a84:	652d656e 	strvs	r6, [sp, #-1390]!	; 0xfffffa92
     a88:	5c696261 	sfmpl	f6, 2, [r9], #-388	; 0xfffffe7c
     a8c:	6c636e69 	stclvs	14, cr6, [r3], #-420	; 0xfffffe5c
     a90:	5c656475 	cfstrdpl	mvd6, [r5], #-468	; 0xfffffe2c
     a94:	6c77656e 	cfldr64vs	mvdx6, [r7], #-440	; 0xfffffe48
     a98:	6e2d6269 	cdpvs	2, 2, cr6, cr13, cr9, {3}
     a9c:	006f6e61 	rsbeq	r6, pc, r1, ror #28
     aa0:	4d545300 	ldclmi	3, cr5, [r4, #-0]
     aa4:	31463233 	cmpcc	r6, r3, lsr r2
     aa8:	36433330 			; <UNDEFINED> instruction: 0x36433330
     aac:	4950475f 	ldmdbmi	r0, {r0, r1, r2, r3, r4, r6, r8, r9, sl, lr}^
     ab0:	72445f4f 	subvc	r5, r4, #316	; 0x13c
     ab4:	72657669 	rsbvc	r7, r5, #110100480	; 0x6900000
     ab8:	0100632e 	tsteq	r0, lr, lsr #6
     abc:	645f0000 	ldrbvs	r0, [pc], #-0	; ac4 <_Min_Stack_Size+0x6c4>
     ac0:	75616665 	strbvc	r6, [r1, #-1637]!	; 0xfffff99b
     ac4:	745f746c 	ldrbvc	r7, [pc], #-1132	; acc <_Min_Stack_Size+0x6cc>
     ac8:	73657079 	cmnvc	r5, #121	; 0x79
     acc:	0200682e 	andeq	r6, r0, #3014656	; 0x2e0000
     ad0:	6f6c0000 	svcvs	0x006c0000
     ad4:	682e6b63 	stmdavs	lr!, {r0, r1, r5, r6, r8, r9, fp, sp, lr}
     ad8:	00000300 	andeq	r0, r0, r0, lsl #6
     adc:	7079745f 	rsbsvc	r7, r9, pc, asr r4
     ae0:	682e7365 	stmdavs	lr!, {r0, r2, r5, r6, r8, r9, ip, sp, lr}
     ae4:	00000300 	andeq	r0, r0, r0, lsl #6
     ae8:	64647473 	strbtvs	r7, [r4], #-1139	; 0xfffffb8d
     aec:	682e6665 	stmdavs	lr!, {r0, r2, r5, r6, r9, sl, sp, lr}
     af0:	00000400 	andeq	r0, r0, r0, lsl #8
     af4:	6e656572 	mcrvs	5, 3, r6, cr5, cr2, {3}
     af8:	00682e74 	rsbeq	r2, r8, r4, ror lr
     afc:	73000003 	movwvc	r0, #3
     b00:	696c6474 	stmdbvs	ip!, {r2, r4, r5, r6, sl, sp, lr}^
     b04:	00682e62 	rsbeq	r2, r8, r2, ror #28
     b08:	5f000005 	svcpl	0x00000005
     b0c:	69647473 	stmdbvs	r4!, {r0, r1, r4, r5, r6, sl, ip, sp, lr}^
     b10:	682e746e 	stmdavs	lr!, {r1, r2, r3, r5, r6, sl, ip, sp, lr}
     b14:	00000300 	andeq	r0, r0, r0, lsl #6
     b18:	334d5453 	movtcc	r5, #54355	; 0xd453
     b1c:	30314632 	eorscc	r4, r1, r2, lsr r6
     b20:	2e365833 	mrccs	8, 1, r5, cr6, cr3, {1}
     b24:	00060068 	andeq	r0, r6, r8, rrx
     b28:	4d545300 	ldclmi	3, cr5, [r4, #-0]
     b2c:	31463233 	cmpcc	r6, r3, lsr r2
     b30:	36433330 			; <UNDEFINED> instruction: 0x36433330
     b34:	4950475f 	ldmdbmi	r0, {r0, r1, r2, r3, r4, r6, r8, r9, sl, lr}^
     b38:	72445f4f 	subvc	r5, r4, #316	; 0x13c
     b3c:	72657669 	rsbvc	r7, r5, #110100480	; 0x6900000
     b40:	0600682e 	streq	r6, [r0], -lr, lsr #16
     b44:	65690000 	strbvs	r0, [r9, #-0]!
     b48:	70666565 	rsbvc	r6, r6, r5, ror #10
     b4c:	0200682e 	andeq	r6, r0, #3014656	; 0x2e0000
     b50:	615f0000 	cmpvs	pc, r0
     b54:	2e69736e 	cdpcs	3, 6, cr7, cr9, cr14, {3}
     b58:	00050068 	andeq	r0, r5, r8, rrx
     b5c:	77656e00 	strbvc	r6, [r5, -r0, lsl #28]!
     b60:	2e62696c 	vnmulcs.f16	s13, s4, s25	; <UNPREDICTABLE>
     b64:	00070068 	andeq	r0, r7, r8, rrx
     b68:	656e5f00 	strbvs	r5, [lr, #-3840]!	; 0xfffff100
     b6c:	62696c77 	rsbvs	r6, r9, #30464	; 0x7700
     b70:	7265765f 	rsbvc	r7, r5, #99614720	; 0x5f00000
     b74:	6e6f6973 			; <UNDEFINED> instruction: 0x6e6f6973
     b78:	0500682e 	streq	r6, [r0, #-2094]	; 0xfffff7d2
     b7c:	6f630000 	svcvs	0x00630000
     b80:	6769666e 	strbvs	r6, [r9, -lr, ror #12]!
     b84:	0300682e 	movweq	r6, #2094	; 0x82e
     b88:	65660000 	strbvs	r0, [r6, #-0]!
     b8c:	72757461 	rsbsvc	r7, r5, #1627389952	; 0x61000000
     b90:	682e7365 	stmdavs	lr!, {r0, r2, r5, r6, r8, r9, ip, sp, lr}
     b94:	00000300 	andeq	r0, r0, r0, lsl #6
     b98:	7079745f 	rsbsvc	r7, r9, pc, asr r4
     b9c:	682e7365 	stmdavs	lr!, {r0, r2, r5, r6, r8, r9, ip, sp, lr}
     ba0:	00000200 	andeq	r0, r0, r0, lsl #4
     ba4:	66656463 	strbtvs	r6, [r5], -r3, ror #8
     ba8:	00682e73 	rsbeq	r2, r8, r3, ror lr
     bac:	73000003 	movwvc	r0, #3
     bb0:	696c6474 	stmdbvs	ip!, {r2, r4, r5, r6, sl, sp, lr}^
     bb4:	00682e62 	rsbeq	r2, r8, r2, ror #28
     bb8:	61000002 	tstvs	r0, r2
     bbc:	636f6c6c 	cmnvs	pc, #108, 24	; 0x6c00
     bc0:	00682e61 	rsbeq	r2, r8, r1, ror #28
     bc4:	73000005 	movwvc	r0, #5
     bc8:	6e696474 	mcrvs	4, 3, r6, cr9, cr4, {3}
     bcc:	00682e74 	rsbeq	r2, r8, r4, ror lr
     bd0:	73000004 	movwvc	r0, #4
     bd4:	6e696474 	mcrvs	4, 3, r6, cr9, cr4, {3}
     bd8:	00682e74 	rsbeq	r2, r8, r4, ror lr
     bdc:	5f000005 	svcpl	0x00000005
     be0:	73746e69 	cmnvc	r4, #1680	; 0x690
     be4:	682e7075 	stmdavs	lr!, {r0, r2, r4, r5, r6, ip, sp, lr}
     be8:	00000300 	andeq	r0, r0, r0, lsl #6
     bec:	02050000 	andeq	r0, r5, #0
     bf0:	08000748 	stmdaeq	r0, {r3, r6, r8, r9, sl}
     bf4:	59011903 	stmdbpl	r1, {r0, r1, r8, fp, ip}
     bf8:	31163802 	tstcc	r6, r2, lsl #16
     bfc:	31313131 	teqcc	r1, r1, lsr r1
     c00:	31323131 	teqcc	r2, r1, lsr r1
     c04:	31313131 	teqcc	r1, r1, lsr r1
     c08:	21313131 	teqcs	r1, r1, lsr r1
     c0c:	01000502 	tsteq	r0, r2, lsl #10
     c10:	02050001 	andeq	r0, r5, #1
     c14:	0800080e 	stmdaeq	r0, {r1, r2, r3, fp}
     c18:	0100e303 	tsteq	r0, r3, lsl #6
     c1c:	00302f5b 	eorseq	r2, r0, fp, asr pc
     c20:	06010402 	streq	r0, [r1], -r2, lsl #8
     c24:	0402004a 	streq	r0, [r2], #-74	; 0xffffffb6
     c28:	02002e02 	andeq	r2, r0, #2, 28
     c2c:	002e0404 	eoreq	r0, lr, r4, lsl #8
     c30:	06040402 	streq	r0, [r4], -r2, lsl #8
     c34:	04020023 	streq	r0, [r2], #-35	; 0xffffffdd
     c38:	0200e704 	andeq	lr, r0, #4, 14	; 0x100000
     c3c:	4a060104 	bmi	181054 <_Min_Stack_Size+0x180c54>
     c40:	02040200 	andeq	r0, r4, #0, 4
     c44:	0402004a 	streq	r0, [r2], #-74	; 0xffffffb6
     c48:	50064a03 	andpl	r4, r6, r3, lsl #20
     c4c:	040200e9 	streq	r0, [r2], #-233	; 0xffffff17
     c50:	064a0601 	strbeq	r0, [sl], -r1, lsl #12
     c54:	404c844e 	submi	r8, ip, lr, asr #8
     c58:	87874d2f 	strhi	r4, [r7, pc, lsr #26]
     c5c:	000402d7 	ldrdeq	r0, [r4], -r7
     c60:	05000101 	streq	r0, [r0, #-257]	; 0xfffffeff
     c64:	00000002 	andeq	r0, r0, r2
     c68:	01a00300 	lsleq	r0, r0, #6
     c6c:	4a110301 	bmi	441878 <_Min_Stack_Size+0x441478>
     c70:	1603674c 	strne	r6, [r3], -ip, asr #14
     c74:	206c0366 	rsbcs	r0, ip, r6, ror #6
     c78:	1103674c 	tstne	r3, ip, asr #14
     c7c:	20710366 	rsbscs	r0, r1, r6, ror #6
     c80:	0c03674c 	stceq	7, cr6, [r3], {76}	; 0x4c
     c84:	20760366 	rsbscs	r0, r6, r6, ror #6
     c88:	026d674c 	rsbeq	r6, sp, #76, 14	; 0x1300000
     c8c:	0101000f 	tsteq	r1, pc
     c90:	00020500 	andeq	r0, r2, r0, lsl #10
     c94:	03000000 	movweq	r0, #0
     c98:	690101d6 	stmdbvs	r1, {r1, r2, r4, r6, r7, r8}
     c9c:	21304068 	teqcs	r0, r8, rrx
     ca0:	01000502 	tsteq	r0, r2, lsl #10
     ca4:	02050001 	andeq	r0, r5, #1
     ca8:	00000000 	andeq	r0, r0, r0
     cac:	0101ee03 	tsteq	r1, r3, lsl #28
     cb0:	02213d4c 	eoreq	r3, r1, #76, 26	; 0x1300
     cb4:	01010005 	tsteq	r1, r5
     cb8:	00020500 	andeq	r0, r2, r0, lsl #10
     cbc:	03000000 	movweq	r0, #0
     cc0:	830101ff 	movwhi	r0, #4607	; 0x11ff
     cc4:	771d6e3e 			; <UNDEFINED> instruction: 0x771d6e3e
     cc8:	01000502 	tsteq	r0, r2, lsl #10
     ccc:	02050001 	andeq	r0, r5, #1
     cd0:	00000000 	andeq	r0, r0, r0
     cd4:	01029603 	tsteq	r2, r3, lsl #12
     cd8:	05023d67 	streq	r3, [r2, #-3431]	; 0xfffff299
     cdc:	00010100 	andeq	r0, r1, r0, lsl #2
     ce0:	00000205 	andeq	r0, r0, r5, lsl #4
     ce4:	a4030000 	strge	r0, [r3], #-0
     ce8:	67670102 	strbvs	r0, [r7, -r2, lsl #2]!
     cec:	01000502 	tsteq	r0, r2, lsl #10
     cf0:	02050001 	andeq	r0, r5, #1
     cf4:	00000000 	andeq	r0, r0, r0
     cf8:	0102b203 	tsteq	r2, r3, lsl #4
     cfc:	684e3f68 	stmdavs	lr, {r3, r5, r6, r8, r9, sl, fp, ip, sp}^
     d00:	5a3e6868 	bpl	f9aea8 <_Min_Stack_Size+0xf9aaa8>
     d04:	05022232 	streq	r2, [r2, #-562]	; 0xfffffdce
     d08:	66010100 	strvs	r0, [r1], -r0, lsl #2
     d0c:	02000005 	andeq	r0, r0, #5
     d10:	00050700 	andeq	r0, r5, r0, lsl #14
     d14:	fb010200 	blx	4151e <_Min_Stack_Size+0x4111e>
     d18:	01000d0e 	tsteq	r0, lr, lsl #26
     d1c:	00010101 	andeq	r0, r1, r1, lsl #2
     d20:	00010000 	andeq	r0, r1, r0
     d24:	2e2e0100 	sufcse	f0, f6, f0
     d28:	6372532f 	cmnvs	r2, #-1140850688	; 0xbc000000
     d2c:	5c3a6300 	ldcpl	3, cr6, [sl], #-0
     d30:	735c7473 	cmpvc	ip, #1929379840	; 0x73000000
     d34:	32336d74 	eorscc	r6, r3, #116, 26	; 0x1d00
     d38:	65627563 	strbvs	r7, [r2, #-1379]!	; 0xfffffa9d
     d3c:	5f656469 	svcpl	0x00656469
     d40:	2e342e31 	mrccs	14, 1, r2, cr4, cr1, {1}
     d44:	74735c30 	ldrbtvc	r5, [r3], #-3120	; 0xfffff3d0
     d48:	6332336d 	teqvs	r2, #-1275068415	; 0xb4000001
     d4c:	69656275 	stmdbvs	r5!, {r0, r2, r4, r5, r6, r9, sp, lr}^
     d50:	705c6564 	subsvc	r6, ip, r4, ror #10
     d54:	6967756c 	stmdbvs	r7!, {r2, r3, r5, r6, r8, sl, ip, sp, lr}^
     d58:	635c736e 	cmpvs	ip, #-1207959551	; 0xb8000001
     d5c:	732e6d6f 			; <UNDEFINED> instruction: 0x732e6d6f
     d60:	74732e74 	ldrbtvc	r2, [r3], #-3700	; 0xfffff18c
     d64:	6332336d 	teqvs	r2, #-1275068415	; 0xb4000001
     d68:	2e656275 	mcrcs	2, 3, r6, cr5, cr5, {3}
     d6c:	2e656469 	cdpcs	4, 6, cr6, cr5, cr9, {3}
     d70:	2e75636d 	cdpcs	3, 7, cr6, cr5, cr13, {3}
     d74:	65747865 	ldrbvs	r7, [r4, #-2149]!	; 0xfffff79b
     d78:	6c616e72 	stclvs	14, cr6, [r1], #-456	; 0xfffffe38
     d7c:	6c6f6f74 	stclvs	15, cr6, [pc], #-464	; bb4 <_Min_Stack_Size+0x7b4>
     d80:	6e672e73 	mcrvs	14, 3, r2, cr7, cr3, {3}
     d84:	6f742d75 	svcvs	0x00742d75
     d88:	2d736c6f 	ldclcs	12, cr6, [r3, #-444]!	; 0xfffffe44
     d8c:	2d726f66 	ldclcs	15, cr6, [r2, #-408]!	; 0xfffffe68
     d90:	336d7473 	cmncc	sp, #1929379840	; 0x73000000
     d94:	2d372e32 	ldccs	14, cr2, [r7, #-200]!	; 0xffffff38
     d98:	38313032 	ldmdacc	r1!, {r1, r4, r5, ip, sp}
     d9c:	2d32712d 	ldfcss	f7, [r2, #-180]!	; 0xffffff4c
     da0:	61647075 	smcvs	18181	; 0x4705
     da4:	772e6574 			; <UNDEFINED> instruction: 0x772e6574
     da8:	32336e69 	eorscc	r6, r3, #1680	; 0x690
     dac:	342e315f 	strtcc	r3, [lr], #-351	; 0xfffffea1
     db0:	322e302e 	eorcc	r3, lr, #46	; 0x2e
     db4:	30303230 	eorscc	r3, r0, r0, lsr r2
     db8:	31383037 	teqcc	r8, r7, lsr r0
     dbc:	5c383032 	ldcpl	0, cr3, [r8], #-200	; 0xffffff38
     dc0:	6c6f6f74 	stclvs	15, cr6, [pc], #-464	; bf8 <_Min_Stack_Size+0x7f8>
     dc4:	72615c73 	rsbvc	r5, r1, #29440	; 0x7300
     dc8:	6f6e2d6d 	svcvs	0x006e2d6d
     dcc:	652d656e 	strvs	r6, [sp, #-1390]!	; 0xfffffa92
     dd0:	5c696261 	sfmpl	f6, 2, [r9], #-388	; 0xfffffe7c
     dd4:	6c636e69 	stclvs	14, cr6, [r3], #-420	; 0xfffffe5c
     dd8:	5c656475 	cfstrdpl	mvd6, [r5], #-468	; 0xfffffe2c
     ddc:	6863616d 	stmdavs	r3!, {r0, r2, r3, r5, r6, r8, sp, lr}^
     de0:	00656e69 	rsbeq	r6, r5, r9, ror #28
     de4:	735c3a63 	cmpvc	ip, #405504	; 0x63000
     de8:	74735c74 	ldrbtvc	r5, [r3], #-3188	; 0xfffff38c
     dec:	6332336d 	teqvs	r2, #-1275068415	; 0xb4000001
     df0:	69656275 	stmdbvs	r5!, {r0, r2, r4, r5, r6, r9, sp, lr}^
     df4:	315f6564 	cmpcc	pc, r4, ror #10
     df8:	302e342e 	eorcc	r3, lr, lr, lsr #8
     dfc:	6d74735c 	ldclvs	3, cr7, [r4, #-368]!	; 0xfffffe90
     e00:	75633233 	strbvc	r3, [r3, #-563]!	; 0xfffffdcd
     e04:	64696562 	strbtvs	r6, [r9], #-1378	; 0xfffffa9e
     e08:	6c705c65 	ldclvs	12, cr5, [r0], #-404	; 0xfffffe6c
     e0c:	6e696775 	mcrvs	7, 3, r6, cr9, cr5, {3}
     e10:	6f635c73 	svcvs	0x00635c73
     e14:	74732e6d 	ldrbtvc	r2, [r3], #-3693	; 0xfffff193
     e18:	6d74732e 	ldclvs	3, cr7, [r4, #-184]!	; 0xffffff48
     e1c:	75633233 	strbvc	r3, [r3, #-563]!	; 0xfffffdcd
     e20:	692e6562 	stmdbvs	lr!, {r1, r5, r6, r8, sl, sp, lr}
     e24:	6d2e6564 	cfstr32vs	mvfx6, [lr, #-400]!	; 0xfffffe70
     e28:	652e7563 	strvs	r7, [lr, #-1379]!	; 0xfffffa9d
     e2c:	72657478 	rsbvc	r7, r5, #120, 8	; 0x78000000
     e30:	746c616e 	strbtvc	r6, [ip], #-366	; 0xfffffe92
     e34:	736c6f6f 	cmnvc	ip, #444	; 0x1bc
     e38:	756e672e 	strbvc	r6, [lr, #-1838]!	; 0xfffff8d2
     e3c:	6f6f742d 	svcvs	0x006f742d
     e40:	662d736c 	strtvs	r7, [sp], -ip, ror #6
     e44:	732d726f 			; <UNDEFINED> instruction: 0x732d726f
     e48:	32336d74 	eorscc	r6, r3, #116, 26	; 0x1d00
     e4c:	322d372e 	eorcc	r3, sp, #12058624	; 0xb80000
     e50:	2d383130 	ldfcss	f3, [r8, #-192]!	; 0xffffff40
     e54:	752d3271 	strvc	r3, [sp, #-625]!	; 0xfffffd8f
     e58:	74616470 	strbtvc	r6, [r1], #-1136	; 0xfffffb90
     e5c:	69772e65 	ldmdbvs	r7!, {r0, r2, r5, r6, r9, sl, fp, sp}^
     e60:	5f32336e 	svcpl	0x0032336e
     e64:	2e342e31 	mrccs	14, 1, r2, cr4, cr1, {1}
     e68:	30322e30 	eorscc	r2, r2, r0, lsr lr
     e6c:	37303032 			; <UNDEFINED> instruction: 0x37303032
     e70:	32313830 	eorscc	r3, r1, #48, 16	; 0x300000
     e74:	745c3830 	ldrbvc	r3, [ip], #-2096	; 0xfffff7d0
     e78:	736c6f6f 	cmnvc	ip, #444	; 0x1bc
     e7c:	6d72615c 	ldfvse	f6, [r2, #-368]!	; 0xfffffe90
     e80:	6e6f6e2d 	cdpvs	14, 6, cr6, cr15, cr13, {1}
     e84:	61652d65 	cmnvs	r5, r5, ror #26
     e88:	695c6962 	ldmdbvs	ip, {r1, r5, r6, r8, fp, sp, lr}^
     e8c:	756c636e 	strbvc	r6, [ip, #-878]!	; 0xfffffc92
     e90:	735c6564 	cmpvc	ip, #100, 10	; 0x19000000
     e94:	63007379 	movwvs	r7, #889	; 0x379
     e98:	74735c3a 	ldrbtvc	r5, [r3], #-3130	; 0xfffff3c6
     e9c:	6d74735c 	ldclvs	3, cr7, [r4, #-368]!	; 0xfffffe90
     ea0:	75633233 	strbvc	r3, [r3, #-563]!	; 0xfffffdcd
     ea4:	64696562 	strbtvs	r6, [r9], #-1378	; 0xfffffa9e
     ea8:	2e315f65 	cdpcs	15, 3, cr5, cr1, cr5, {3}
     eac:	5c302e34 	ldcpl	14, cr2, [r0], #-208	; 0xffffff30
     eb0:	336d7473 	cmncc	sp, #1929379840	; 0x73000000
     eb4:	62756332 	rsbsvs	r6, r5, #-939524096	; 0xc8000000
     eb8:	65646965 	strbvs	r6, [r4, #-2405]!	; 0xfffff69b
     ebc:	756c705c 	strbvc	r7, [ip, #-92]!	; 0xffffffa4
     ec0:	736e6967 	cmnvc	lr, #1687552	; 0x19c000
     ec4:	6d6f635c 	stclvs	3, cr6, [pc, #-368]!	; d5c <_Min_Stack_Size+0x95c>
     ec8:	2e74732e 	cdpcs	3, 7, cr7, cr4, cr14, {1}
     ecc:	336d7473 	cmncc	sp, #1929379840	; 0x73000000
     ed0:	62756332 	rsbsvs	r6, r5, #-939524096	; 0xc8000000
     ed4:	64692e65 	strbtvs	r2, [r9], #-3685	; 0xfffff19b
     ed8:	636d2e65 	cmnvs	sp, #1616	; 0x650
     edc:	78652e75 	stmdavc	r5!, {r0, r2, r4, r5, r6, r9, sl, fp, sp}^
     ee0:	6e726574 	mrcvs	5, 3, r6, cr2, cr4, {3}
     ee4:	6f746c61 	svcvs	0x00746c61
     ee8:	2e736c6f 	cdpcs	12, 7, cr6, cr3, cr15, {3}
     eec:	2d756e67 	ldclcs	14, cr6, [r5, #-412]!	; 0xfffffe64
     ef0:	6c6f6f74 	stclvs	15, cr6, [pc], #-464	; d28 <_Min_Stack_Size+0x928>
     ef4:	6f662d73 	svcvs	0x00662d73
     ef8:	74732d72 	ldrbtvc	r2, [r3], #-3442	; 0xfffff28e
     efc:	2e32336d 	cdpcs	3, 3, cr3, cr2, cr13, {3}
     f00:	30322d37 	eorscc	r2, r2, r7, lsr sp
     f04:	712d3831 			; <UNDEFINED> instruction: 0x712d3831
     f08:	70752d32 	rsbsvc	r2, r5, r2, lsr sp
     f0c:	65746164 	ldrbvs	r6, [r4, #-356]!	; 0xfffffe9c
     f10:	6e69772e 	cdpvs	7, 6, cr7, cr9, cr14, {1}
     f14:	315f3233 	cmpcc	pc, r3, lsr r2	; <UNPREDICTABLE>
     f18:	302e342e 	eorcc	r3, lr, lr, lsr #8
     f1c:	3230322e 	eorscc	r3, r0, #-536870910	; 0xe0000002
     f20:	30373030 	eorscc	r3, r7, r0, lsr r0
     f24:	30323138 	eorscc	r3, r2, r8, lsr r1
     f28:	6f745c38 	svcvs	0x00745c38
     f2c:	5c736c6f 	ldclpl	12, cr6, [r3], #-444	; 0xfffffe44
     f30:	5c62696c 			; <UNDEFINED> instruction: 0x5c62696c
     f34:	5c636367 	stclpl	3, cr6, [r3], #-412	; 0xfffffe64
     f38:	2d6d7261 	sfmcs	f7, 2, [sp, #-388]!	; 0xfffffe7c
     f3c:	656e6f6e 	strbvs	r6, [lr, #-3950]!	; 0xfffff092
     f40:	6261652d 	rsbvs	r6, r1, #188743680	; 0xb400000
     f44:	2e375c69 	cdpcs	12, 3, cr5, cr7, cr9, {3}
     f48:	5c312e33 	ldcpl	14, cr2, [r1], #-204	; 0xffffff34
     f4c:	6c636e69 	stclvs	14, cr6, [r3], #-420	; 0xfffffe5c
     f50:	00656475 	rsbeq	r6, r5, r5, ror r4
     f54:	735c3a63 	cmpvc	ip, #405504	; 0x63000
     f58:	74735c74 	ldrbtvc	r5, [r3], #-3188	; 0xfffff38c
     f5c:	6332336d 	teqvs	r2, #-1275068415	; 0xb4000001
     f60:	69656275 	stmdbvs	r5!, {r0, r2, r4, r5, r6, r9, sp, lr}^
     f64:	315f6564 	cmpcc	pc, r4, ror #10
     f68:	302e342e 	eorcc	r3, lr, lr, lsr #8
     f6c:	6d74735c 	ldclvs	3, cr7, [r4, #-368]!	; 0xfffffe90
     f70:	75633233 	strbvc	r3, [r3, #-563]!	; 0xfffffdcd
     f74:	64696562 	strbtvs	r6, [r9], #-1378	; 0xfffffa9e
     f78:	6c705c65 	ldclvs	12, cr5, [r0], #-404	; 0xfffffe6c
     f7c:	6e696775 	mcrvs	7, 3, r6, cr9, cr5, {3}
     f80:	6f635c73 	svcvs	0x00635c73
     f84:	74732e6d 	ldrbtvc	r2, [r3], #-3693	; 0xfffff193
     f88:	6d74732e 	ldclvs	3, cr7, [r4, #-184]!	; 0xffffff48
     f8c:	75633233 	strbvc	r3, [r3, #-563]!	; 0xfffffdcd
     f90:	692e6562 	stmdbvs	lr!, {r1, r5, r6, r8, sl, sp, lr}
     f94:	6d2e6564 	cfstr32vs	mvfx6, [lr, #-400]!	; 0xfffffe70
     f98:	652e7563 	strvs	r7, [lr, #-1379]!	; 0xfffffa9d
     f9c:	72657478 	rsbvc	r7, r5, #120, 8	; 0x78000000
     fa0:	746c616e 	strbtvc	r6, [ip], #-366	; 0xfffffe92
     fa4:	736c6f6f 	cmnvc	ip, #444	; 0x1bc
     fa8:	756e672e 	strbvc	r6, [lr, #-1838]!	; 0xfffff8d2
     fac:	6f6f742d 	svcvs	0x006f742d
     fb0:	662d736c 	strtvs	r7, [sp], -ip, ror #6
     fb4:	732d726f 			; <UNDEFINED> instruction: 0x732d726f
     fb8:	32336d74 	eorscc	r6, r3, #116, 26	; 0x1d00
     fbc:	322d372e 	eorcc	r3, sp, #12058624	; 0xb80000
     fc0:	2d383130 	ldfcss	f3, [r8, #-192]!	; 0xffffff40
     fc4:	752d3271 	strvc	r3, [sp, #-625]!	; 0xfffffd8f
     fc8:	74616470 	strbtvc	r6, [r1], #-1136	; 0xfffffb90
     fcc:	69772e65 	ldmdbvs	r7!, {r0, r2, r5, r6, r9, sl, fp, sp}^
     fd0:	5f32336e 	svcpl	0x0032336e
     fd4:	2e342e31 	mrccs	14, 1, r2, cr4, cr1, {1}
     fd8:	30322e30 	eorscc	r2, r2, r0, lsr lr
     fdc:	37303032 			; <UNDEFINED> instruction: 0x37303032
     fe0:	32313830 	eorscc	r3, r1, #48, 16	; 0x300000
     fe4:	745c3830 	ldrbvc	r3, [ip], #-2096	; 0xfffff7d0
     fe8:	736c6f6f 	cmnvc	ip, #444	; 0x1bc
     fec:	6d72615c 	ldfvse	f6, [r2, #-368]!	; 0xfffffe90
     ff0:	6e6f6e2d 	cdpvs	14, 6, cr6, cr15, cr13, {1}
     ff4:	61652d65 	cmnvs	r5, r5, ror #26
     ff8:	695c6962 	ldmdbvs	ip, {r1, r5, r6, r8, fp, sp, lr}^
     ffc:	756c636e 	strbvc	r6, [ip, #-878]!	; 0xfffffc92
    1000:	2e006564 	cfsh32cs	mvfx6, mvfx0, #52
    1004:	6e492f2e 	cdpvs	15, 4, cr2, cr9, cr14, {1}
    1008:	3a630063 	bcc	18c119c <_Min_Stack_Size+0x18c0d9c>
    100c:	5c74735c 	ldclpl	3, cr7, [r4], #-368	; 0xfffffe90
    1010:	336d7473 	cmncc	sp, #1929379840	; 0x73000000
    1014:	62756332 	rsbsvs	r6, r5, #-939524096	; 0xc8000000
    1018:	65646965 	strbvs	r6, [r4, #-2405]!	; 0xfffff69b
    101c:	342e315f 	strtcc	r3, [lr], #-351	; 0xfffffea1
    1020:	735c302e 	cmpvc	ip, #46	; 0x2e
    1024:	32336d74 	eorscc	r6, r3, #116, 26	; 0x1d00
    1028:	65627563 	strbvs	r7, [r2, #-1379]!	; 0xfffffa9d
    102c:	5c656469 	cfstrdpl	mvd6, [r5], #-420	; 0xfffffe5c
    1030:	67756c70 			; <UNDEFINED> instruction: 0x67756c70
    1034:	5c736e69 	ldclpl	14, cr6, [r3], #-420	; 0xfffffe5c
    1038:	2e6d6f63 	cdpcs	15, 6, cr6, cr13, cr3, {3}
    103c:	732e7473 			; <UNDEFINED> instruction: 0x732e7473
    1040:	32336d74 	eorscc	r6, r3, #116, 26	; 0x1d00
    1044:	65627563 	strbvs	r7, [r2, #-1379]!	; 0xfffffa9d
    1048:	6564692e 	strbvs	r6, [r4, #-2350]!	; 0xfffff6d2
    104c:	75636d2e 	strbvc	r6, [r3, #-3374]!	; 0xfffff2d2
    1050:	7478652e 	ldrbtvc	r6, [r8], #-1326	; 0xfffffad2
    1054:	616e7265 	cmnvs	lr, r5, ror #4
    1058:	6f6f746c 	svcvs	0x006f746c
    105c:	672e736c 	strvs	r7, [lr, -ip, ror #6]!
    1060:	742d756e 	strtvc	r7, [sp], #-1390	; 0xfffffa92
    1064:	736c6f6f 	cmnvc	ip, #444	; 0x1bc
    1068:	726f662d 	rsbvc	r6, pc, #47185920	; 0x2d00000
    106c:	6d74732d 	ldclvs	3, cr7, [r4, #-180]!	; 0xffffff4c
    1070:	372e3233 			; <UNDEFINED> instruction: 0x372e3233
    1074:	3130322d 	teqcc	r0, sp, lsr #4
    1078:	32712d38 	rsbscc	r2, r1, #56, 26	; 0xe00
    107c:	6470752d 	ldrbtvs	r7, [r0], #-1325	; 0xfffffad3
    1080:	2e657461 	cdpcs	4, 6, cr7, cr5, cr1, {3}
    1084:	336e6977 	cmncc	lr, #1949696	; 0x1dc000
    1088:	2e315f32 	mrccs	15, 1, r5, cr1, cr2, {1}
    108c:	2e302e34 	mrccs	14, 1, r2, cr0, cr4, {1}
    1090:	30323032 	eorscc	r3, r2, r2, lsr r0
    1094:	38303730 	ldmdacc	r0!, {r4, r5, r8, r9, sl, ip, sp}
    1098:	38303231 	ldmdacc	r0!, {r0, r4, r5, r9, ip, sp}
    109c:	6f6f745c 	svcvs	0x006f745c
    10a0:	615c736c 	cmpvs	ip, ip, ror #6
    10a4:	6e2d6d72 	mcrvs	13, 1, r6, cr13, cr2, {3}
    10a8:	2d656e6f 	stclcs	14, cr6, [r5, #-444]!	; 0xfffffe44
    10ac:	69626165 	stmdbvs	r2!, {r0, r2, r5, r6, r8, sp, lr}^
    10b0:	636e695c 	cmnvs	lr, #92, 18	; 0x170000
    10b4:	6564756c 	strbvs	r7, [r4, #-1388]!	; 0xfffffa94
    10b8:	77656e5c 			; <UNDEFINED> instruction: 0x77656e5c
    10bc:	2d62696c 			; <UNDEFINED> instruction: 0x2d62696c
    10c0:	6f6e616e 	svcvs	0x006e616e
    10c4:	616d0000 	cmnvs	sp, r0
    10c8:	632e6e69 			; <UNDEFINED> instruction: 0x632e6e69
    10cc:	00000100 	andeq	r0, r0, r0, lsl #2
    10d0:	6665645f 			; <UNDEFINED> instruction: 0x6665645f
    10d4:	746c7561 	strbtvc	r7, [ip], #-1377	; 0xfffffa9f
    10d8:	7079745f 	rsbsvc	r7, r9, pc, asr r4
    10dc:	682e7365 	stmdavs	lr!, {r0, r2, r5, r6, r8, r9, ip, sp, lr}
    10e0:	00000200 	andeq	r0, r0, r0, lsl #4
    10e4:	6b636f6c 	blvs	18dce9c <_Min_Stack_Size+0x18dca9c>
    10e8:	0300682e 	movweq	r6, #2094	; 0x82e
    10ec:	745f0000 	ldrbvc	r0, [pc], #-0	; 10f4 <_Min_Stack_Size+0xcf4>
    10f0:	73657079 	cmnvc	r5, #121	; 0x79
    10f4:	0300682e 	movweq	r6, #2094	; 0x82e
    10f8:	74730000 	ldrbtvc	r0, [r3], #-0
    10fc:	66656464 	strbtvs	r6, [r5], -r4, ror #8
    1100:	0400682e 	streq	r6, [r0], #-2094	; 0xfffff7d2
    1104:	65720000 	ldrbvs	r0, [r2, #-0]!
    1108:	2e746e65 	cdpcs	14, 7, cr6, cr4, cr5, {3}
    110c:	00030068 	andeq	r0, r3, r8, rrx
    1110:	64747300 	ldrbtvs	r7, [r4], #-768	; 0xfffffd00
    1114:	2e62696c 	vnmulcs.f16	s13, s4, s25	; <UNPREDICTABLE>
    1118:	00050068 	andeq	r0, r5, r8, rrx
    111c:	74735f00 	ldrbtvc	r5, [r3], #-3840	; 0xfffff100
    1120:	746e6964 	strbtvc	r6, [lr], #-2404	; 0xfffff69c
    1124:	0300682e 	movweq	r6, #2094	; 0x82e
    1128:	54530000 	ldrbpl	r0, [r3], #-0
    112c:	4632334d 	ldrtmi	r3, [r2], -sp, asr #6
    1130:	58333031 	ldmdapl	r3!, {r0, r4, r5, ip, sp}
    1134:	00682e36 	rsbeq	r2, r8, r6, lsr lr
    1138:	53000006 	movwpl	r0, #6
    113c:	32334d54 	eorscc	r4, r3, #84, 26	; 0x1500
    1140:	33303146 	teqcc	r0, #-2147483631	; 0x80000011
    1144:	455f3643 	ldrbmi	r3, [pc, #-1603]	; b09 <_Min_Stack_Size+0x709>
    1148:	5f495458 	svcpl	0x00495458
    114c:	76697244 	strbtvc	r7, [r9], -r4, asr #4
    1150:	682e7265 	stmdavs	lr!, {r0, r2, r5, r6, r9, ip, sp, lr}
    1154:	00000600 	andeq	r0, r0, r0, lsl #12
    1158:	65656569 	strbvs	r6, [r5, #-1385]!	; 0xfffffa97
    115c:	682e7066 	stmdavs	lr!, {r1, r2, r5, r6, ip, sp, lr}
    1160:	00000200 	andeq	r0, r0, r0, lsl #4
    1164:	736e615f 	cmnvc	lr, #-1073741801	; 0xc0000017
    1168:	00682e69 	rsbeq	r2, r8, r9, ror #28
    116c:	6e000005 	cdpvs	0, 0, cr0, cr0, cr5, {0}
    1170:	696c7765 	stmdbvs	ip!, {r0, r2, r5, r6, r8, r9, sl, ip, sp, lr}^
    1174:	00682e62 	rsbeq	r2, r8, r2, ror #28
    1178:	5f000007 	svcpl	0x00000007
    117c:	6c77656e 	cfldr64vs	mvdx6, [r7], #-440	; 0xfffffe48
    1180:	765f6269 	ldrbvc	r6, [pc], -r9, ror #4
    1184:	69737265 	ldmdbvs	r3!, {r0, r2, r5, r6, r9, ip, sp, lr}^
    1188:	682e6e6f 	stmdavs	lr!, {r0, r1, r2, r3, r5, r6, r9, sl, fp, sp, lr}
    118c:	00000500 	andeq	r0, r0, r0, lsl #10
    1190:	666e6f63 	strbtvs	r6, [lr], -r3, ror #30
    1194:	682e6769 	stmdavs	lr!, {r0, r3, r5, r6, r8, r9, sl, sp, lr}
    1198:	00000300 	andeq	r0, r0, r0, lsl #6
    119c:	74616566 	strbtvc	r6, [r1], #-1382	; 0xfffffa9a
    11a0:	73657275 	cmnvc	r5, #1342177287	; 0x50000007
    11a4:	0300682e 	movweq	r6, #2094	; 0x82e
    11a8:	745f0000 	ldrbvc	r0, [pc], #-0	; 11b0 <_Min_Stack_Size+0xdb0>
    11ac:	73657079 	cmnvc	r5, #121	; 0x79
    11b0:	0200682e 	andeq	r6, r0, #3014656	; 0x2e0000
    11b4:	64630000 	strbtvs	r0, [r3], #-0
    11b8:	2e736665 	cdpcs	6, 7, cr6, cr3, cr5, {3}
    11bc:	00030068 	andeq	r0, r3, r8, rrx
    11c0:	64747300 	ldrbtvs	r7, [r4], #-768	; 0xfffffd00
    11c4:	2e62696c 	vnmulcs.f16	s13, s4, s25	; <UNPREDICTABLE>
    11c8:	00020068 	andeq	r0, r2, r8, rrx
    11cc:	6c6c6100 	stfvse	f6, [ip], #-0
    11d0:	2e61636f 	cdpcs	3, 6, cr6, cr1, cr15, {3}
    11d4:	00050068 	andeq	r0, r5, r8, rrx
    11d8:	64747300 	ldrbtvs	r7, [r4], #-768	; 0xfffffd00
    11dc:	2e746e69 	cdpcs	14, 7, cr6, cr4, cr9, {3}
    11e0:	00040068 	andeq	r0, r4, r8, rrx
    11e4:	64747300 	ldrbtvs	r7, [r4], #-768	; 0xfffffd00
    11e8:	2e746e69 	cdpcs	14, 7, cr6, cr4, cr9, {3}
    11ec:	00050068 	andeq	r0, r5, r8, rrx
    11f0:	6e695f00 	cdpvs	15, 6, cr5, cr9, cr0, {0}
    11f4:	70757374 	rsbsvc	r7, r5, r4, ror r3
    11f8:	0300682e 	movweq	r6, #2094	; 0x82e
    11fc:	54530000 	ldrbpl	r0, [r3], #-0
    1200:	4632334d 	ldrtmi	r3, [r2], -sp, asr #6
    1204:	43333031 	teqmi	r3, #49	; 0x31
    1208:	50475f36 	subpl	r5, r7, r6, lsr pc
    120c:	445f4f49 	ldrbmi	r4, [pc], #-3913	; 1214 <_Min_Stack_Size+0xe14>
    1210:	65766972 	ldrbvs	r6, [r6, #-2418]!	; 0xfffff68e
    1214:	00682e72 	rsbeq	r2, r8, r2, ror lr
    1218:	00000006 	andeq	r0, r0, r6
    121c:	0c020500 	cfstr32eq	mvfx0, [r2], {-0}
    1220:	03080009 	movweq	r0, #32777	; 0x8009
    1224:	03590120 	cmpeq	r9, #32, 2
    1228:	74035810 	strvc	r5, [r3], #-2064	; 0xfffff7f0
    122c:	69238620 	stmdbvs	r3!, {r5, r9, sl, pc}
    1230:	00050222 	andeq	r0, r5, r2, lsr #4
    1234:	05000101 	streq	r0, [r0, #-257]	; 0xfffffeff
    1238:	00094c02 	andeq	r4, r9, r2, lsl #24
    123c:	01350308 	teqeq	r5, r8, lsl #6
    1240:	0267672f 	rsbeq	r6, r7, #12320768	; 0xbc0000
    1244:	01010006 	tsteq	r1, r6
    1248:	74020500 	strvc	r0, [r2], #-1280	; 0xfffffb00
    124c:	03080009 	movweq	r0, #32777	; 0x8009
    1250:	3d2f013b 	stfccs	f0, [pc, #-236]!	; 116c <_Min_Stack_Size+0xd6c>
    1254:	0004023d 	andeq	r0, r4, sp, lsr r2
    1258:	05000101 	streq	r0, [r0, #-257]	; 0xfffffeff
    125c:	00098c02 	andeq	r8, r9, r2, lsl #24
    1260:	00c10308 	sbceq	r0, r1, r8, lsl #6
    1264:	59323d01 	ldmdbpl	r2!, {r0, r8, sl, fp, ip, sp}
    1268:	4b302f2f 	blmi	c0cf2c <_Min_Stack_Size+0xc0cb2c>
    126c:	3a4c4040 	bcc	1311374 <_Min_Stack_Size+0x1310f74>
    1270:	01000702 	tsteq	r0, r2, lsl #14
    1274:	00008001 	andeq	r8, r0, r1
    1278:	39000200 	stmdbcc	r0, {r9}
    127c:	02000000 	andeq	r0, r0, #0
    1280:	0d0efb01 	vstreq	d15, [lr, #-4]
    1284:	01010100 	mrseq	r0, (UNDEF: 17)
    1288:	00000001 	andeq	r0, r0, r1
    128c:	01000001 	tsteq	r0, r1
    1290:	532f2e2e 			; <UNDEFINED> instruction: 0x532f2e2e
    1294:	74726174 	ldrbtvc	r6, [r2], #-372	; 0xfffffe8c
    1298:	00007075 	andeq	r7, r0, r5, ror r0
    129c:	72617473 	rsbvc	r7, r1, #1929379840	; 0x73000000
    12a0:	5f707574 	svcpl	0x00707574
    12a4:	336d7473 	cmncc	sp, #1929379840	; 0x73000000
    12a8:	30316632 	eorscc	r6, r1, r2, lsr r6
    12ac:	74366333 	ldrtvc	r6, [r6], #-819	; 0xfffffccd
    12b0:	00732e78 	rsbseq	r2, r3, r8, ror lr
    12b4:	00000001 	andeq	r0, r0, r1
    12b8:	dc020500 	cfstr32le	mvfx0, [r2], {-0}
    12bc:	03080009 	movweq	r0, #32777	; 0x8009
    12c0:	2221013a 	eorcs	r0, r1, #-2147483634	; 0x8000000e
    12c4:	21212131 			; <UNDEFINED> instruction: 0x21212131
    12c8:	21212321 			; <UNDEFINED> instruction: 0x21212321
    12cc:	23212123 			; <UNDEFINED> instruction: 0x23212123
    12d0:	23212121 			; <UNDEFINED> instruction: 0x23212121
    12d4:	23212321 			; <UNDEFINED> instruction: 0x23212321
    12d8:	56033130 			; <UNDEFINED> instruction: 0x56033130
    12dc:	2f2f3420 	svccs	0x002f3420
    12e0:	2f2e0f03 	svccs	0x002e0f03
    12e4:	01000202 	tsteq	r0, r2, lsl #4
    12e8:	02050001 	andeq	r0, r5, #1
    12ec:	08000a2c 	stmdaeq	r0, {r2, r3, r5, r9, fp}
    12f0:	0100f303 	tsteq	r0, r3, lsl #6	; <UNPREDICTABLE>
    12f4:	01000102 	tsteq	r0, r2, lsl #2
    12f8:	Address 0x00000000000012f8 is out of bounds.


Disassembly of section .debug_str:

00000000 <.debug_str>:
       0:	38544e49 	ldmdacc	r4, {r0, r3, r6, r9, sl, fp, lr}^
       4:	58414d5f 	stmdapl	r1, {r0, r1, r2, r3, r4, r6, r8, sl, fp, lr}^
       8:	5f5f2820 	svcpl	0x005f2820
       c:	38544e49 	ldmdacc	r4, {r0, r3, r6, r9, sl, fp, lr}^
      10:	58414d5f 	stmdapl	r1, {r0, r1, r2, r3, r4, r6, r8, sl, fp, lr}^
      14:	00295f5f 	eoreq	r5, r9, pc, asr pc
      18:	4e475f5f 	mcrmi	15, 2, r5, cr7, cr15, {2}
      1c:	494c4355 	stmdbmi	ip, {r0, r2, r4, r6, r8, r9, lr}^
      20:	5f5f454b 	svcpl	0x005f454b
      24:	4345535f 	movtmi	r5, #21343	; 0x535f
      28:	4e4f4954 			; <UNDEFINED> instruction: 0x4e4f4954
      2c:	57003120 	strpl	r3, [r0, -r0, lsr #2]
      30:	5f544e49 	svcpl	0x00544e49
      34:	204e494d 	subcs	r4, lr, sp, asr #18
      38:	575f5f28 	ldrbpl	r5, [pc, -r8, lsr #30]
      3c:	5f544e49 	svcpl	0x00544e49
      40:	5f4e494d 	svcpl	0x004e494d
      44:	5f00295f 	svcpl	0x0000295f
      48:	4345445f 	movtmi	r4, #21599	; 0x545f
      4c:	4c414d49 	mcrrmi	13, 4, r4, r1, cr9
      50:	4749445f 	smlsldmi	r4, r9, pc, r4	; <UNPREDICTABLE>
      54:	31205f5f 			; <UNDEFINED> instruction: 0x31205f5f
      58:	5f5f0037 	svcpl	0x005f0037
      5c:	5f414855 	svcpl	0x00414855
      60:	54494246 	strbpl	r4, [r9], #-582	; 0xfffffdba
      64:	38205f5f 	stmdacc	r0!, {r0, r1, r2, r3, r4, r6, r8, r9, sl, fp, ip, lr}
      68:	535f5f00 	cmppl	pc, #0, 30
      6c:	5f444956 	svcpl	0x00444956
      70:	49534956 	ldmdbmi	r3, {r1, r2, r4, r6, r8, fp, lr}^
      74:	20454c42 	subcs	r4, r5, r2, asr #24
      78:	5f5f0031 	svcpl	0x005f0031
      7c:	32746e69 	rsbscc	r6, r4, #1680	; 0x690
      80:	322b2030 	eorcc	r2, fp, #48	; 0x30
      84:	54584500 	ldrbpl	r4, [r8], #-1280	; 0xfffffb00
      88:	72545f49 	subsvc	r5, r4, #292	; 0x124
      8c:	65676769 	strbvs	r6, [r7, #-1897]!	; 0xfffff897
      90:	41525f72 	cmpmi	r2, r2, ror pc
      94:	474e4953 	smlsldmi	r4, lr, r3, r9
      98:	5f003020 	svcpl	0x00003020
      9c:	4345445f 	movtmi	r4, #21599	; 0x545f
      a0:	5f383231 	svcpl	0x00383231
      a4:	49535045 	ldmdbmi	r3, {r0, r2, r6, ip, lr}^
      a8:	5f4e4f4c 	svcpl	0x004e4f4c
      ac:	4531205f 	ldrmi	r2, [r1, #-95]!	; 0xffffffa1
      b0:	4433332d 	ldrtmi	r3, [r3], #-813	; 0xfffffcd3
      b4:	5f5f004c 	svcpl	0x005f004c
      b8:	36544c46 	ldrbcc	r4, [r4], -r6, asr #24
      bc:	45445f34 	strbmi	r5, [r4, #-3892]	; 0xfffff0cc
      c0:	4d524f4e 	ldclmi	15, cr4, [r2, #-312]	; 0xfffffec8
      c4:	4e494d5f 	mcrmi	13, 2, r4, cr9, cr15, {2}
      c8:	34205f5f 	strtcc	r5, [r0], #-3935	; 0xfffff0a1
      cc:	3034392e 	eorscc	r3, r4, lr, lsr #18
      d0:	34363536 	ldrtcc	r3, [r6], #-1334	; 0xfffffaca
      d4:	31343835 	teqcc	r4, r5, lsr r8
      d8:	35363432 	ldrcc	r3, [r6, #-1074]!	; 0xfffffbce
      dc:	332d6534 			; <UNDEFINED> instruction: 0x332d6534
      e0:	36463432 			; <UNDEFINED> instruction: 0x36463432
      e4:	5f5f0034 	svcpl	0x005f0034
      e8:	65726e75 	ldrbvs	r6, [r2, #-3701]!	; 0xfffff18b
      ec:	61686361 	cmnvs	r8, r1, ror #6
      f0:	28656c62 	stmdacs	r5!, {r1, r5, r6, sl, fp, sp, lr}^
      f4:	5f5f2029 	svcpl	0x005f2029
      f8:	6c697562 	cfstr64vs	mvdx7, [r9], #-392	; 0xfffffe78
      fc:	5f6e6974 	svcpl	0x006e6974
     100:	65726e75 	ldrbvs	r6, [r2, #-3701]!	; 0xfffff18b
     104:	61686361 	cmnvs	r8, r1, ror #6
     108:	28656c62 	stmdacs	r5!, {r1, r5, r6, sl, fp, sp, lr}^
     10c:	5f5f0029 	svcpl	0x005f0029
     110:	5f434347 	svcpl	0x00434347
     114:	4d4f5441 	cfstrdmi	mvd5, [pc, #-260]	; 18 <_Min_Heap_Size-0x1e8>
     118:	575f4349 	ldrbpl	r4, [pc, -r9, asr #6]
     11c:	52414843 	subpl	r4, r1, #4390912	; 0x430000
     120:	4c5f545f 	cfldrdmi	mvd5, [pc], {95}	; 0x5f
     124:	5f4b434f 	svcpl	0x004b434f
     128:	45455246 	strbmi	r5, [r5, #-582]	; 0xfffffdba
     12c:	5f003220 	svcpl	0x00003220
     130:	4148435f 	cmpmi	r8, pc, asr r3
     134:	4e555f52 	mrcmi	15, 2, r5, cr5, cr2, {2}
     138:	4e474953 			; <UNDEFINED> instruction: 0x4e474953
     13c:	5f5f4445 	svcpl	0x005f4445
     140:	5f003120 	svcpl	0x00003120
     144:	4e49555f 	mcrmi	5, 2, r5, cr9, cr15, {2}
     148:	52545054 	subspl	r5, r4, #84	; 0x54
     14c:	58414d5f 	stmdapl	r1, {r0, r1, r2, r3, r4, r6, r8, sl, fp, lr}^
     150:	30205f5f 	eorcc	r5, r0, pc, asr pc
     154:	66666678 			; <UNDEFINED> instruction: 0x66666678
     158:	66666666 	strbtvs	r6, [r6], -r6, ror #12
     15c:	45005566 	strmi	r5, [r0, #-1382]	; 0xfffffa9a
     160:	20495458 	subcs	r5, r9, r8, asr r4
     164:	58452828 	stmdapl	r5, {r3, r5, fp, sp}^
     168:	79545f49 	ldmdbvc	r4, {r0, r3, r6, r8, r9, sl, fp, ip, lr}^
     16c:	65446570 	strbvs	r6, [r4, #-1392]	; 0xfffffa90
     170:	292a2066 	stmdbcs	sl!, {r1, r2, r5, r6, sp}
     174:	49545845 	ldmdbmi	r4, {r0, r2, r6, fp, ip, lr}^
     178:	5341425f 	movtpl	r4, #4703	; 0x125f
     17c:	5f002945 	svcpl	0x00002945
     180:	5246535f 	subpl	r5, r6, #2080374785	; 0x7c000001
     184:	5f544341 	svcpl	0x00544341
     188:	54494246 	strbpl	r4, [r9], #-582	; 0xfffffdba
     18c:	37205f5f 			; <UNDEFINED> instruction: 0x37205f5f
     190:	775f5f00 	ldrbvc	r5, [pc, -r0, lsl #30]
     194:	5f6b6165 	svcpl	0x006b6165
     198:	626d7973 	rsbvs	r7, sp, #1884160	; 0x1cc000
     19c:	5f206c6f 	svcpl	0x00206c6f
     1a0:	7474615f 	ldrbtvc	r6, [r4], #-351	; 0xfffffea1
     1a4:	75626972 	strbvc	r6, [r2, #-2418]!	; 0xfffff68e
     1a8:	5f5f6574 	svcpl	0x005f6574
     1ac:	5f5f2828 	svcpl	0x005f2828
     1b0:	6b616577 	blvs	1859794 <_Min_Stack_Size+0x1859394>
     1b4:	29295f5f 	stmdbcs	r9!, {r0, r1, r2, r3, r4, r6, r8, r9, sl, fp, ip, lr}
     1b8:	54584500 	ldrbpl	r4, [r8], #-1280	; 0xfffffb00
     1bc:	00524349 	subseq	r4, r2, r9, asr #6
     1c0:	6f6c5f5f 	svcvs	0x006c5f5f
     1c4:	656c6163 	strbvs	r6, [ip, #-355]!	; 0xfffffe9d
     1c8:	5f00745f 	svcpl	0x0000745f
     1cc:	544c465f 	strbpl	r4, [ip], #-1631	; 0xfffff9a1
     1d0:	485f3436 	ldmdami	pc, {r1, r2, r4, r5, sl, ip, sp}^	; <UNPREDICTABLE>
     1d4:	495f5341 	ldmdbmi	pc, {r0, r6, r8, r9, ip, lr}^	; <UNPREDICTABLE>
     1d8:	4e49464e 	cdpmi	6, 4, cr4, cr9, cr14, {2}
     1dc:	5f595449 	svcpl	0x00595449
     1e0:	0031205f 	eorseq	r2, r1, pc, asr r0
     1e4:	61765f5f 	cmnvs	r6, pc, asr pc
     1e8:	0065756c 	rsbeq	r7, r5, ip, ror #10
     1ec:	65725f5f 	ldrbvs	r5, [r2, #-3935]!	; 0xfffff0a1
     1f0:	72697571 	rsbvc	r7, r9, #473956352	; 0x1c400000
     1f4:	655f7365 	ldrbvs	r7, [pc, #-869]	; fffffe97 <_estack+0xdfffd697>
     1f8:	756c6378 	strbvc	r6, [ip, #-888]!	; 0xfffffc88
     1fc:	65766973 	ldrbvs	r6, [r6, #-2419]!	; 0xfffff68d
     200:	2e2e2e28 	cdpcs	14, 2, cr2, cr14, cr8, {1}
     204:	5f5f2029 	svcpl	0x005f2029
     208:	6b636f6c 	blvs	18dbfc0 <_Min_Stack_Size+0x18dbbc0>
     20c:	6e6e615f 	mcrvs	1, 3, r6, cr14, cr15, {2}
     210:	7461746f 	strbtvc	r7, [r1], #-1135	; 0xfffffb91
     214:	78652865 	stmdavc	r5!, {r0, r2, r5, r6, fp, sp}^
     218:	73756c63 	cmnvc	r5, #25344	; 0x6300
     21c:	5f657669 	svcpl	0x00657669
     220:	6b636f6c 	blvs	18dbfd8 <_Min_Stack_Size+0x18dbbd8>
     224:	65725f73 	ldrbvs	r5, [r2, #-3955]!	; 0xfffff08d
     228:	72697571 	rsbvc	r7, r9, #473956352	; 0x1c400000
     22c:	5f286465 	svcpl	0x00286465
     230:	5f41565f 	svcpl	0x0041565f
     234:	53475241 	movtpl	r5, #29249	; 0x7241
     238:	29295f5f 	stmdbcs	r9!, {r0, r1, r2, r3, r4, r6, r8, r9, sl, fp, ip, lr}
     23c:	45525f00 	ldrbmi	r5, [r2, #-3840]	; 0xfffff100
     240:	5f544e45 	svcpl	0x00544e45
     244:	444e4152 	strbmi	r4, [lr], #-338	; 0xfffffeae
     248:	415f3834 	cmpmi	pc, r4, lsr r8	; <UNPREDICTABLE>
     24c:	70284444 	eorvc	r4, r8, r4, asr #8
     250:	20297274 	eorcs	r7, r9, r4, ror r2
     254:	74702828 	ldrbtvc	r2, [r0], #-2088	; 0xfffff7d8
     258:	3e2d2972 			; <UNDEFINED> instruction: 0x3e2d2972
     25c:	3834725f 	ldmdacc	r4!, {r0, r1, r2, r3, r4, r6, r9, ip, sp, lr}
     260:	615f3e2d 	cmpvs	pc, sp, lsr #28
     264:	00296464 	eoreq	r6, r9, r4, ror #8
     268:	31544e49 	cmpcc	r4, r9, asr #28
     26c:	494d5f36 	stmdbmi	sp, {r1, r2, r4, r5, r8, r9, sl, fp, ip, lr}^
     270:	2d28204e 	stccs	0, cr2, [r8, #-312]!	; 0xfffffec8
     274:	4e495f5f 	mcrmi	15, 2, r5, cr9, cr15, {2}
     278:	5f363154 	svcpl	0x00363154
     27c:	5f58414d 	svcpl	0x0058414d
     280:	202d205f 	eorcs	r2, sp, pc, asr r0
     284:	5f002931 	svcpl	0x00002931
     288:	414c4c5f 	cmpmi	ip, pc, asr ip
     28c:	4d554343 	ldclmi	3, cr4, [r5, #-268]	; 0xfffffef4
     290:	4e494d5f 	mcrmi	13, 2, r4, cr9, cr15, {2}
     294:	28205f5f 	stmdacs	r0!, {r0, r1, r2, r3, r4, r6, r8, r9, sl, fp, ip, lr}
     298:	3158302d 	cmpcc	r8, sp, lsr #32
     29c:	4c313350 	ldcmi	3, cr3, [r1], #-320	; 0xfffffec0
     2a0:	302d4b4c 	eorcc	r4, sp, ip, asr #22
     2a4:	33503158 	cmpcc	r0, #88, 2
     2a8:	4b4c4c31 	blmi	1313374 <_Min_Stack_Size+0x1312f74>
     2ac:	5f5f0029 	svcpl	0x005f0029
     2b0:	5f006673 	svcpl	0x00006673
     2b4:	5254505f 	subspl	r5, r4, #95	; 0x5f
     2b8:	46464944 	strbmi	r4, [r6], -r4, asr #18
     2bc:	58414d5f 	stmdapl	r1, {r0, r1, r2, r3, r4, r6, r8, sl, fp, lr}^
     2c0:	30205f5f 	eorcc	r5, r0, pc, asr pc
     2c4:	66663778 			; <UNDEFINED> instruction: 0x66663778
     2c8:	66666666 	strbtvs	r6, [r6], -r6, ror #12
     2cc:	4c5f0066 	mrrcmi	0, 6, r0, pc, cr6	; <UNPREDICTABLE>
     2d0:	5f474e4f 	svcpl	0x00474e4f
     2d4:	42554f44 	subsmi	r4, r5, #68, 30	; 0x110
     2d8:	6c20454c 	cfstr32vs	mvfx4, [r0], #-304	; 0xfffffed0
     2dc:	20676e6f 	rsbcs	r6, r7, pc, ror #28
     2e0:	62756f64 	rsbsvs	r6, r5, #100, 30	; 0x190
     2e4:	4500656c 	strmi	r6, [r0, #-1388]	; 0xfffffa94
     2e8:	39495458 	stmdbcc	r9, {r3, r4, r6, sl, ip, lr}^
     2ec:	5152495f 	cmppl	r2, pc, asr r9
     2f0:	00333220 	eorseq	r3, r3, r0, lsr #4
     2f4:	4e495f5f 	mcrmi	15, 2, r5, cr9, cr15, {2}
     2f8:	58414d54 	stmdapl	r1, {r2, r4, r6, r8, sl, fp, lr}^
     2fc:	6328435f 			; <UNDEFINED> instruction: 0x6328435f
     300:	20632029 	rsbcs	r2, r3, r9, lsr #32
     304:	4c202323 	stcmi	3, cr2, [r0], #-140	; 0xffffff74
     308:	5f5f004c 	svcpl	0x005f004c
     30c:	66756273 			; <UNDEFINED> instruction: 0x66756273
     310:	65725f00 	ldrbvs	r5, [r2, #-3840]!	; 0xfffff100
     314:	5f006461 	svcpl	0x00006461
     318:	544e495f 	strbpl	r4, [lr], #-2399	; 0xfffff6a1
     31c:	5f58414d 	svcpl	0x0058414d
     320:	5f58414d 	svcpl	0x0058414d
     324:	7830205f 	ldmdavc	r0!, {r0, r1, r2, r3, r4, r6, sp}
     328:	66666637 			; <UNDEFINED> instruction: 0x66666637
     32c:	66666666 	strbtvs	r6, [r6], -r6, ror #12
     330:	66666666 	strbtvs	r6, [r6], -r6, ror #12
     334:	66666666 	strbtvs	r6, [r6], -r6, ror #12
     338:	5f004c4c 	svcpl	0x00004c4c
     33c:	4e454552 	mcrmi	5, 2, r4, cr5, cr2, {2}
     340:	4e495f54 	mcrmi	15, 2, r5, cr9, cr4, {2}
     344:	4d5f5449 	cfldrdmi	mvd5, [pc, #-292]	; 228 <_Min_Heap_Size+0x28>
     348:	61762850 	cmnvs	r6, r0, asr r8
     34c:	64202972 	strtvs	r2, [r0], #-2418	; 0xfffff68e
     350:	207b206f 	rsbscs	r2, fp, pc, rrx
     354:	75727473 	ldrbvc	r7, [r2, #-1139]!	; 0xfffffb8d
     358:	5f207463 	svcpl	0x00207463
     35c:	6e656572 	mcrvs	5, 3, r6, cr5, cr2, {3}
     360:	5f2a2074 	svcpl	0x002a2074
     364:	203d2072 	eorscs	r2, sp, r2, ror r0
     368:	72617628 	rsbvc	r7, r1, #40, 12	; 0x2800000
     36c:	5f203b29 	svcpl	0x00203b29
     370:	5f3e2d72 	svcpl	0x003e2d72
     374:	3e2d706d 	cdpcc	0, 2, cr7, cr13, cr13, {3}
     378:	7365725f 	cmnvc	r5, #-268435451	; 0xf0000005
     37c:	5f746c75 	svcpl	0x00746c75
     380:	203d206b 	eorscs	r2, sp, fp, rrx
     384:	5f203b30 	svcpl	0x00203b30
     388:	5f3e2d72 	svcpl	0x003e2d72
     38c:	3e2d706d 	cdpcc	0, 2, cr7, cr13, cr13, {3}
     390:	7365725f 	cmnvc	r5, #-268435451	; 0xf0000005
     394:	20746c75 	rsbscs	r6, r4, r5, ror ip
     398:	725f203d 	subsvc	r2, pc, #61	; 0x3d
     39c:	6d5f3e2d 	ldclvs	14, cr3, [pc, #-180]	; 2f0 <_Min_Heap_Size+0xf0>
     3a0:	5f3e2d70 	svcpl	0x003e2d70
     3a4:	20733570 	rsbscs	r3, r3, r0, ror r5
     3a8:	4e5f203d 	mrcmi	0, 2, r2, cr15, cr13, {1}
     3ac:	3b4c4c55 	blcc	1313508 <_Min_Stack_Size+0x1313108>
     3b0:	2d725f20 	ldclcs	15, cr5, [r2, #-128]!	; 0xffffff80
     3b4:	706d5f3e 	rsbvc	r5, sp, lr, lsr pc
     3b8:	665f3e2d 	ldrbvs	r3, [pc], -sp, lsr #28
     3bc:	6c656572 	cfstr64vs	mvdx6, [r5], #-456	; 0xfffffe38
     3c0:	20747369 	rsbscs	r7, r4, r9, ror #6
     3c4:	4e5f203d 	mrcmi	0, 2, r2, cr15, cr13, {1}
     3c8:	3b4c4c55 	blcc	1313524 <_Min_Stack_Size+0x1313124>
     3cc:	77207d20 	strvc	r7, [r0, -r0, lsr #26]!
     3d0:	656c6968 	strbvs	r6, [ip, #-2408]!	; 0xfffff698
     3d4:	29302820 	ldmdbcs	r0!, {r5, fp, sp}
     3d8:	445f5f00 	ldrbmi	r5, [pc], #-3840	; 3e0 <_Min_Heap_Size+0x1e0>
     3dc:	32334345 	eorscc	r4, r3, #335544321	; 0x14000001
     3e0:	4255535f 	subsmi	r5, r5, #2080374785	; 0x7c000001
     3e4:	4d524f4e 	ldclmi	15, cr4, [r2, #-312]	; 0xfffffec8
     3e8:	4d5f4c41 	ldclmi	12, cr4, [pc, #-260]	; 2ec <_Min_Heap_Size+0xec>
     3ec:	5f5f4e49 	svcpl	0x005f4e49
     3f0:	302e3020 	eorcc	r3, lr, r0, lsr #32
     3f4:	30303030 	eorscc	r3, r0, r0, lsr r0
     3f8:	392d4531 	pushcc	{r0, r4, r5, r8, sl, lr}
     3fc:	00464435 	subeq	r4, r6, r5, lsr r4
     400:	51545f5f 	cmppl	r4, pc, asr pc
     404:	4942495f 	stmdbmi	r2, {r0, r1, r2, r3, r4, r6, r8, fp, lr}^
     408:	205f5f54 	subscs	r5, pc, r4, asr pc	; <UNPREDICTABLE>
     40c:	5f5f0030 	svcpl	0x005f0030
     410:	6b636f6c 	blvs	18dc1c8 <_Min_Stack_Size+0x18dbdc8>
     414:	696e695f 	stmdbvs	lr!, {r0, r1, r2, r3, r4, r6, r8, fp, sp, lr}^
     418:	65725f74 	ldrbvs	r5, [r2, #-3956]!	; 0xfffff08c
     41c:	73727563 	cmnvc	r2, #415236096	; 0x18c00000
     420:	28657669 	stmdacs	r5!, {r0, r3, r5, r6, r9, sl, ip, sp, lr}^
     424:	6b636f6c 	blvs	18dc1dc <_Min_Stack_Size+0x18dbddc>
     428:	28282029 	stmdacs	r8!, {r0, r3, r5, sp}
     42c:	64696f76 	strbtvs	r6, [r9], #-3958	; 0xfffff08a
     430:	29302029 	ldmdbcs	r0!, {r0, r3, r5, sp}
     434:	465f5f00 	ldrbmi	r5, [pc], -r0, lsl #30
     438:	3436544c 	ldrtcc	r5, [r6], #-1100	; 0xfffffbb4
     43c:	4345445f 	movtmi	r4, #21599	; 0x545f
     440:	4c414d49 	mcrrmi	13, 4, r4, r1, cr9
     444:	4749445f 	smlsldmi	r4, r9, pc, r4	; <UNPREDICTABLE>
     448:	31205f5f 			; <UNDEFINED> instruction: 0x31205f5f
     44c:	525f0037 	subspl	r0, pc, #55	; 0x37
     450:	544e4545 	strbpl	r4, [lr], #-1349	; 0xfffffabb
     454:	4749535f 	smlsldmi	r5, r9, pc, r3	; <UNPREDICTABLE>
     458:	5f4c414e 	svcpl	0x004c414e
     45c:	455a4953 	ldrbmi	r4, [sl, #-2387]	; 0xfffff6ad
     460:	00343220 	eorseq	r3, r4, r0, lsr #4
     464:	49545845 	ldmdbmi	r4, {r0, r2, r6, fp, ip, lr}^
     468:	4e494c5f 	mcrmi	12, 2, r4, cr9, cr15, {2}
     46c:	505f3845 	subspl	r3, pc, r5, asr #16
     470:	28203844 	stmdacs	r0!, {r2, r6, fp, ip, sp}
     474:	49545845 	ldmdbmi	r4, {r0, r2, r6, fp, ip, lr}^
     478:	4950475f 	ldmdbmi	r0, {r0, r1, r2, r3, r4, r6, r8, r9, sl, lr}^
     47c:	614d5f4f 	cmpvs	sp, pc, asr #30
     480:	6e697070 	mcrvs	0, 3, r7, cr9, cr0, {3}
     484:	29745f67 	ldmdbcs	r4!, {r0, r1, r2, r5, r6, r8, r9, sl, fp, ip, lr}^
     488:	5458457b 	ldrbpl	r4, [r8], #-1403	; 0xfffffa85
     48c:	202c3849 	eorcs	r3, ip, r9, asr #16
     490:	4f495047 	svcmi	0x00495047
     494:	47202c44 	strmi	r2, [r0, -r4, asr #24]!
     498:	5f4f4950 	svcpl	0x004f4950
     49c:	5f4e4950 	svcpl	0x004e4950
     4a0:	45202c38 	strmi	r2, [r0, #-3128]!	; 0xfffff3c8
     4a4:	38495458 	stmdacc	r9, {r3, r4, r6, sl, ip, lr}^
     4a8:	5152495f 	cmppl	r2, pc, asr r9
     4ac:	4b5f007d 	blmi	17c06a8 <_Min_Stack_Size+0x17c02a8>
     4b0:	2078616d 	rsbscs	r6, r8, sp, ror #2
     4b4:	7a697328 	bvc	1a5d15c <_Min_Stack_Size+0x1a5cd5c>
     4b8:	20666f65 	rsbcs	r6, r6, r5, ror #30
     4bc:	7a697328 	bvc	1a5d164 <_Min_Stack_Size+0x1a5cd64>
     4c0:	29745f65 	ldmdbcs	r4!, {r0, r2, r5, r6, r8, r9, sl, fp, ip, lr}^
     4c4:	203c3c20 	eorscs	r3, ip, r0, lsr #24
     4c8:	5f002933 	svcpl	0x00002933
     4cc:	4f54415f 	svcmi	0x0054415f
     4d0:	5f43494d 	svcpl	0x0043494d
     4d4:	534e4f43 	movtpl	r4, #61251	; 0xef43
     4d8:	20454d55 	subcs	r4, r5, r5, asr sp
     4dc:	5f5f0031 	svcpl	0x005f0031
     4e0:	43414c55 	movtmi	r4, #7253	; 0x1c55
     4e4:	5f4d5543 	svcpl	0x004d5543
     4e8:	54494246 	strbpl	r4, [r9], #-582	; 0xfffffdba
     4ec:	33205f5f 			; <UNDEFINED> instruction: 0x33205f5f
     4f0:	5f5f0032 	svcpl	0x005f0032
     4f4:	41484357 	cmpmi	r8, r7, asr r3
     4f8:	414d5f52 	cmpmi	sp, r2, asr pc
     4fc:	205f5f58 	subscs	r5, pc, r8, asr pc	; <UNPREDICTABLE>
     500:	66667830 			; <UNDEFINED> instruction: 0x66667830
     504:	66666666 	strbtvs	r6, [r6], -r6, ror #12
     508:	00556666 	subseq	r6, r5, r6, ror #12
     50c:	5f434352 	svcpl	0x00434352
     510:	4f495047 	svcmi	0x00495047
     514:	4c435f42 	mcrrmi	15, 4, r5, r3, cr2
     518:	4e455f4b 	cdpmi	15, 4, cr5, cr5, cr11, {2}
     51c:	28202928 	stmdacs	r0!, {r3, r5, r8, fp, sp}
     520:	2d434352 	stclcs	3, cr4, [r3, #-328]	; 0xfffffeb8
     524:	4250413e 	subsmi	r4, r0, #-2147483633	; 0x8000000f
     528:	524e4532 	subpl	r4, lr, #209715200	; 0xc800000
     52c:	203d7c20 	eorscs	r7, sp, r0, lsr #24
     530:	3c3c3128 	ldfccs	f3, [ip], #-160	; 0xffffff60
     534:	00292933 	eoreq	r2, r9, r3, lsr r9
     538:	4f435f5f 	svcmi	0x00435f5f
     53c:	5441434e 	strbpl	r4, [r1], #-846	; 0xfffffcb2
     540:	792c7828 	stmdbvc	ip!, {r3, r5, fp, ip, sp, lr}
     544:	5f5f2029 	svcpl	0x005f2029
     548:	434e4f43 	movtmi	r4, #61251	; 0xef43
     54c:	28315441 	ldmdacs	r1!, {r0, r6, sl, ip, lr}
     550:	29792c78 	ldmdbcs	r9!, {r3, r4, r5, r6, sl, fp, sp}^
     554:	72775f00 	rsbsvc	r5, r7, #0, 30
     558:	00657469 	rsbeq	r7, r5, r9, ror #8
     55c:	4e475f5f 	mcrmi	15, 2, r5, cr7, cr15, {2}
     560:	494c4355 	stmdbmi	ip, {r0, r2, r4, r6, r8, r9, lr}^
     564:	5f5f454b 	svcpl	0x005f454b
     568:	5059545f 	subspl	r5, r9, pc, asr r4
     56c:	20464f45 	subcs	r4, r6, r5, asr #30
     570:	5f5f0031 	svcpl	0x005f0031
     574:	455a4953 	ldrbmi	r4, [sl, #-2387]	; 0xfffff6ad
     578:	4c5f464f 	mrrcmi	6, 4, r4, pc, cr15	; <UNPREDICTABLE>
     57c:	5f474e4f 	svcpl	0x00474e4f
     580:	474e4f4c 	strbmi	r4, [lr, -ip, asr #30]
     584:	38205f5f 	stmdacc	r0!, {r0, r1, r2, r3, r4, r6, r8, r9, sl, fp, ip, lr}
     588:	73615f00 	cmnvc	r1, #0, 30
     58c:	6d697463 	cfstrdvs	mvd7, [r9, #-396]!	; 0xfffffe74
     590:	75625f65 	strbvc	r5, [r2, #-3941]!	; 0xfffff09b
     594:	5f5f0066 	svcpl	0x005f0066
     598:	5f4c4244 	svcpl	0x004c4244
     59c:	5f58414d 	svcpl	0x0058414d
     5a0:	455f3031 	ldrbmi	r3, [pc, #-49]	; 577 <_Min_Stack_Size+0x177>
     5a4:	5f5f5058 	svcpl	0x005f5058
     5a8:	38303320 	ldmdacc	r0!, {r5, r8, r9, ip, sp}
     5ac:	76635f00 	strbtvc	r5, [r3], -r0, lsl #30
     5b0:	6e656c74 	mcrvs	12, 3, r6, cr5, cr4, {3}
     5b4:	525f5f00 	subspl	r5, pc, #0, 30
     5b8:	44495343 	strbmi	r5, [r9], #-835	; 0xfffffcbd
     5bc:	554f535f 	strbpl	r5, [pc, #-863]	; 265 <_Min_Heap_Size+0x65>
     5c0:	28454352 	stmdacs	r5, {r1, r4, r6, r8, r9, lr}^
     5c4:	73202973 			; <UNDEFINED> instruction: 0x73202973
     5c8:	63757274 	cmnvs	r5, #116, 4	; 0x40000007
     5cc:	5f5f2074 	svcpl	0x005f2074
     5d0:	6b636168 	blvs	18d8b78 <_Min_Stack_Size+0x18d8778>
     5d4:	465f5f00 	ldrbmi	r5, [pc], -r0, lsl #30
     5d8:	54434152 	strbpl	r4, [r3], #-338	; 0xfffffeae
     5dc:	4e494d5f 	mcrmi	13, 2, r4, cr9, cr15, {2}
     5e0:	28205f5f 	stmdacs	r0!, {r0, r1, r2, r3, r4, r6, r8, r9, sl, fp, ip, lr}
     5e4:	352e302d 	strcc	r3, [lr, #-45]!	; 0xffffffd3
     5e8:	2e302d52 	mrccs	13, 1, r2, cr0, cr2, {2}
     5ec:	00295235 	eoreq	r5, r9, r5, lsr r2
     5f0:	28505f5f 	ldmdacs	r0, {r0, r1, r2, r3, r4, r6, r8, r9, sl, fp, ip, lr}^
     5f4:	746f7270 	strbtvc	r7, [pc], #-624	; 5fc <_Min_Stack_Size+0x1fc>
     5f8:	2029736f 	eorcs	r7, r9, pc, ror #6
     5fc:	746f7270 	strbtvc	r7, [pc], #-624	; 604 <_Min_Stack_Size+0x204>
     600:	5f00736f 	svcpl	0x0000736f
     604:	534f505f 	movtpl	r5, #61535	; 0xf05f
     608:	565f5849 	ldrbpl	r5, [pc], -r9, asr #16
     60c:	42495349 	submi	r5, r9, #603979777	; 0x24000001
     610:	3220454c 	eorcc	r4, r0, #76, 10	; 0x13000000
     614:	30383030 	eorscc	r3, r8, r0, lsr r0
     618:	4e490039 	mcrmi	0, 2, r0, cr9, cr9, {1}
     61c:	5f343654 	svcpl	0x00343654
     620:	29782843 	ldmdbcs	r8!, {r0, r1, r6, fp, sp}^
     624:	495f5f20 	ldmdbmi	pc, {r5, r8, r9, sl, fp, ip, lr}^	; <UNPREDICTABLE>
     628:	3436544e 	ldrtcc	r5, [r6], #-1102	; 0xfffffbb2
     62c:	7828435f 	stmdavc	r8!, {r0, r1, r2, r3, r4, r6, r8, r9, lr}
     630:	43520029 	cmpmi	r2, #41	; 0x29
     634:	28282043 	stmdacs	r8!, {r0, r1, r6, sp}
     638:	5f434352 	svcpl	0x00434352
     63c:	65707954 	ldrbvs	r7, [r0, #-2388]!	; 0xfffff6ac
     640:	20666544 	rsbcs	r6, r6, r4, asr #10
     644:	4352292a 	cmpmi	r2, #688128	; 0xa8000
     648:	41425f43 	cmpmi	r2, r3, asr #30
     64c:	00294553 	eoreq	r4, r9, r3, asr r5
     650:	53555f5f 	cmppl	r5, #380	; 0x17c
     654:	55434341 	strbpl	r4, [r3, #-833]	; 0xfffffcbf
     658:	414d5f4d 	cmpmi	sp, sp, asr #30
     65c:	205f5f58 	subscs	r5, pc, r8, asr pc	; <UNPREDICTABLE>
     660:	46465830 			; <UNDEFINED> instruction: 0x46465830
     664:	2d504646 	ldclcs	6, cr4, [r0, #-280]	; 0xfffffee8
     668:	4b485538 	blmi	1215b50 <_Min_Stack_Size+0x1215750>
     66c:	445f5f00 	ldrbmi	r5, [pc], #-3840	; 674 <_Min_Stack_Size+0x274>
     670:	32334345 	eorscc	r4, r3, #335544321	; 0x14000001
     674:	4e494d5f 	mcrmi	13, 2, r4, cr9, cr15, {2}
     678:	31205f5f 			; <UNDEFINED> instruction: 0x31205f5f
     67c:	35392d45 	ldrcc	r2, [r9, #-3397]!	; 0xfffff2bb
     680:	5f004644 	svcpl	0x00004644
     684:	544e495f 	strbpl	r4, [lr], #-2399	; 0xfffff6a1
     688:	5f58414d 	svcpl	0x0058414d
     68c:	54444957 	strbpl	r4, [r4], #-2391	; 0xfffff6a9
     690:	205f5f48 	subscs	r5, pc, r8, asr #30
     694:	5f003436 	svcpl	0x00003436
     698:	4e454552 	mcrmi	5, 2, r4, cr5, cr2, {2}
     69c:	424d5f54 	submi	r5, sp, #84, 30	; 0x150
     6a0:	4f545253 	svcmi	0x00545253
     6a4:	5f534357 	svcpl	0x00534357
     6a8:	54415453 	strbpl	r5, [r1], #-1107	; 0xfffffbad
     6ac:	74702845 	ldrbtvc	r2, [r0], #-2117	; 0xfffff7bb
     6b0:	28202972 	stmdacs	r0!, {r1, r4, r5, r6, r8, fp, sp}
     6b4:	72747028 	rsbsvc	r7, r4, #40	; 0x28
     6b8:	5f3e2d29 	svcpl	0x003e2d29
     6bc:	6373696d 	cmnvs	r3, #1785856	; 0x1b4000
     6c0:	6d5f3e2d 	ldclvs	14, cr3, [pc, #-180]	; 614 <_Min_Stack_Size+0x214>
     6c4:	74727362 	ldrbtvc	r7, [r2], #-866	; 0xfffffc9e
     6c8:	7363776f 	cmnvc	r3, #29097984	; 0x1bc0000
     6cc:	6174735f 	cmnvs	r4, pc, asr r3
     6d0:	00296574 	eoreq	r6, r9, r4, ror r5
     6d4:	50544e49 	subspl	r4, r4, r9, asr #28
     6d8:	4d5f5254 	lfmmi	f5, 2, [pc, #-336]	; 590 <_Min_Stack_Size+0x190>
     6dc:	28205841 	stmdacs	r0!, {r0, r6, fp, ip, lr}
     6e0:	4e495f5f 	mcrmi	15, 2, r5, cr9, cr15, {2}
     6e4:	52545054 	subspl	r5, r4, #84	; 0x54
     6e8:	58414d5f 	stmdapl	r1, {r0, r1, r2, r3, r4, r6, r8, sl, fp, lr}^
     6ec:	00295f5f 	eoreq	r5, r9, pc, asr pc
     6f0:	51535f5f 	cmppl	r3, pc, asr pc
     6f4:	4942495f 	stmdbmi	r2, {r0, r1, r2, r3, r4, r6, r8, fp, lr}^
     6f8:	205f5f54 	subscs	r5, pc, r4, asr pc	; <UNPREDICTABLE>
     6fc:	5f5f0030 	svcpl	0x005f0030
     700:	455a4953 	ldrbmi	r4, [sl, #-2387]	; 0xfffff6ad
     704:	5059545f 	subspl	r5, r9, pc, asr r4
     708:	205f5f45 	subscs	r5, pc, r5, asr #30
     70c:	69736e75 	ldmdbvs	r3!, {r0, r2, r4, r5, r6, r9, sl, fp, sp, lr}^
     710:	64656e67 	strbtvs	r6, [r5], #-3687	; 0xfffff199
     714:	746e6920 	strbtvc	r6, [lr], #-2336	; 0xfffff6e0
     718:	445f5f00 	ldrbmi	r5, [pc], #-3840	; 720 <_Min_Stack_Size+0x320>
     71c:	34364345 	ldrtcc	r4, [r6], #-837	; 0xfffffcbb
     720:	58414d5f 	stmdapl	r1, {r0, r1, r2, r3, r4, r6, r8, sl, fp, lr}^
     724:	5058455f 	subspl	r4, r8, pc, asr r5
     728:	33205f5f 			; <UNDEFINED> instruction: 0x33205f5f
     72c:	5f003538 	svcpl	0x00003538
     730:	5f434347 	svcpl	0x00434347
     734:	50415257 	subpl	r5, r1, r7, asr r2
     738:	4454535f 	ldrbmi	r5, [r4], #-863	; 0xfffffca1
     73c:	5f544e49 	svcpl	0x00544e49
     740:	5f002048 	svcpl	0x00002048
     744:	544c465f 	strbpl	r4, [ip], #-1631	; 0xfffff9a1
     748:	5341485f 	movtpl	r4, #6239	; 0x185f
     74c:	4e45445f 	mcrmi	4, 2, r4, cr5, cr15, {2}
     750:	5f4d524f 	svcpl	0x004d524f
     754:	0031205f 	eorseq	r2, r1, pc, asr r0
     758:	4e495f5f 	mcrmi	15, 2, r5, cr9, cr15, {2}
     75c:	545f3854 	ldrbpl	r3, [pc], #-2132	; 764 <_Min_Stack_Size+0x364>
     760:	5f455059 	svcpl	0x00455059
     764:	6973205f 	ldmdbvs	r3!, {r0, r1, r2, r3, r4, r6, sp}^
     768:	64656e67 	strbtvs	r6, [r5], #-3687	; 0xfffff199
     76c:	61686320 	cmnvs	r8, r0, lsr #6
     770:	5f5f0072 	svcpl	0x005f0072
     774:	5f4d5241 	svcpl	0x004d5241
     778:	48435241 	stmdami	r3, {r0, r6, r9, ip, lr}^
     77c:	4f52505f 	svcmi	0x0052505f
     780:	454c4946 	strbmi	r4, [ip, #-2374]	; 0xfffff6ba
     784:	00373720 	eorseq	r3, r7, r0, lsr #14
     788:	49545845 	ldmdbmi	r4, {r0, r2, r6, fp, ip, lr}^
     78c:	4e494c5f 	mcrmi	12, 2, r4, cr9, cr15, {2}
     790:	5f353145 	svcpl	0x00353145
     794:	35314450 	ldrcc	r4, [r1, #-1104]!	; 0xfffffbb0
     798:	58452820 	stmdapl	r5, {r5, fp, sp}^
     79c:	475f4954 			; <UNDEFINED> instruction: 0x475f4954
     7a0:	5f4f4950 	svcpl	0x004f4950
     7a4:	7070614d 	rsbsvc	r6, r0, sp, asr #2
     7a8:	5f676e69 	svcpl	0x00676e69
     7ac:	457b2974 	ldrbmi	r2, [fp, #-2420]!	; 0xfffff68c
     7b0:	31495458 	cmpcc	r9, r8, asr r4
     7b4:	47202c35 			; <UNDEFINED> instruction: 0x47202c35
     7b8:	444f4950 	strbmi	r4, [pc], #-2384	; 7c0 <_Min_Stack_Size+0x3c0>
     7bc:	5047202c 	subpl	r2, r7, ip, lsr #32
     7c0:	505f4f49 	subspl	r4, pc, r9, asr #30
     7c4:	315f4e49 	cmpcc	pc, r9, asr #28
     7c8:	45202c35 	strmi	r2, [r0, #-3125]!	; 0xfffff3cb
     7cc:	31495458 	cmpcc	r9, r8, asr r4
     7d0:	52495f35 	subpl	r5, r9, #53, 30	; 0xd4
     7d4:	4e007d51 	mcrmi	13, 0, r7, cr0, cr1, {2}
     7d8:	5f434956 	svcpl	0x00434956
     7dc:	31515249 	cmpcc	r1, r9, asr #4
     7e0:	58455f30 	stmdapl	r5, {r4, r5, r8, r9, sl, fp, ip, lr}^
     7e4:	5f344954 	svcpl	0x00344954
     7e8:	61736944 	cmnvs	r3, r4, asr #18
     7ec:	28656c62 	stmdacs	r5!, {r1, r5, r6, sl, fp, sp, lr}^
     7f0:	4e282029 	cdpmi	0, 2, cr2, cr8, cr9, {1}
     7f4:	5f434956 	svcpl	0x00434956
     7f8:	52454349 	subpl	r4, r5, #603979777	; 0x24000001
     7fc:	3d7c2030 	ldclcc	0, cr2, [ip, #-192]!	; 0xffffff40
     800:	3c312820 	ldccc	8, cr2, [r1], #-128	; 0xffffff80
     804:	2930313c 	ldmdbcs	r0!, {r2, r3, r4, r5, r8, ip, sp}
     808:	5f5f0029 	svcpl	0x005f0029
     80c:	43415355 	movtmi	r5, #4949	; 0x1355
     810:	5f4d5543 	svcpl	0x004d5543
     814:	5f4e494d 	svcpl	0x004e494d
     818:	2e30205f 	mrccs	0, 1, r2, cr0, cr15, {2}
     81c:	4b485530 	blmi	1215ce4 <_Min_Stack_Size+0x12158e4>
     820:	2f3a4300 	svccs	0x003a4300
     824:	72657355 	rsbvc	r7, r5, #1409286145	; 0x54000001
     828:	62612f73 	rsbvs	r2, r1, #460	; 0x1cc
     82c:	2f6c6564 	svccs	0x006c6564
     830:	6e776f44 	cdpvs	15, 7, cr6, cr7, cr4, {2}
     834:	64616f6c 	strbtvs	r6, [r1], #-3948	; 0xfffff094
     838:	614d2f73 	hvcvs	54003	; 0xd2f3
     83c:	72657473 	rsbvc	r7, r5, #1929379840	; 0x73000000
     840:	5f676e69 	svcpl	0x00676e69
     844:	65626d65 	strbvs	r6, [r2, #-3429]!	; 0xfffff29b
     848:	64656464 	strbtvs	r6, [r5], #-1124	; 0xfffffb9c
     84c:	7379735f 	cmnvc	r9, #2080374785	; 0x7c000001
     850:	2f6d6574 	svccs	0x006d6574
     854:	20647233 	rsbcs	r7, r4, r3, lsr r2
     858:	6d726554 	cfldr64vs	mvdx6, [r2, #-336]!	; 0xfffffeb0
     85c:	696e752f 	stmdbvs	lr!, {r0, r1, r2, r3, r5, r8, sl, ip, sp, lr}^
     860:	2f343174 	svccs	0x00343174
     864:	73736573 	cmnvc	r3, #482344960	; 0x1cc00000
     868:	346e6f69 	strbtcc	r6, [lr], #-3945	; 0xfffff097
     86c:	63654c2f 	cmnvs	r5, #12032	; 0x2f00
     870:	65727574 	ldrbvs	r7, [r2, #-1396]!	; 0xfffffa8c
     874:	65442f34 	strbvs	r2, [r4, #-3892]	; 0xfffff0cc
     878:	00677562 	rsbeq	r7, r7, r2, ror #10
     87c:	4c465f5f 	mcrrmi	15, 5, r5, r6, cr15
     880:	5f323354 	svcpl	0x00323354
     884:	49434544 	stmdbmi	r3, {r2, r6, r8, sl, lr}^
     888:	5f4c414d 	svcpl	0x004c414d
     88c:	5f474944 	svcpl	0x00474944
     890:	0039205f 	eorseq	r2, r9, pc, asr r0
     894:	444c5f5f 	strbmi	r5, [ip], #-3935	; 0xfffff0a1
     898:	4d5f4c42 	ldclmi	12, cr4, [pc, #-264]	; 798 <_Min_Stack_Size+0x398>
     89c:	455f4e49 	ldrbmi	r4, [pc, #-3657]	; fffffa5b <_estack+0xdfffd25b>
     8a0:	5f5f5058 	svcpl	0x005f5058
     8a4:	312d2820 			; <UNDEFINED> instruction: 0x312d2820
     8a8:	29313230 	ldmdbcs	r1!, {r4, r5, r9, ip, sp}
     8ac:	45525f00 	ldrbmi	r5, [r2, #-3840]	; 0xfffff100
     8b0:	5f544e45 	svcpl	0x00544e45
     8b4:	54494e49 	strbpl	r4, [r9], #-3657	; 0xfffff1b7
     8b8:	4e41525f 	mcrmi	2, 2, r5, cr1, cr15, {2}
     8bc:	28383444 	ldmdacs	r8!, {r2, r6, sl, ip, sp}
     8c0:	29726176 	ldmdbcs	r2!, {r1, r2, r4, r5, r6, r8, sp, lr}^
     8c4:	206f6420 	rsbcs	r6, pc, r0, lsr #8
     8c8:	7473207b 	ldrbtvc	r2, [r3], #-123	; 0xffffff85
     8cc:	74637572 	strbtvc	r7, [r3], #-1394	; 0xfffffa8e
     8d0:	65725f20 	ldrbvs	r5, [r2, #-3872]!	; 0xfffff0e0
     8d4:	20746e65 	rsbscs	r6, r4, r5, ror #28
     8d8:	20725f2a 	rsbscs	r5, r2, sl, lsr #30
     8dc:	7628203d 			; <UNDEFINED> instruction: 0x7628203d
     8e0:	3b297261 	blcc	a5d26c <_Min_Stack_Size+0xa5ce6c>
     8e4:	2d725f20 	ldclcs	15, cr5, [r2, #-128]!	; 0xffffff80
     8e8:	34725f3e 	ldrbtcc	r5, [r2], #-3902	; 0xfffff0c2
     8ec:	5f3e2d38 	svcpl	0x003e2d38
     8f0:	64656573 	strbtvs	r6, [r5], #-1395	; 0xfffffa8d
     8f4:	205d305b 	subscs	r3, sp, fp, asr r0
     8f8:	525f203d 	subspl	r2, pc, #61	; 0x3d
     8fc:	34444e41 	strbcc	r4, [r4], #-3649	; 0xfffff1bf
     900:	45535f38 	ldrbmi	r5, [r3, #-3896]	; 0xfffff0c8
     904:	305f4445 	subscc	r4, pc, r5, asr #8
     908:	725f203b 	subsvc	r2, pc, #59	; 0x3b
     90c:	725f3e2d 	subsvc	r3, pc, #720	; 0x2d0
     910:	3e2d3834 	mcrcc	8, 1, r3, cr13, cr4, {1}
     914:	6565735f 	strbvs	r7, [r5, #-863]!	; 0xfffffca1
     918:	5d315b64 	vldmdbpl	r1!, {d5-<overflow reg d54>}
     91c:	5f203d20 	svcpl	0x00203d20
     920:	444e4152 	strbmi	r4, [lr], #-338	; 0xfffffeae
     924:	535f3834 	cmppl	pc, #52, 16	; 0x340000
     928:	5f444545 	svcpl	0x00444545
     92c:	5f203b31 	svcpl	0x00203b31
     930:	5f3e2d72 	svcpl	0x003e2d72
     934:	2d383472 	cfldrscs	mvf3, [r8, #-456]!	; 0xfffffe38
     938:	65735f3e 	ldrbvs	r5, [r3, #-3902]!	; 0xfffff0c2
     93c:	325b6465 	subscc	r6, fp, #1694498816	; 0x65000000
     940:	203d205d 	eorscs	r2, sp, sp, asr r0
     944:	4e41525f 	mcrmi	2, 2, r5, cr1, cr15, {2}
     948:	5f383444 	svcpl	0x00383444
     94c:	44454553 	strbmi	r4, [r5], #-1363	; 0xfffffaad
     950:	203b325f 	eorscs	r3, fp, pc, asr r2
     954:	3e2d725f 	mcrcc	2, 1, r7, cr13, cr15, {2}
     958:	3834725f 	ldmdacc	r4!, {r0, r1, r2, r3, r4, r6, r9, ip, sp, lr}
     95c:	6d5f3e2d 	ldclvs	14, cr3, [pc, #-180]	; 8b0 <_Min_Stack_Size+0x4b0>
     960:	5b746c75 	blpl	1d1bb3c <_Min_Stack_Size+0x1d1b73c>
     964:	3d205d30 	stccc	13, cr5, [r0, #-192]!	; 0xffffff40
     968:	41525f20 	cmpmi	r2, r0, lsr #30
     96c:	3834444e 	ldmdacc	r4!, {r1, r2, r3, r6, sl, lr}
     970:	4c554d5f 	mrrcmi	13, 5, r4, r5, cr15
     974:	3b305f54 	blcc	c186cc <_Min_Stack_Size+0xc182cc>
     978:	2d725f20 	ldclcs	15, cr5, [r2, #-128]!	; 0xffffff80
     97c:	34725f3e 	ldrbtcc	r5, [r2], #-3902	; 0xfffff0c2
     980:	5f3e2d38 	svcpl	0x003e2d38
     984:	746c756d 	strbtvc	r7, [ip], #-1389	; 0xfffffa93
     988:	205d315b 	subscs	r3, sp, fp, asr r1
     98c:	525f203d 	subspl	r2, pc, #61	; 0x3d
     990:	34444e41 	strbcc	r4, [r4], #-3649	; 0xfffff1bf
     994:	554d5f38 	strbpl	r5, [sp, #-3896]	; 0xfffff0c8
     998:	315f544c 	cmpcc	pc, ip, asr #8
     99c:	725f203b 	subsvc	r2, pc, #59	; 0x3b
     9a0:	725f3e2d 	subsvc	r3, pc, #720	; 0x2d0
     9a4:	3e2d3834 	mcrcc	8, 1, r3, cr13, cr4, {1}
     9a8:	6c756d5f 	ldclvs	13, cr6, [r5], #-380	; 0xfffffe84
     9ac:	5d325b74 	vldmdbpl	r2!, {d5-<overflow reg d62>}
     9b0:	5f203d20 	svcpl	0x00203d20
     9b4:	444e4152 	strbmi	r4, [lr], #-338	; 0xfffffeae
     9b8:	4d5f3834 	ldclmi	8, cr3, [pc, #-208]	; 8f0 <_Min_Stack_Size+0x4f0>
     9bc:	5f544c55 	svcpl	0x00544c55
     9c0:	5f203b32 	svcpl	0x00203b32
     9c4:	5f3e2d72 	svcpl	0x003e2d72
     9c8:	2d383472 	cfldrscs	mvf3, [r8, #-456]!	; 0xfffffe38
     9cc:	64615f3e 	strbtvs	r5, [r1], #-3902	; 0xfffff0c2
     9d0:	203d2064 	eorscs	r2, sp, r4, rrx
     9d4:	4e41525f 	mcrmi	2, 2, r5, cr1, cr15, {2}
     9d8:	5f383444 	svcpl	0x00383444
     9dc:	3b444441 	blcc	1111ae8 <_Min_Stack_Size+0x11116e8>
     9e0:	2d725f20 	ldclcs	15, cr5, [r2, #-128]!	; 0xffffff80
     9e4:	34725f3e 	ldrbtcc	r5, [r2], #-3902	; 0xfffff0c2
     9e8:	5f3e2d38 	svcpl	0x003e2d38
     9ec:	646e6172 	strbtvs	r6, [lr], #-370	; 0xfffffe8e
     9f0:	78656e5f 	stmdavc	r5!, {r0, r1, r2, r3, r4, r6, r9, sl, fp, sp, lr}^
     9f4:	203d2074 	eorscs	r2, sp, r4, ror r0
     9f8:	7d203b31 	fstmdbxvc	r0!, {d3-d26}	;@ Deprecated
     9fc:	69687720 	stmdbvs	r8!, {r5, r8, r9, sl, ip, sp, lr}^
     a00:	2820656c 	stmdacs	r0!, {r2, r3, r5, r6, r8, sl, sp, lr}
     a04:	5f002930 	svcpl	0x00002930
     a08:	42444c5f 	submi	r4, r4, #24320	; 0x5f00
     a0c:	414d5f4c 	cmpmi	sp, ip, asr #30
     a10:	445f544e 	ldrbmi	r5, [pc], #-1102	; a18 <_Min_Stack_Size+0x618>
     a14:	5f5f4749 	svcpl	0x005f4749
     a18:	00333520 	eorseq	r3, r3, r0, lsr #10
     a1c:	6d745f5f 	ldclvs	15, cr5, [r4, #-380]!	; 0xfffffe84
     a20:	63775f00 	cmnvs	r7, #0, 30
     a24:	6f747273 	svcvs	0x00747273
     a28:	5f73626d 	svcpl	0x0073626d
     a2c:	74617473 	strbtvc	r7, [r1], #-1139	; 0xfffffb8d
     a30:	6e5f0065 	cdpvs	0, 5, cr0, cr15, cr5, {3}
     a34:	00667562 	rsbeq	r7, r6, r2, ror #10
     a38:	6d745f5f 	ldclvs	15, cr5, [r4, #-380]!	; 0xfffffe84
     a3c:	6365735f 	cmnvs	r5, #2080374785	; 0x7c000001
     a40:	555f5f00 	ldrbpl	r5, [pc, #-3840]	; fffffb48 <_estack+0xdfffd348>
     a44:	38544e49 	ldmdacc	r4, {r0, r3, r6, r9, sl, fp, lr}^
     a48:	6328435f 			; <UNDEFINED> instruction: 0x6328435f
     a4c:	00632029 	rsbeq	r2, r3, r9, lsr #32
     a50:	4e495f5f 	mcrmi	15, 2, r5, cr9, cr15, {2}
     a54:	5f363154 	svcpl	0x00363154
     a58:	45505954 	ldrbmi	r5, [r0, #-2388]	; 0xfffff6ac
     a5c:	73205f5f 			; <UNDEFINED> instruction: 0x73205f5f
     a60:	74726f68 	ldrbtvc	r6, [r2], #-3944	; 0xfffff098
     a64:	746e6920 	strbtvc	r6, [lr], #-2336	; 0xfffff6e0
     a68:	615f5f00 	cmpvs	pc, r0, lsl #30
     a6c:	6e67696c 	vnmulvs.f16	s13, s14, s25	; <UNPREDICTABLE>
     a70:	78286465 	stmdavc	r8!, {r0, r2, r5, r6, sl, sp, lr}
     a74:	5f5f2029 	svcpl	0x005f2029
     a78:	72747461 	rsbsvc	r7, r4, #1627389952	; 0x61000000
     a7c:	74756269 	ldrbtvc	r6, [r5], #-617	; 0xfffffd97
     a80:	285f5f65 	ldmdacs	pc, {r0, r2, r5, r6, r8, r9, sl, fp, ip, lr}^	; <UNPREDICTABLE>
     a84:	615f5f28 	cmpvs	pc, r8, lsr #30
     a88:	6e67696c 	vnmulvs.f16	s13, s14, s25	; <UNPREDICTABLE>
     a8c:	5f5f6465 	svcpl	0x005f6465
     a90:	29297828 	stmdbcs	r9!, {r3, r5, fp, ip, sp, lr}
     a94:	5f5f0029 	svcpl	0x005f0029
     a98:	6b636f6c 	blvs	18dc850 <_Min_Stack_Size+0x18dc450>
     a9c:	78655f73 	stmdavc	r5!, {r0, r1, r4, r5, r6, r8, r9, sl, fp, ip, lr}^
     aa0:	73756c63 	cmnvc	r5, #25344	; 0x6300
     aa4:	28657669 	stmdacs	r5!, {r0, r3, r5, r6, r9, sl, ip, sp, lr}^
     aa8:	292e2e2e 	stmdbcs	lr!, {r1, r2, r3, r5, r9, sl, fp, sp}
     aac:	6c5f5f20 	mrrcvs	15, 2, r5, pc, cr0	; <UNPREDICTABLE>
     ab0:	5f6b636f 	svcpl	0x006b636f
     ab4:	6f6e6e61 	svcvs	0x006e6e61
     ab8:	65746174 	ldrbvs	r6, [r4, #-372]!	; 0xfffffe8c
     abc:	63786528 	cmnvs	r8, #40, 10	; 0xa000000
     ac0:	6973756c 	ldmdbvs	r3!, {r2, r3, r5, r6, r8, sl, ip, sp, lr}^
     ac4:	6c5f6576 	cfldr64vs	mvdx6, [pc], {118}	; 0x76
     ac8:	5f6b636f 	svcpl	0x006b636f
     acc:	636e7566 	cmnvs	lr, #427819008	; 0x19800000
     ad0:	6e6f6974 			; <UNDEFINED> instruction: 0x6e6f6974
     ad4:	565f5f28 	ldrbpl	r5, [pc], -r8, lsr #30
     ad8:	52415f41 	subpl	r5, r1, #260	; 0x104
     adc:	5f5f5347 	svcpl	0x005f5347
     ae0:	5f002929 	svcpl	0x00002929
     ae4:	6134366c 	teqvs	r4, ip, ror #12
     ae8:	6675625f 			; <UNDEFINED> instruction: 0x6675625f
     aec:	465f5f00 	ldrbmi	r5, [pc], -r0, lsl #30
     af0:	3436544c 	ldrtcc	r5, [r6], #-1100	; 0xfffffbb4
     af4:	58414d5f 	stmdapl	r1, {r0, r1, r2, r3, r4, r6, r8, sl, fp, lr}^
     af8:	31205f5f 			; <UNDEFINED> instruction: 0x31205f5f
     afc:	3739372e 	ldrcc	r3, [r9, -lr, lsr #14]!
     b00:	31333936 	teqcc	r3, r6, lsr r9
     b04:	36383433 			; <UNDEFINED> instruction: 0x36383433
     b08:	35313332 	ldrcc	r3, [r1, #-818]!	; 0xfffffcce
     b0c:	332b6537 			; <UNDEFINED> instruction: 0x332b6537
     b10:	36463830 			; <UNDEFINED> instruction: 0x36463830
     b14:	564e0034 			; <UNDEFINED> instruction: 0x564e0034
     b18:	495f4349 	ldmdbmi	pc, {r0, r3, r6, r8, r9, lr}^	; <UNPREDICTABLE>
     b1c:	30315152 	eorscc	r5, r1, r2, asr r1
     b20:	5458455f 	ldrbpl	r4, [r8], #-1375	; 0xfffffaa1
     b24:	455f3449 	ldrbmi	r3, [pc, #-1097]	; 6e3 <_Min_Stack_Size+0x2e3>
     b28:	6c62616e 	stfvse	f6, [r2], #-440	; 0xfffffe48
     b2c:	20292865 	eorcs	r2, r9, r5, ror #16
     b30:	49564e28 	ldmdbmi	r6, {r3, r5, r9, sl, fp, lr}^
     b34:	53495f43 	movtpl	r5, #40771	; 0x9f43
     b38:	20305245 	eorscs	r5, r0, r5, asr #4
     b3c:	28203d7c 	stmdacs	r0!, {r2, r3, r4, r5, r6, r8, sl, fp, ip, sp}
     b40:	313c3c31 	teqcc	ip, r1, lsr ip
     b44:	00292930 	eoreq	r2, r9, r0, lsr r9
     b48:	49545845 	ldmdbmi	r4, {r0, r2, r6, fp, ip, lr}^
     b4c:	4e494c5f 	mcrmi	12, 2, r4, cr9, cr15, {2}
     b50:	505f3845 	subspl	r3, pc, r5, asr #16
     b54:	28203842 	stmdacs	r0!, {r1, r6, fp, ip, sp}
     b58:	49545845 	ldmdbmi	r4, {r0, r2, r6, fp, ip, lr}^
     b5c:	4950475f 	ldmdbmi	r0, {r0, r1, r2, r3, r4, r6, r8, r9, sl, lr}^
     b60:	614d5f4f 	cmpvs	sp, pc, asr #30
     b64:	6e697070 	mcrvs	0, 3, r7, cr9, cr0, {3}
     b68:	29745f67 	ldmdbcs	r4!, {r0, r1, r2, r5, r6, r8, r9, sl, fp, ip, lr}^
     b6c:	5458457b 	ldrbpl	r4, [r8], #-1403	; 0xfffffa85
     b70:	202c3849 	eorcs	r3, ip, r9, asr #16
     b74:	4f495047 	svcmi	0x00495047
     b78:	47202c42 	strmi	r2, [r0, -r2, asr #24]!
     b7c:	5f4f4950 	svcpl	0x004f4950
     b80:	5f4e4950 	svcpl	0x004e4950
     b84:	45202c38 	strmi	r2, [r0, #-3128]!	; 0xfffff3c8
     b88:	38495458 	stmdacc	r9, {r3, r4, r6, sl, ip, lr}^
     b8c:	5152495f 	cmppl	r2, pc, asr r9
     b90:	5047007d 	subpl	r0, r7, sp, ror r0
     b94:	505f4f49 	subspl	r4, pc, r9, asr #30
     b98:	345f4e49 	ldrbcc	r4, [pc], #-3657	; ba0 <_Min_Stack_Size+0x7a0>
     b9c:	75282820 	strvc	r2, [r8, #-2080]!	; 0xfffff7e0
     ba0:	31746e69 	cmncc	r4, r9, ror #28
     ba4:	29745f36 	ldmdbcs	r4!, {r1, r2, r4, r5, r8, r9, sl, fp, ip, lr}^
     ba8:	30307830 	eorscc	r7, r0, r0, lsr r8
     bac:	00293031 	eoreq	r3, r9, r1, lsr r0
     bb0:	49545845 	ldmdbmi	r4, {r0, r2, r6, fp, ip, lr}^
     bb4:	4e494c5f 	mcrmi	12, 2, r4, cr9, cr15, {2}
     bb8:	505f3045 	subspl	r3, pc, r5, asr #32
     bbc:	28203041 	stmdacs	r0!, {r0, r6, ip, sp}
     bc0:	49545845 	ldmdbmi	r4, {r0, r2, r6, fp, ip, lr}^
     bc4:	4950475f 	ldmdbmi	r0, {r0, r1, r2, r3, r4, r6, r8, r9, sl, lr}^
     bc8:	614d5f4f 	cmpvs	sp, pc, asr #30
     bcc:	6e697070 	mcrvs	0, 3, r7, cr9, cr0, {3}
     bd0:	29745f67 	ldmdbcs	r4!, {r0, r1, r2, r5, r6, r8, r9, sl, fp, ip, lr}^
     bd4:	5458457b 	ldrbpl	r4, [r8], #-1403	; 0xfffffa85
     bd8:	202c3049 	eorcs	r3, ip, r9, asr #32
     bdc:	4f495047 	svcmi	0x00495047
     be0:	47202c41 	strmi	r2, [r0, -r1, asr #24]!
     be4:	5f4f4950 	svcpl	0x004f4950
     be8:	5f4e4950 	svcpl	0x004e4950
     bec:	45202c30 	strmi	r2, [r0, #-3120]!	; 0xfffff3d0
     bf0:	30495458 	subcc	r5, r9, r8, asr r4
     bf4:	5152495f 	cmppl	r2, pc, asr r9
     bf8:	5f5f007d 	svcpl	0x005f007d
     bfc:	6f626e75 	svcvs	0x00626e75
     c00:	65646e75 	strbvs	r6, [r4, #-3701]!	; 0xfffff18b
     c04:	5f002064 	svcpl	0x00002064
     c08:	544c465f 	strbpl	r4, [ip], #-1631	; 0xfffff9a1
     c0c:	5f583233 	svcpl	0x00583233
     c10:	5f4e494d 	svcpl	0x004e494d
     c14:	455f3031 	ldrbmi	r3, [pc, #-49]	; beb <_Min_Stack_Size+0x7eb>
     c18:	5f5f5058 	svcpl	0x005f5058
     c1c:	332d2820 			; <UNDEFINED> instruction: 0x332d2820
     c20:	00293730 	eoreq	r3, r9, r0, lsr r7
     c24:	49545845 	ldmdbmi	r4, {r0, r2, r6, fp, ip, lr}^
     c28:	4e494c5f 	mcrmi	12, 2, r4, cr9, cr15, {2}
     c2c:	505f3145 	subspl	r3, pc, r5, asr #2
     c30:	28203141 	stmdacs	r0!, {r0, r6, r8, ip, sp}
     c34:	49545845 	ldmdbmi	r4, {r0, r2, r6, fp, ip, lr}^
     c38:	4950475f 	ldmdbmi	r0, {r0, r1, r2, r3, r4, r6, r8, r9, sl, lr}^
     c3c:	614d5f4f 	cmpvs	sp, pc, asr #30
     c40:	6e697070 	mcrvs	0, 3, r7, cr9, cr0, {3}
     c44:	29745f67 	ldmdbcs	r4!, {r0, r1, r2, r5, r6, r8, r9, sl, fp, ip, lr}^
     c48:	5458457b 	ldrbpl	r4, [r8], #-1403	; 0xfffffa85
     c4c:	202c3149 	eorcs	r3, ip, r9, asr #2
     c50:	4f495047 	svcmi	0x00495047
     c54:	47202c41 	strmi	r2, [r0, -r1, asr #24]!
     c58:	5f4f4950 	svcpl	0x004f4950
     c5c:	5f4e4950 	svcpl	0x004e4950
     c60:	45202c31 	strmi	r2, [r0, #-3121]!	; 0xfffff3cf
     c64:	31495458 	cmpcc	r9, r8, asr r4
     c68:	5152495f 	cmppl	r2, pc, asr r9
     c6c:	5f5f007d 	svcpl	0x005f007d
     c70:	5f434347 	svcpl	0x00434347
     c74:	45564148 	ldrbmi	r4, [r6, #-328]	; 0xfffffeb8
     c78:	4e59535f 	mrcmi	3, 2, r5, cr9, cr15, {2}
     c7c:	4f435f43 	svcmi	0x00435f43
     c80:	5241504d 	subpl	r5, r1, #77	; 0x4d
     c84:	4e415f45 	cdpmi	15, 4, cr5, cr1, cr5, {2}
     c88:	57535f44 	ldrbpl	r5, [r3, -r4, asr #30]
     c8c:	315f5041 	cmpcc	pc, r1, asr #32
     c90:	49003120 	stmdbmi	r0, {r5, r8, ip, sp}
     c94:	4c5f544e 	cfldrdmi	mvd5, [pc], {78}	; 0x4e
     c98:	54534145 	ldrbpl	r4, [r3], #-325	; 0xfffffebb
     c9c:	4d5f3631 	ldclmi	6, cr3, [pc, #-196]	; be0 <_Min_Stack_Size+0x7e0>
     ca0:	28205841 	stmdacs	r0!, {r0, r6, fp, ip, lr}
     ca4:	4e495f5f 	mcrmi	15, 2, r5, cr9, cr15, {2}
     ca8:	454c5f54 	strbmi	r5, [ip, #-3924]	; 0xfffff0ac
     cac:	31545341 	cmpcc	r4, r1, asr #6
     cb0:	414d5f36 	cmpmi	sp, r6, lsr pc
     cb4:	295f5f58 	ldmdbcs	pc, {r3, r4, r6, r8, r9, sl, fp, ip, lr}^	; <UNPREDICTABLE>
     cb8:	535f5f00 	cmppl	pc, #0, 30
     cbc:	5f434454 	svcpl	0x00434454
     cc0:	54534f48 	ldrbpl	r4, [r3], #-3912	; 0xfffff0b8
     cc4:	5f5f4445 	svcpl	0x005f4445
     cc8:	5f003120 	svcpl	0x00003120
     ccc:	4c4c555f 	cfstr64mi	mvdx5, [ip], {95}	; 0x5f
     cd0:	43415246 	movtmi	r5, #4678	; 0x1246
     cd4:	42465f54 	submi	r5, r6, #84, 30	; 0x150
     cd8:	5f5f5449 	svcpl	0x005f5449
     cdc:	00343620 	eorseq	r3, r4, r0, lsr #12
     ce0:	42444c5f 	submi	r4, r4, #24320	; 0x5f00
     ce4:	51455f4c 	cmppl	r5, ip, asr #30
     ce8:	4c42445f 	cfstrdmi	mvd4, [r2], {95}	; 0x5f
     cec:	5f003120 	svcpl	0x00003120
     cf0:	544e495f 	strbpl	r4, [lr], #-2399	; 0xfffff6a1
     cf4:	5341465f 	movtpl	r4, #5727	; 0x165f
     cf8:	5f343654 	svcpl	0x00343654
     cfc:	45505954 	ldrbmi	r5, [r0, #-2388]	; 0xfffff6ac
     d00:	6c205f5f 	stcvs	15, cr5, [r0], #-380	; 0xfffffe84
     d04:	20676e6f 	rsbcs	r6, r7, pc, ror #28
     d08:	676e6f6c 	strbvs	r6, [lr, -ip, ror #30]!
     d0c:	746e6920 	strbtvc	r6, [lr], #-2336	; 0xfffff6e0
     d10:	575f5f00 	ldrbpl	r5, [pc, -r0, lsl #30]
     d14:	5f544e49 	svcpl	0x00544e49
     d18:	45505954 	ldrbmi	r5, [r0, #-2388]	; 0xfffff6ac
     d1c:	75205f5f 	strvc	r5, [r0, #-3935]!	; 0xfffff0a1
     d20:	6769736e 	strbvs	r7, [r9, -lr, ror #6]!
     d24:	2064656e 	rsbcs	r6, r4, lr, ror #10
     d28:	00746e69 	rsbseq	r6, r4, r9, ror #28
     d2c:	54415f5f 	strbpl	r5, [r1], #-3935	; 0xfffff0a1
     d30:	42495254 	submi	r5, r9, #84, 4	; 0x40000005
     d34:	5f455455 	svcpl	0x00455455
     d38:	55504d49 	ldrbpl	r4, [r0, #-3401]	; 0xfffff2b7
     d3c:	505f4552 	subspl	r4, pc, r2, asr r5	; <UNPREDICTABLE>
     d40:	5f5f5254 	svcpl	0x005f5254
     d44:	665f0020 	ldrbvs	r0, [pc], -r0, lsr #32
     d48:	6772616e 	ldrbvs	r6, [r2, -lr, ror #2]!
     d4c:	6c5f0073 	mrrcvs	0, 7, r0, pc, cr3	; <UNPREDICTABLE>
     d50:	006b636f 	rsbeq	r6, fp, pc, ror #6
     d54:	49535f5f 	ldmdbmi	r3, {r0, r1, r2, r3, r4, r6, r8, r9, sl, fp, ip, lr}^
     d58:	545f455a 	ldrbpl	r4, [pc], #-1370	; d60 <_Min_Stack_Size+0x960>
     d5c:	00205f5f 	eoreq	r5, r0, pc, asr pc
     d60:	44525450 	ldrbmi	r5, [r2], #-1104	; 0xfffffbb0
     d64:	5f464649 	svcpl	0x00464649
     d68:	2058414d 	subscs	r4, r8, sp, asr #2
     d6c:	505f5f28 	subspl	r5, pc, r8, lsr #30
     d70:	49445254 	stmdbmi	r4, {r2, r4, r6, r9, ip, lr}^
     d74:	4d5f4646 	ldclmi	6, cr4, [pc, #-280]	; c64 <_Min_Stack_Size+0x864>
     d78:	5f5f5841 	svcpl	0x005f5841
     d7c:	5f5f0029 	svcpl	0x005f0029
     d80:	33544c46 	cmpcc	r4, #17920	; 0x4600
     d84:	414d5f32 	cmpmi	sp, r2, lsr pc
     d88:	30315f58 	eorscc	r5, r1, r8, asr pc
     d8c:	5058455f 	subspl	r4, r8, pc, asr r5
     d90:	33205f5f 			; <UNDEFINED> instruction: 0x33205f5f
     d94:	4e5f0038 	mrcmi	0, 2, r0, cr15, cr8, {1}
     d98:	616c6c75 	smcvs	50885	; 0xc6c5
     d9c:	20656c62 	rsbcs	r6, r5, r2, ror #24
     da0:	555f5f00 	ldrbpl	r5, [pc, #-3840]	; fffffea8 <_estack+0xdfffd6a8>
     da4:	465f5151 			; <UNDEFINED> instruction: 0x465f5151
     da8:	5f544942 	svcpl	0x00544942
     dac:	0038205f 	eorseq	r2, r8, pc, asr r0
     db0:	4545525f 	strbmi	r5, [r5, #-607]	; 0xfffffda1
     db4:	435f544e 	cmpmi	pc, #1308622848	; 0x4e000000
     db8:	4b434548 	blmi	10d22e0 <_Min_Stack_Size+0x10d1ee0>
     dbc:	284d545f 	stmdacs	sp, {r0, r1, r2, r3, r4, r6, sl, ip, lr}^
     dc0:	29726176 	ldmdbcs	r2!, {r1, r2, r4, r5, r6, r8, sp, lr}^
     dc4:	45525f20 	ldrbmi	r5, [r2, #-3872]	; 0xfffff0e0
     dc8:	5f544e45 	svcpl	0x00544e45
     dcc:	43454843 	movtmi	r4, #22595	; 0x5843
     dd0:	6176284b 	cmnvs	r6, fp, asr #16
     dd4:	5f202c72 	svcpl	0x00202c72
     dd8:	61636f6c 	cmnvs	r3, ip, ror #30
     ddc:	6d69746c 	cfstrdvs	mvd7, [r9, #-432]!	; 0xfffffe50
     de0:	75625f65 	strbvc	r5, [r2, #-3941]!	; 0xfffff09b
     de4:	73202c66 			; <UNDEFINED> instruction: 0x73202c66
     de8:	63757274 	cmnvs	r5, #116, 4	; 0x40000007
     dec:	5f5f2074 	svcpl	0x005f2074
     df0:	2a206d74 	bcs	81c3c8 <_Min_Stack_Size+0x81bfc8>
     df4:	6973202c 	ldmdbvs	r3!, {r2, r3, r5, sp}^
     df8:	666f657a 			; <UNDEFINED> instruction: 0x666f657a
     dfc:	28282a20 	stmdacs	r8!, {r5, r9, fp, sp}
     e00:	29726176 	ldmdbcs	r2!, {r1, r2, r4, r5, r6, r8, sp, lr}^
     e04:	6c5f3e2d 	mrrcvs	14, 2, r3, pc, cr13	; <UNPREDICTABLE>
     e08:	6c61636f 	stclvs	3, cr6, [r1], #-444	; 0xfffffe44
     e0c:	656d6974 	strbvs	r6, [sp, #-2420]!	; 0xfffff68c
     e10:	6675625f 			; <UNDEFINED> instruction: 0x6675625f
     e14:	29202c29 	stmdbcs	r0!, {r0, r3, r5, sl, fp, sp}
     e18:	555f5f00 	ldrbpl	r5, [pc, #-3840]	; ffffff20 <_estack+0xdfffd720>
     e1c:	41524653 	cmpmi	r2, r3, asr r6
     e20:	4d5f5443 	cfldrdmi	mvd5, [pc, #-268]	; d1c <_Min_Stack_Size+0x91c>
     e24:	5f5f5841 	svcpl	0x005f5841
     e28:	46583020 	ldrbmi	r3, [r8], -r0, lsr #32
     e2c:	382d5046 	stmdacc	sp!, {r1, r2, r6, ip, lr}
     e30:	00524855 	subseq	r4, r2, r5, asr r8
     e34:	4f495047 	svcmi	0x00495047
     e38:	4e49505f 	mcrmi	0, 2, r5, cr9, cr15, {2}
     e3c:	2820395f 	stmdacs	r0!, {r0, r1, r2, r3, r4, r6, r8, fp, ip, sp}
     e40:	6e697528 	cdpvs	5, 6, cr7, cr9, cr8, {1}
     e44:	5f363174 	svcpl	0x00363174
     e48:	78302974 	ldmdavc	r0!, {r2, r4, r5, r6, r8, fp, sp}
     e4c:	30303230 	eorscc	r3, r0, r0, lsr r2
     e50:	5f5f0029 	svcpl	0x005f0029
     e54:	6465656e 	strbtvs	r6, [r5], #-1390	; 0xfffffa92
     e58:	6863775f 	stmdavs	r3!, {r0, r1, r2, r3, r4, r6, r8, r9, sl, ip, sp, lr}^
     e5c:	745f7261 	ldrbvc	r7, [pc], #-609	; e64 <_Min_Stack_Size+0xa64>
     e60:	465f5f00 	ldrbmi	r5, [pc], -r0, lsl #30
     e64:	3233544c 	eorscc	r5, r3, #76, 8	; 0x4c000000
     e68:	4e494d5f 	mcrmi	13, 2, r4, cr9, cr15, {2}
     e6c:	5058455f 	subspl	r4, r8, pc, asr r5
     e70:	28205f5f 	stmdacs	r0!, {r0, r1, r2, r3, r4, r6, r8, r9, sl, fp, ip, lr}
     e74:	3532312d 	ldrcc	r3, [r2, #-301]!	; 0xfffffed3
     e78:	434d0029 	movtmi	r0, #53289	; 0xd029
     e7c:	455f4c41 	ldrbmi	r4, [pc, #-3137]	; 243 <_Min_Heap_Size+0x43>
     e80:	5f495458 	svcpl	0x00495458
     e84:	4f495047 	svcmi	0x00495047
     e88:	6470555f 	ldrbtvs	r5, [r0], #-1375	; 0xfffffaa1
     e8c:	00657461 	rsbeq	r7, r5, r1, ror #8
     e90:	49545845 	ldmdbmi	r4, {r0, r2, r6, fp, ip, lr}^
     e94:	4e494c5f 	mcrmi	12, 2, r4, cr9, cr15, {2}
     e98:	5f303145 	svcpl	0x00303145
     e9c:	30314150 	eorscc	r4, r1, r0, asr r1
     ea0:	58452820 	stmdapl	r5, {r5, fp, sp}^
     ea4:	475f4954 			; <UNDEFINED> instruction: 0x475f4954
     ea8:	5f4f4950 	svcpl	0x004f4950
     eac:	7070614d 	rsbsvc	r6, r0, sp, asr #2
     eb0:	5f676e69 	svcpl	0x00676e69
     eb4:	457b2974 	ldrbmi	r2, [fp, #-2420]!	; 0xfffff68c
     eb8:	31495458 	cmpcc	r9, r8, asr r4
     ebc:	47202c30 			; <UNDEFINED> instruction: 0x47202c30
     ec0:	414f4950 	cmpmi	pc, r0, asr r9	; <UNPREDICTABLE>
     ec4:	5047202c 	subpl	r2, r7, ip, lsr #32
     ec8:	505f4f49 	subspl	r4, pc, r9, asr #30
     ecc:	315f4e49 	cmpcc	pc, r9, asr #28
     ed0:	45202c30 	strmi	r2, [r0, #-3120]!	; 0xfffff3d0
     ed4:	31495458 	cmpcc	r9, r8, asr r4
     ed8:	52495f30 	subpl	r5, r9, #48, 30	; 0xc0
     edc:	5f007d51 	svcpl	0x00007d51
     ee0:	64746567 	ldrbtvs	r6, [r4], #-1383	; 0xfffffa99
     ee4:	5f657461 	svcpl	0x00657461
     ee8:	00727265 	rsbseq	r7, r2, r5, ror #4
     eec:	4453425f 	ldrbmi	r4, [r3], #-607	; 0xfffffda1
     ef0:	5254505f 	subspl	r5, r4, #95	; 0x5f
     ef4:	46464944 	strbmi	r4, [r6], -r4, asr #18
     ef8:	205f545f 	subscs	r5, pc, pc, asr r4	; <UNPREDICTABLE>
     efc:	544e4900 	strbpl	r4, [lr], #-2304	; 0xfffff700
     f00:	4d5f3631 	ldclmi	6, cr3, [pc, #-196]	; e44 <_Min_Stack_Size+0xa44>
     f04:	28205841 	stmdacs	r0!, {r0, r6, fp, ip, lr}
     f08:	4e495f5f 	mcrmi	15, 2, r5, cr9, cr15, {2}
     f0c:	5f363154 	svcpl	0x00363154
     f10:	5f58414d 	svcpl	0x0058414d
     f14:	4500295f 	strmi	r2, [r0, #-2399]	; 0xfffff6a1
     f18:	5f495458 	svcpl	0x00495458
     f1c:	454e494c 	strbmi	r4, [lr, #-2380]	; 0xfffff6b4
     f20:	505f3131 	subspl	r3, pc, r1, lsr r1	; <UNPREDICTABLE>
     f24:	20313141 	eorscs	r3, r1, r1, asr #2
     f28:	54584528 	ldrbpl	r4, [r8], #-1320	; 0xfffffad8
     f2c:	50475f49 	subpl	r5, r7, r9, asr #30
     f30:	4d5f4f49 	ldclmi	15, cr4, [pc, #-292]	; e14 <_Min_Stack_Size+0xa14>
     f34:	69707061 	ldmdbvs	r0!, {r0, r5, r6, ip, sp, lr}^
     f38:	745f676e 	ldrbvc	r6, [pc], #-1902	; f40 <_Min_Stack_Size+0xb40>
     f3c:	58457b29 	stmdapl	r5, {r0, r3, r5, r8, r9, fp, ip, sp, lr}^
     f40:	31314954 	teqcc	r1, r4, asr r9
     f44:	5047202c 	subpl	r2, r7, ip, lsr #32
     f48:	2c414f49 	mcrrcs	15, 4, r4, r1, cr9
     f4c:	49504720 	ldmdbmi	r0, {r5, r8, r9, sl, lr}^
     f50:	49505f4f 	ldmdbmi	r0, {r0, r1, r2, r3, r6, r8, r9, sl, fp, ip, lr}^
     f54:	31315f4e 	teqcc	r1, lr, asr #30
     f58:	5845202c 	stmdapl	r5, {r2, r3, r5, sp}^
     f5c:	31314954 	teqcc	r1, r4, asr r9
     f60:	5152495f 	cmppl	r2, pc, asr r9
     f64:	5f5f007d 	svcpl	0x005f007d
     f68:	52464c55 	subpl	r4, r6, #21760	; 0x5500
     f6c:	5f544341 	svcpl	0x00544341
     f70:	54494246 	strbpl	r4, [r9], #-582	; 0xfffffdba
     f74:	33205f5f 			; <UNDEFINED> instruction: 0x33205f5f
     f78:	58450032 	stmdapl	r5, {r1, r4, r5}^
     f7c:	32314954 	eorscc	r4, r1, #84, 18	; 0x150000
     f80:	00323120 	eorseq	r3, r2, r0, lsr #2
     f84:	4349564e 	movtmi	r5, #38478	; 0x964e
     f88:	5152495f 	cmppl	r2, pc, asr r9
     f8c:	58455f38 	stmdapl	r5, {r3, r4, r5, r8, r9, sl, fp, ip, lr}^
     f90:	5f324954 	svcpl	0x00324954
     f94:	62616e45 	rsbvs	r6, r1, #1104	; 0x450
     f98:	2928656c 	stmdbcs	r8!, {r2, r3, r5, r6, r8, sl, sp, lr}
     f9c:	564e2820 	strbpl	r2, [lr], -r0, lsr #16
     fa0:	495f4349 	ldmdbmi	pc, {r0, r3, r6, r8, r9, lr}^	; <UNPREDICTABLE>
     fa4:	30524553 	subscc	r4, r2, r3, asr r5
     fa8:	203d7c20 	eorscs	r7, sp, r0, lsr #24
     fac:	3c3c3128 	ldfccs	f3, [ip], #-160	; 0xffffff60
     fb0:	00292938 	eoreq	r2, r9, r8, lsr r9
     fb4:	4c465f5f 	mcrrmi	15, 5, r5, r6, cr15
     fb8:	5f343654 	svcpl	0x00343654
     fbc:	5f4e494d 	svcpl	0x004e494d
     fc0:	455f3031 	ldrbmi	r3, [pc, #-49]	; f97 <_Min_Stack_Size+0xb97>
     fc4:	5f5f5058 	svcpl	0x005f5058
     fc8:	332d2820 			; <UNDEFINED> instruction: 0x332d2820
     fcc:	00293730 	eoreq	r3, r9, r0, lsr r7
     fd0:	69735f5f 	ldmdbvs	r3!, {r0, r1, r2, r3, r4, r6, r8, r9, sl, fp, ip, lr}^
     fd4:	745f657a 	ldrbvc	r6, [pc], #-1402	; fdc <_Min_Stack_Size+0xbdc>
     fd8:	5f5f0020 	svcpl	0x005f0020
     fdc:	6e756f62 	cdpvs	15, 7, cr6, cr5, cr2, {3}
     fe0:	20646564 	rsbcs	r6, r4, r4, ror #10
     fe4:	695f5f00 	ldmdbvs	pc, {r8, r9, sl, fp, ip, lr}^	; <UNPREDICTABLE>
     fe8:	665f746e 	ldrbvs	r7, [pc], -lr, ror #8
     fec:	33747361 	cmncc	r4, #-2080374783	; 0x84000001
     ff0:	5f745f32 	svcpl	0x00745f32
     ff4:	69666564 	stmdbvs	r6!, {r2, r5, r6, r8, sl, sp, lr}^
     ff8:	2064656e 	rsbcs	r6, r4, lr, ror #10
     ffc:	5f5f0031 	svcpl	0x005f0031
    1000:	5f544e49 	svcpl	0x00544e49
    1004:	54534146 	ldrbpl	r4, [r3], #-326	; 0xfffffeba
    1008:	575f3436 	smmlarpl	pc, r6, r4, r3	; <UNPREDICTABLE>
    100c:	48544449 	ldmdami	r4, {r0, r3, r6, sl, lr}^
    1010:	36205f5f 	qsaxcc	r5, r0, pc	; <UNPREDICTABLE>
    1014:	5f5f0034 	svcpl	0x005f0034
    1018:	746e695f 	strbtvc	r6, [lr], #-2399	; 0xfffff6a1
    101c:	6863775f 	stmdavs	r3!, {r0, r1, r2, r3, r4, r6, r8, r9, sl, ip, sp, lr}^
    1020:	745f7261 	ldrbvc	r7, [pc], #-609	; 1028 <_Min_Stack_Size+0xc28>
    1024:	0020685f 	eoreq	r6, r0, pc, asr r8
    1028:	4f495047 	svcmi	0x00495047
    102c:	4e49505f 	mcrmi	0, 2, r5, cr9, cr15, {2}
    1030:	2820315f 	stmdacs	r0!, {r0, r1, r2, r3, r4, r6, r8, ip, sp}
    1034:	6e697528 	cdpvs	5, 6, cr7, cr9, cr8, {1}
    1038:	5f363174 	svcpl	0x00363174
    103c:	78302974 	ldmdavc	r0!, {r2, r4, r5, r6, r8, fp, sp}
    1040:	32303030 	eorscc	r3, r0, #48	; 0x30
    1044:	6d5f0029 	ldclvs	0, cr0, [pc, #-164]	; fa8 <_Min_Stack_Size+0xba8>
    1048:	00746c75 	rsbseq	r6, r4, r5, ror ip
    104c:	31544e49 	cmpcc	r4, r9, asr #28
    1050:	28435f36 	stmdacs	r3, {r1, r2, r4, r5, r8, r9, sl, fp, ip, lr}^
    1054:	5f202978 	svcpl	0x00202978
    1058:	544e495f 	strbpl	r4, [lr], #-2399	; 0xfffff6a1
    105c:	435f3631 	cmpmi	pc, #51380224	; 0x3100000
    1060:	00297828 	eoreq	r7, r9, r8, lsr #16
    1064:	494f505f 	stmdbmi	pc, {r0, r1, r2, r3, r4, r6, ip, lr}^	; <UNPREDICTABLE>
    1068:	5245544e 	subpl	r5, r5, #1308622848	; 0x4e000000
    106c:	544e495f 	strbpl	r4, [lr], #-2399	; 0xfffff6a1
    1070:	6e6f6c20 	cdpvs	12, 6, cr6, cr15, cr0, {1}
    1074:	5f5f0067 	svcpl	0x005f0067
    1078:	41524653 	cmpmi	r2, r3, asr r6
    107c:	455f5443 	ldrbmi	r5, [pc, #-1091]	; c41 <_Min_Stack_Size+0x841>
    1080:	4c495350 	mcrrmi	3, 5, r5, r9, cr0
    1084:	5f5f4e4f 	svcpl	0x005f4e4f
    1088:	31783020 	cmncc	r8, r0, lsr #32
    108c:	48372d50 	ldmdami	r7!, {r4, r6, r8, sl, fp, sp}
    1090:	5f5f0052 	svcpl	0x005f0052
    1094:	434e4f43 	movtmi	r4, #61251	; 0xef43
    1098:	28315441 	ldmdacs	r1!, {r0, r6, sl, ip, lr}
    109c:	29792c78 	ldmdbcs	r9!, {r3, r4, r5, r6, sl, fp, sp}^
    10a0:	23207820 			; <UNDEFINED> instruction: 0x23207820
    10a4:	00792023 	rsbseq	r2, r9, r3, lsr #32
    10a8:	535f545f 	cmppl	pc, #1593835520	; 0x5f000000
    10ac:	20455a49 	subcs	r5, r5, r9, asr #20
    10b0:	445f5f00 	ldrbmi	r5, [pc], #-3840	; 10b8 <_Min_Stack_Size+0xcb8>
    10b4:	4d5f4c42 	ldclmi	12, cr4, [pc, #-264]	; fb4 <_Min_Stack_Size+0xbb4>
    10b8:	315f4e49 	cmpcc	pc, r9, asr #28
    10bc:	58455f30 	stmdapl	r5, {r4, r5, r8, r9, sl, fp, ip, lr}^
    10c0:	205f5f50 	subscs	r5, pc, r0, asr pc	; <UNPREDICTABLE>
    10c4:	30332d28 	eorscc	r2, r3, r8, lsr #26
    10c8:	5f002937 	svcpl	0x00002937
    10cc:	5153555f 	cmppl	r3, pc, asr r5
    10d0:	4942465f 	stmdbmi	r2, {r0, r1, r2, r3, r4, r6, r9, sl, lr}^
    10d4:	205f5f54 	subscs	r5, pc, r4, asr pc	; <UNPREDICTABLE>
    10d8:	5f003233 	svcpl	0x00003233
    10dc:	44524f5f 	ldrbmi	r4, [r2], #-3935	; 0xfffff0a1
    10e0:	425f5245 	subsmi	r5, pc, #1342177284	; 0x50000004
    10e4:	455f4749 	ldrbmi	r4, [pc, #-1865]	; 9a3 <_Min_Stack_Size+0x5a3>
    10e8:	4149444e 	cmpmi	r9, lr, asr #8
    10ec:	205f5f4e 	subscs	r5, pc, lr, asr #30
    10f0:	31323334 	teqcc	r2, r4, lsr r3
    10f4:	54584500 	ldrbpl	r4, [r8], #-1280	; 0xfffffb00
    10f8:	20343149 	eorscs	r3, r4, r9, asr #2
    10fc:	5f003431 	svcpl	0x00003431
    1100:	5f51535f 	svcpl	0x0051535f
    1104:	54494246 	strbpl	r4, [r9], #-582	; 0xfffffdba
    1108:	33205f5f 			; <UNDEFINED> instruction: 0x33205f5f
    110c:	43570031 	cmpmi	r7, #49	; 0x31
    1110:	5f524148 	svcpl	0x00524148
    1114:	204e494d 	subcs	r4, lr, sp, asr #18
    1118:	575f5f28 	ldrbpl	r5, [pc, -r8, lsr #30]
    111c:	52414843 	subpl	r4, r1, #4390912	; 0x430000
    1120:	4e494d5f 	mcrmi	13, 2, r4, cr9, cr15, {2}
    1124:	00295f5f 	eoreq	r5, r9, pc, asr pc
    1128:	4f495047 	svcmi	0x00495047
    112c:	444f4d5f 	strbmi	r4, [pc], #-3423	; 1134 <_Min_Stack_Size+0xd34>
    1130:	4e495f45 	cdpmi	15, 4, cr5, cr9, cr5, {2}
    1134:	5f545550 	svcpl	0x00545550
    1138:	30204450 	eorcc	r4, r0, r0, asr r4
    113c:	30303078 	eorscc	r3, r0, r8, ror r0
    1140:	30303030 	eorscc	r3, r0, r0, lsr r0
    1144:	49007533 	stmdbmi	r0, {r0, r1, r4, r5, r8, sl, ip, sp, lr}
    1148:	5f38544e 	svcpl	0x0038544e
    114c:	204e494d 	subcs	r4, lr, sp, asr #18
    1150:	5f5f2d28 	svcpl	0x005f2d28
    1154:	38544e49 	ldmdacc	r4, {r0, r3, r6, r9, sl, fp, lr}^
    1158:	58414d5f 	stmdapl	r1, {r0, r1, r2, r3, r4, r6, r8, sl, fp, lr}^
    115c:	2d205f5f 	stccs	15, cr5, [r0, #-380]!	; 0xfffffe84
    1160:	00293120 	eoreq	r3, r9, r0, lsr #2
    1164:	4e49555f 	mcrmi	5, 2, r5, cr9, cr15, {2}
    1168:	5f363154 	svcpl	0x00363154
    116c:	45445f54 	strbmi	r5, [r4, #-3924]	; 0xfffff0ac
    1170:	52414c43 	subpl	r4, r1, #17152	; 0x4300
    1174:	00204445 	eoreq	r4, r0, r5, asr #8
    1178:	52535446 	subspl	r5, r3, #1174405120	; 0x46000000
    117c:	41535500 	cmpmi	r3, r0, lsl #10
    1180:	20335452 	eorscs	r5, r3, r2, asr r4
    1184:	53552828 	cmppl	r5, #40, 16	; 0x280000
    1188:	5f545241 	svcpl	0x00545241
    118c:	65707954 	ldrbvs	r7, [r0, #-2388]!	; 0xfffff6ac
    1190:	20666544 	rsbcs	r6, r6, r4, asr #10
    1194:	5355292a 	cmppl	r5, #688128	; 0xa8000
    1198:	33545241 	cmpcc	r4, #268435460	; 0x10000004
    119c:	5341425f 	movtpl	r4, #4703	; 0x125f
    11a0:	5f002945 	svcpl	0x00002945
    11a4:	5148555f 	cmppl	r8, pc, asr r5
    11a8:	4942465f 	stmdbmi	r2, {r0, r1, r2, r3, r4, r6, r9, sl, lr}^
    11ac:	205f5f54 	subscs	r5, pc, r4, asr pc	; <UNPREDICTABLE>
    11b0:	47003631 	smladxmi	r0, r1, r6, r3
    11b4:	5f4f4950 	svcpl	0x004f4950
    11b8:	5f4e4950 	svcpl	0x004e4950
    11bc:	28282038 	stmdacs	r8!, {r3, r4, r5, sp}
    11c0:	746e6975 	strbtvc	r6, [lr], #-2421	; 0xfffff68b
    11c4:	745f3631 	ldrbvc	r3, [pc], #-1585	; 11cc <_Min_Stack_Size+0xdcc>
    11c8:	30783029 	rsbscc	r3, r8, r9, lsr #32
    11cc:	29303031 	ldmdbcs	r0!, {r0, r4, r5, ip, sp}
    11d0:	544e4900 	strbpl	r4, [lr], #-2304	; 0xfffff700
    11d4:	41454c5f 	cmpmi	r5, pc, asr ip
    11d8:	34365453 	ldrtcc	r5, [r6], #-1107	; 0xfffffbad
    11dc:	58414d5f 	stmdapl	r1, {r0, r1, r2, r3, r4, r6, r8, sl, fp, lr}^
    11e0:	5f5f2820 	svcpl	0x005f2820
    11e4:	5f544e49 	svcpl	0x00544e49
    11e8:	5341454c 	movtpl	r4, #5452	; 0x154c
    11ec:	5f343654 	svcpl	0x00343654
    11f0:	5f58414d 	svcpl	0x0058414d
    11f4:	5f00295f 	svcpl	0x0000295f
    11f8:	544c465f 	strbpl	r4, [ip], #-1631	; 0xfffff9a1
    11fc:	4d5f3436 	cfldrdmi	mvd3, [pc, #-216]	; 112c <_Min_Stack_Size+0xd2c>
    1200:	455f4e49 	ldrbmi	r4, [pc, #-3657]	; 3bf <_Min_Heap_Size+0x1bf>
    1204:	5f5f5058 	svcpl	0x005f5058
    1208:	312d2820 			; <UNDEFINED> instruction: 0x312d2820
    120c:	29313230 	ldmdbcs	r1!, {r4, r5, r9, ip, sp}
    1210:	5a495300 	bpl	1255e18 <_Min_Stack_Size+0x1255a18>
    1214:	414d5f45 	cmpmi	sp, r5, asr #30
    1218:	5f282058 	svcpl	0x00282058
    121c:	5a49535f 	bpl	1255fa0 <_Min_Stack_Size+0x1255ba0>
    1220:	414d5f45 	cmpmi	sp, r5, asr #30
    1224:	295f5f58 	ldmdbcs	pc, {r3, r4, r6, r8, r9, sl, fp, ip, lr}^	; <UNPREDICTABLE>
    1228:	505f5f00 	subspl	r5, pc, r0, lsl #30
    122c:	49445254 	stmdbmi	r4, {r2, r4, r6, r9, ip, lr}^
    1230:	575f4646 	ldrbpl	r4, [pc, -r6, asr #12]
    1234:	48544449 	ldmdami	r4, {r0, r3, r6, sl, lr}^
    1238:	33205f5f 			; <UNDEFINED> instruction: 0x33205f5f
    123c:	5f5f0032 	svcpl	0x005f0032
    1240:	6b616577 	blvs	185a824 <_Min_Stack_Size+0x185a424>
    1244:	6665725f 			; <UNDEFINED> instruction: 0x6665725f
    1248:	6e657265 	cdpvs	2, 6, cr7, cr5, cr5, {3}
    124c:	73286563 			; <UNDEFINED> instruction: 0x73286563
    1250:	612c6d79 			; <UNDEFINED> instruction: 0x612c6d79
    1254:	7361696c 	cmnvc	r1, #108, 18	; 0x1b0000
    1258:	5f5f2029 	svcpl	0x005f2029
    125c:	5f6d7361 	svcpl	0x006d7361
    1260:	2e22285f 	mcrcs	8, 1, r2, cr2, cr15, {2}
    1264:	6b616577 	blvs	185a848 <_Min_Stack_Size+0x185a448>
    1268:	23202220 			; <UNDEFINED> instruction: 0x23202220
    126c:	61696c61 	cmnvs	r9, r1, ror #24
    1270:	203b2973 	eorscs	r2, fp, r3, ror r9
    1274:	73615f5f 	cmnvc	r1, #380	; 0x17c
    1278:	285f5f6d 	ldmdacs	pc, {r0, r2, r3, r5, r6, r8, r9, sl, fp, ip, lr}^	; <UNPREDICTABLE>
    127c:	71652e22 	cmnvc	r5, r2, lsr #28
    1280:	20222075 	eorcs	r2, r2, r5, ror r0
    1284:	696c6123 	stmdbvs	ip!, {r0, r1, r5, r8, sp, lr}^
    1288:	22207361 	eorcs	r7, r0, #-2080374783	; 0x84000001
    128c:	2022202c 	eorcs	r2, r2, ip, lsr #32
    1290:	6d797323 	ldclvs	3, cr7, [r9, #-140]!	; 0xffffff74
    1294:	5f5f0029 	svcpl	0x005f0029
    1298:	544e4955 	strbpl	r4, [lr], #-2389	; 0xfffff6ab
    129c:	5341465f 	movtpl	r4, #5727	; 0x165f
    12a0:	4d5f3854 	ldclmi	8, cr3, [pc, #-336]	; 1158 <_Min_Stack_Size+0xd58>
    12a4:	5f5f5841 	svcpl	0x005f5841
    12a8:	66783020 	ldrbtvs	r3, [r8], -r0, lsr #32
    12ac:	66666666 	strbtvs	r6, [r6], -r6, ror #12
    12b0:	55666666 	strbpl	r6, [r6, #-1638]!	; 0xfffff99a
    12b4:	445f5f00 	ldrbmi	r5, [pc], #-3840	; 12bc <_Min_Stack_Size+0xebc>
    12b8:	32334345 	eorscc	r4, r3, #335544321	; 0x14000001
    12bc:	5350455f 	cmppl	r0, #398458880	; 0x17c00000
    12c0:	4e4f4c49 	cdpmi	12, 4, cr4, cr15, cr9, {2}
    12c4:	31205f5f 			; <UNDEFINED> instruction: 0x31205f5f
    12c8:	44362d45 	ldrtmi	r2, [r6], #-3397	; 0xfffff2bb
    12cc:	5f5f0046 	svcpl	0x005f0046
    12d0:	5f736168 	svcpl	0x00736168
    12d4:	65747865 	ldrbvs	r7, [r4, #-2149]!	; 0xfffff79b
    12d8:	6f69736e 	svcvs	0x0069736e
    12dc:	5f5f206e 	svcpl	0x005f206e
    12e0:	5f736168 	svcpl	0x00736168
    12e4:	74616566 	strbtvc	r6, [r1], #-1382	; 0xfffffa9a
    12e8:	00657275 	rsbeq	r7, r5, r5, ror r2
    12ec:	55424544 	strbpl	r4, [r2, #-1348]	; 0xfffffabc
    12f0:	00312047 	eorseq	r2, r1, r7, asr #32
    12f4:	414c5f5f 	cmpmi	ip, pc, asr pc
    12f8:	4d554343 	ldclmi	3, cr4, [r5, #-268]	; 0xfffffef4
    12fc:	4942495f 	stmdbmi	r2, {r0, r1, r2, r3, r4, r6, r8, fp, lr}^
    1300:	205f5f54 	subscs	r5, pc, r4, asr pc	; <UNPREDICTABLE>
    1304:	45003233 	strmi	r3, [r0, #-563]	; 0xfffffdcd
    1308:	5f495458 	svcpl	0x00495458
    130c:	45534142 	ldrbmi	r4, [r3, #-322]	; 0xfffffebe
    1310:	34783020 	ldrbtcc	r3, [r8], #-32	; 0xffffffe0
    1314:	30313030 	eorscc	r3, r1, r0, lsr r0
    1318:	55303034 	ldrpl	r3, [r0, #-52]!	; 0xffffffcc
    131c:	5f5f004c 	svcpl	0x005f004c
    1320:	746e6975 	strbtvc	r6, [lr], #-2421	; 0xfffff68b
    1324:	00745f38 	rsbseq	r5, r4, r8, lsr pc
    1328:	454e5f5f 	strbmi	r5, [lr, #-3935]	; 0xfffff0a1
    132c:	42494c57 	submi	r4, r9, #22272	; 0x5700
    1330:	5f5f485f 	svcpl	0x005f485f
    1334:	5f003120 	svcpl	0x00003120
    1338:	544e495f 	strbpl	r4, [lr], #-2399	; 0xfffff6a1
    133c:	5341465f 	movtpl	r4, #5727	; 0x165f
    1340:	5f363154 	svcpl	0x00363154
    1344:	54444957 	strbpl	r4, [r4], #-2391	; 0xfffff6a9
    1348:	205f5f48 	subscs	r5, pc, r8, asr #30
    134c:	5f003233 	svcpl	0x00003233
    1350:	5046565f 	subpl	r5, r6, pc, asr r6
    1354:	5f50465f 	svcpl	0x0050465f
    1358:	0031205f 	eorseq	r2, r1, pc, asr r0
    135c:	444c5f5f 	strbmi	r5, [ip], #-3935	; 0xfffff0a1
    1360:	4d5f4c42 	ldclmi	12, cr4, [pc, #-264]	; 1260 <_Min_Stack_Size+0xe60>
    1364:	5f5f5841 	svcpl	0x005f5841
    1368:	372e3120 	strcc	r3, [lr, -r0, lsr #2]!
    136c:	39363739 	ldmdbcc	r6!, {r0, r3, r4, r5, r8, r9, sl, ip, sp}
    1370:	34333133 	ldrtcc	r3, [r3], #-307	; 0xfffffecd
    1374:	33323638 	teqcc	r2, #56, 12	; 0x3800000
    1378:	65373531 	ldrvs	r3, [r7, #-1329]!	; 0xfffffacf
    137c:	3830332b 	ldmdacc	r0!, {r0, r1, r3, r5, r8, r9, ip, sp}
    1380:	5f5f004c 	svcpl	0x005f004c
    1384:	52464c4c 	subpl	r4, r6, #76, 24	; 0x4c00
    1388:	5f544341 	svcpl	0x00544341
    138c:	5f4e494d 	svcpl	0x004e494d
    1390:	2d28205f 	stccs	0, cr2, [r8, #-380]!	; 0xfffffe84
    1394:	4c352e30 	ldcmi	14, cr2, [r5], #-192	; 0xffffff40
    1398:	302d524c 	eorcc	r5, sp, ip, asr #4
    139c:	4c4c352e 	cfstr64mi	mvdx3, [ip], {46}	; 0x2e
    13a0:	5f002952 	svcpl	0x00002952
    13a4:	544e495f 	strbpl	r4, [lr], #-2399	; 0xfffff6a1
    13a8:	5f525450 	svcpl	0x00525450
    13ac:	5f58414d 	svcpl	0x0058414d
    13b0:	7830205f 	ldmdavc	r0!, {r0, r1, r2, r3, r4, r6, sp}
    13b4:	66666637 			; <UNDEFINED> instruction: 0x66666637
    13b8:	66666666 	strbtvs	r6, [r6], -r6, ror #12
    13bc:	69665f00 	stmdbvs	r6!, {r8, r9, sl, fp, ip, lr}^
    13c0:	4500656c 	strmi	r6, [r0, #-1388]	; 0xfffffa94
    13c4:	5f495458 	svcpl	0x00495458
    13c8:	454e494c 	strbmi	r4, [lr, #-2380]	; 0xfffff6b4
    13cc:	43505f39 	cmpmi	r0, #57, 30	; 0xe4
    13d0:	45282039 	strmi	r2, [r8, #-57]!	; 0xffffffc7
    13d4:	5f495458 	svcpl	0x00495458
    13d8:	4f495047 	svcmi	0x00495047
    13dc:	70614d5f 	rsbvc	r4, r1, pc, asr sp
    13e0:	676e6970 			; <UNDEFINED> instruction: 0x676e6970
    13e4:	7b29745f 	blvc	a5e568 <_Min_Stack_Size+0xa5e168>
    13e8:	49545845 	ldmdbmi	r4, {r0, r2, r6, fp, ip, lr}^
    13ec:	47202c39 			; <UNDEFINED> instruction: 0x47202c39
    13f0:	434f4950 	movtmi	r4, #63824	; 0xf950
    13f4:	5047202c 	subpl	r2, r7, ip, lsr #32
    13f8:	505f4f49 	subspl	r4, pc, r9, asr #30
    13fc:	395f4e49 	ldmdbcc	pc, {r0, r3, r6, r9, sl, fp, lr}^	; <UNPREDICTABLE>
    1400:	5845202c 	stmdapl	r5, {r2, r3, r5, sp}^
    1404:	5f394954 	svcpl	0x00394954
    1408:	7d515249 	lfmvc	f5, 2, [r1, #-292]	; 0xfffffedc
    140c:	555f5f00 	ldrbpl	r5, [pc, #-3840]	; 514 <_Min_Stack_Size+0x114>
    1410:	5f544e49 	svcpl	0x00544e49
    1414:	54534146 	ldrbpl	r4, [r3], #-326	; 0xfffffeba
    1418:	4d5f3631 	ldclmi	6, cr3, [pc, #-196]	; 135c <_Min_Stack_Size+0xf5c>
    141c:	5f5f5841 	svcpl	0x005f5841
    1420:	66783020 	ldrbtvs	r3, [r8], -r0, lsr #32
    1424:	66666666 	strbtvs	r6, [r6], -r6, ror #12
    1428:	55666666 	strbpl	r6, [r6, #-1638]!	; 0xfffff99a
    142c:	544e4900 	strbpl	r4, [lr], #-2304	; 0xfffff700
    1430:	41454c5f 	cmpmi	r5, pc, asr ip
    1434:	34365453 	ldrtcc	r5, [r6], #-1107	; 0xfffffbad
    1438:	4e494d5f 	mcrmi	13, 2, r4, cr9, cr15, {2}
    143c:	5f2d2820 	svcpl	0x002d2820
    1440:	544e495f 	strbpl	r4, [lr], #-2399	; 0xfffff6a1
    1444:	41454c5f 	cmpmi	r5, pc, asr ip
    1448:	34365453 	ldrtcc	r5, [r6], #-1107	; 0xfffffbad
    144c:	58414d5f 	stmdapl	r1, {r0, r1, r2, r3, r4, r6, r8, sl, fp, lr}^
    1450:	2d205f5f 	stccs	15, cr5, [r0, #-380]!	; 0xfffffe84
    1454:	00293120 	eoreq	r3, r9, r0, lsr #2
    1458:	5f6e6f5f 	svcpl	0x006e6f5f
    145c:	74697865 	strbtvc	r7, [r9], #-2149	; 0xfffff79b
    1460:	6772615f 			; <UNDEFINED> instruction: 0x6772615f
    1464:	5f5f0073 	svcpl	0x005f0073
    1468:	43554e47 	cmpmi	r5, #1136	; 0x470
    146c:	454b494c 	strbmi	r4, [fp, #-2380]	; 0xfffff6b4
    1470:	4955425f 	ldmdbmi	r5, {r0, r1, r2, r3, r4, r6, r9, lr}^
    1474:	4e49544c 	cdpmi	4, 4, cr5, cr9, cr12, {2}
    1478:	4e4f435f 	mcrmi	3, 2, r4, cr15, cr15, {2}
    147c:	4e415453 	mcrmi	4, 2, r5, cr1, cr3, {2}
    1480:	20505f54 	subscs	r5, r0, r4, asr pc
    1484:	525f0031 	subspl	r0, pc, #49	; 0x31
    1488:	544e4545 	strbpl	r4, [lr], #-1349	; 0xfffffabb
    148c:	4548435f 	strbmi	r4, [r8, #-863]	; 0xfffffca1
    1490:	76284b43 	strtvc	r4, [r8], -r3, asr #22
    1494:	772c7261 	strvc	r7, [ip, -r1, ror #4]!
    1498:	2c746168 	ldfcse	f6, [r4], #-416	; 0xfffffe60
    149c:	65707974 	ldrbvs	r7, [r0, #-2420]!	; 0xfffff68c
    14a0:	7a69732c 	bvc	1a5e158 <_Min_Stack_Size+0x1a5dd58>
    14a4:	6e692c65 	cdpvs	12, 6, cr2, cr9, cr5, {3}
    14a8:	20297469 	eorcs	r7, r9, r9, ror #8
    14ac:	7b206f64 	blvc	81d244 <_Min_Stack_Size+0x81ce44>
    14b0:	72747320 	rsbsvc	r7, r4, #32, 6	; 0x80000000
    14b4:	20746375 	rsbscs	r6, r4, r5, ror r3
    14b8:	6565725f 	strbvs	r7, [r5, #-607]!	; 0xfffffda1
    14bc:	2a20746e 	bcs	81e67c <_Min_Stack_Size+0x81e27c>
    14c0:	3d20725f 	sfmcc	f7, 4, [r0, #-380]!	; 0xfffffe84
    14c4:	61762820 	cmnvs	r6, r0, lsr #16
    14c8:	203b2972 	eorscs	r2, fp, r2, ror r9
    14cc:	28206669 	stmdacs	r0!, {r0, r3, r5, r6, r9, sl, sp, lr}
    14d0:	3e2d725f 	mcrcc	2, 1, r7, cr13, cr15, {2}
    14d4:	74616877 	strbtvc	r6, [r1], #-2167	; 0xfffff789
    14d8:	203d3d20 	eorscs	r3, sp, r0, lsr #26
    14dc:	4c4c554e 	cfstr64mi	mvdx5, [ip], {78}	; 0x4e
    14e0:	207b2029 	rsbscs	r2, fp, r9, lsr #32
    14e4:	3e2d725f 	mcrcc	2, 1, r7, cr13, cr15, {2}
    14e8:	74616877 	strbtvc	r6, [r1], #-2167	; 0xfffff789
    14ec:	28203d20 	stmdacs	r0!, {r5, r8, sl, fp, ip, sp}
    14f0:	65707974 	ldrbvs	r7, [r0, #-2420]!	; 0xfffff68c
    14f4:	6c616d29 	stclvs	13, cr6, [r1], #-164	; 0xffffff5c
    14f8:	28636f6c 	stmdacs	r3!, {r2, r3, r5, r6, r8, r9, sl, fp, sp, lr}^
    14fc:	657a6973 	ldrbvs	r6, [sl, #-2419]!	; 0xfffff68d
    1500:	5f203b29 	svcpl	0x00203b29
    1504:	6565725f 	strbvs	r7, [r5, #-607]!	; 0xfffffda1
    1508:	615f746e 	cmpvs	pc, lr, ror #8
    150c:	72657373 	rsbvc	r7, r5, #-872415231	; 0xcc000001
    1510:	725f2874 	subsvc	r2, pc, #116, 16	; 0x740000
    1514:	68773e2d 	ldmdavs	r7!, {r0, r2, r3, r5, r9, sl, fp, ip, sp}^
    1518:	3b297461 	blcc	a5e6a4 <_Min_Stack_Size+0xa5e2a4>
    151c:	696e6920 	stmdbvs	lr!, {r5, r8, fp, sp, lr}^
    1520:	7d203b74 	vstmdbvc	r0!, {d3-<overflow reg d60>}
    1524:	77207d20 	strvc	r7, [r0, -r0, lsr #26]!
    1528:	656c6968 	strbvs	r6, [ip, #-2408]!	; 0xfffff698
    152c:	29302820 	ldmdbcs	r0!, {r5, fp, sp}
    1530:	6f4e5f00 	svcvs	0x004e5f00
    1534:	6c756e6e 	ldclvs	14, cr6, [r5], #-440	; 0xfffffe48
    1538:	5f00206c 	svcpl	0x0000206c
    153c:	6863775f 	stmdavs	r3!, {r0, r1, r2, r3, r4, r6, r8, r9, sl, ip, sp, lr}^
    1540:	475f5f00 	ldrbmi	r5, [pc, -r0, lsl #30]
    1544:	5f43554e 	svcpl	0x0043554e
    1548:	52455250 	subpl	r5, r5, #80, 4
    154c:	6d285145 	stfvss	f5, [r8, #-276]!	; 0xfffffeec
    1550:	6d2c6a61 	vstmdbvs	ip!, {s12-s108}
    1554:	20296e69 	eorcs	r6, r9, r9, ror #28
    1558:	5f5f2828 	svcpl	0x005f2828
    155c:	43554e47 	cmpmi	r5, #1136	; 0x470
    1560:	3c205f5f 	stccc	15, cr5, [r0], #-380	; 0xfffffe84
    1564:	3631203c 			; <UNDEFINED> instruction: 0x3631203c
    1568:	202b2029 	eorcs	r2, fp, r9, lsr #32
    156c:	4e475f5f 	mcrmi	15, 2, r5, cr7, cr15, {2}
    1570:	4d5f4355 	ldclmi	3, cr4, [pc, #-340]	; 1424 <_Min_Stack_Size+0x1024>
    1574:	524f4e49 	subpl	r4, pc, #1168	; 0x490
    1578:	3e205f5f 	mcrcc	15, 1, r5, cr0, cr15, {2}
    157c:	2828203d 	stmdacs	r8!, {r0, r2, r3, r4, r5, sp}
    1580:	296a616d 	stmdbcs	sl!, {r0, r2, r3, r5, r6, r8, sp, lr}^
    1584:	203c3c20 	eorscs	r3, ip, r0, lsr #24
    1588:	20293631 	eorcs	r3, r9, r1, lsr r6
    158c:	6d28202b 	stcvs	0, cr2, [r8, #-172]!	; 0xffffff54
    1590:	29296e69 	stmdbcs	r9!, {r0, r3, r5, r6, r9, sl, fp, sp, lr}
    1594:	5f545f00 	svcpl	0x00545f00
    1598:	41484357 	cmpmi	r8, r7, asr r3
    159c:	5f002052 	svcpl	0x00002052
    15a0:	50544e49 	subspl	r4, r4, r9, asr #28
    15a4:	545f5254 	ldrbpl	r5, [pc], #-596	; 15ac <_Min_Stack_Size+0x11ac>
    15a8:	4345445f 	movtmi	r4, #21599	; 0x545f
    15ac:	4552414c 	ldrbmi	r4, [r2, #-332]	; 0xfffffeb4
    15b0:	5f002044 	svcpl	0x00002044
    15b4:	544c465f 	strbpl	r4, [ip], #-1631	; 0xfffff9a1
    15b8:	5f583233 	svcpl	0x00583233
    15bc:	5f534148 	svcpl	0x00534148
    15c0:	49464e49 	stmdbmi	r6, {r0, r3, r6, r9, sl, fp, lr}^
    15c4:	5954494e 	ldmdbpl	r4, {r1, r2, r3, r6, r8, fp, lr}^
    15c8:	31205f5f 			; <UNDEFINED> instruction: 0x31205f5f
    15cc:	544e4900 	strbpl	r4, [lr], #-2304	; 0xfffff700
    15d0:	5341465f 	movtpl	r4, #5727	; 0x165f
    15d4:	5f323354 	svcpl	0x00323354
    15d8:	204e494d 	subcs	r4, lr, sp, asr #18
    15dc:	5f5f2d28 	svcpl	0x005f2d28
    15e0:	5f544e49 	svcpl	0x00544e49
    15e4:	54534146 	ldrbpl	r4, [r3], #-326	; 0xfffffeba
    15e8:	4d5f3233 	lfmmi	f3, 2, [pc, #-204]	; 1524 <_Min_Stack_Size+0x1124>
    15ec:	5f5f5841 	svcpl	0x005f5841
    15f0:	31202d20 			; <UNDEFINED> instruction: 0x31202d20
    15f4:	535f0029 	cmppl	pc, #41	; 0x29
    15f8:	535f5359 	cmppl	pc, #1677721601	; 0x64000001
    15fc:	5f455a49 	svcpl	0x00455a49
    1600:	20485f54 	subcs	r5, r8, r4, asr pc
    1604:	49564e00 	ldmdbmi	r6, {r9, sl, fp, lr}^
    1608:	52495f43 	subpl	r5, r9, #268	; 0x10c
    160c:	455f3951 	ldrbmi	r3, [pc, #-2385]	; cc3 <_Min_Stack_Size+0x8c3>
    1610:	33495458 	movtcc	r5, #37976	; 0x9458
    1614:	7369445f 	cmnvc	r9, #1593835520	; 0x5f000000
    1618:	656c6261 	strbvs	r6, [ip, #-609]!	; 0xfffffd9f
    161c:	28202928 	stmdacs	r0!, {r3, r5, r8, fp, sp}
    1620:	4349564e 	movtmi	r5, #38478	; 0x964e
    1624:	4543495f 	strbmi	r4, [r3, #-2399]	; 0xfffff6a1
    1628:	7c203052 	stcvc	0, cr3, [r0], #-328	; 0xfffffeb8
    162c:	3128203d 			; <UNDEFINED> instruction: 0x3128203d
    1630:	29393c3c 	ldmdbcs	r9!, {r2, r3, r4, r5, sl, fp, ip, sp}
    1634:	5f5f0029 	svcpl	0x005f0029
    1638:	544e4955 	strbpl	r4, [lr], #-2389	; 0xfffff6ab
    163c:	41454c5f 	cmpmi	r5, pc, asr ip
    1640:	5f385453 	svcpl	0x00385453
    1644:	45505954 	ldrbmi	r5, [r0, #-2388]	; 0xfffff6ac
    1648:	75205f5f 	strvc	r5, [r0, #-3935]!	; 0xfffff0a1
    164c:	6769736e 	strbvs	r7, [r9, -lr, ror #6]!
    1650:	2064656e 	rsbcs	r6, r4, lr, ror #10
    1654:	72616863 	rsbvc	r6, r1, #6488064	; 0x630000
    1658:	415f5f00 	cmpmi	pc, r0, lsl #30
    165c:	4c494654 	mcrrmi	6, 5, r4, r9, cr4
    1660:	49565f45 	ldmdbmi	r6, {r0, r2, r6, r8, r9, sl, fp, ip, lr}^
    1664:	4c424953 	mcrrmi	9, 5, r4, r2, cr3	; <UNPREDICTABLE>
    1668:	00312045 	eorseq	r2, r1, r5, asr #32
    166c:	49545845 	ldmdbmi	r4, {r0, r2, r6, fp, ip, lr}^
    1670:	4e494c5f 	mcrmi	12, 2, r4, cr9, cr15, {2}
    1674:	505f3745 	subspl	r3, pc, r5, asr #14
    1678:	28203742 	stmdacs	r0!, {r1, r6, r8, r9, sl, ip, sp}
    167c:	49545845 	ldmdbmi	r4, {r0, r2, r6, fp, ip, lr}^
    1680:	4950475f 	ldmdbmi	r0, {r0, r1, r2, r3, r4, r6, r8, r9, sl, lr}^
    1684:	614d5f4f 	cmpvs	sp, pc, asr #30
    1688:	6e697070 	mcrvs	0, 3, r7, cr9, cr0, {3}
    168c:	29745f67 	ldmdbcs	r4!, {r0, r1, r2, r5, r6, r8, r9, sl, fp, ip, lr}^
    1690:	5458457b 	ldrbpl	r4, [r8], #-1403	; 0xfffffa85
    1694:	202c3749 	eorcs	r3, ip, r9, asr #14
    1698:	4f495047 	svcmi	0x00495047
    169c:	47202c42 	strmi	r2, [r0, -r2, asr #24]!
    16a0:	5f4f4950 	svcpl	0x004f4950
    16a4:	5f4e4950 	svcpl	0x004e4950
    16a8:	45202c37 	strmi	r2, [r0, #-3127]!	; 0xfffff3c9
    16ac:	37495458 	smlsldcc	r5, r9, r8, r4
    16b0:	5152495f 	cmppl	r2, pc, asr r9
    16b4:	5f5f007d 	svcpl	0x005f007d
    16b8:	55434341 	strbpl	r4, [r3, #-833]	; 0xfffffcbf
    16bc:	42465f4d 	submi	r5, r6, #308	; 0x134
    16c0:	5f5f5449 	svcpl	0x005f5449
    16c4:	00353120 	eorseq	r3, r5, r0, lsr #2
    16c8:	49545845 	ldmdbmi	r4, {r0, r2, r6, fp, ip, lr}^
    16cc:	4e494c5f 	mcrmi	12, 2, r4, cr9, cr15, {2}
    16d0:	5f333145 	svcpl	0x00333145
    16d4:	33314250 	teqcc	r1, #80, 4
    16d8:	58452820 	stmdapl	r5, {r5, fp, sp}^
    16dc:	475f4954 			; <UNDEFINED> instruction: 0x475f4954
    16e0:	5f4f4950 	svcpl	0x004f4950
    16e4:	7070614d 	rsbsvc	r6, r0, sp, asr #2
    16e8:	5f676e69 	svcpl	0x00676e69
    16ec:	457b2974 	ldrbmi	r2, [fp, #-2420]!	; 0xfffff68c
    16f0:	31495458 	cmpcc	r9, r8, asr r4
    16f4:	47202c33 			; <UNDEFINED> instruction: 0x47202c33
    16f8:	424f4950 	submi	r4, pc, #80, 18	; 0x140000
    16fc:	5047202c 	subpl	r2, r7, ip, lsr #32
    1700:	505f4f49 	subspl	r4, pc, r9, asr #30
    1704:	315f4e49 	cmpcc	pc, r9, asr #28
    1708:	45202c33 	strmi	r2, [r0, #-3123]!	; 0xfffff3cd
    170c:	31495458 	cmpcc	r9, r8, asr r4
    1710:	52495f33 	subpl	r5, r9, #51, 30	; 0xcc
    1714:	5f007d51 	svcpl	0x00007d51
    1718:	6c72626d 	lfmvs	f6, 2, [r2], #-436	; 0xfffffe4c
    171c:	735f6e65 	cmpvc	pc, #1616	; 0x650
    1720:	65746174 	ldrbvs	r6, [r4, #-372]!	; 0xfffffe8c
    1724:	49504700 	ldmdbmi	r0, {r8, r9, sl, lr}^
    1728:	49505f4f 	ldmdbmi	r0, {r0, r1, r2, r3, r6, r8, r9, sl, fp, ip, lr}^
    172c:	20305f4e 	eorscs	r5, r0, lr, asr #30
    1730:	69752828 	ldmdbvs	r5!, {r3, r5, fp, sp}^
    1734:	3631746e 	ldrtcc	r7, [r1], -lr, ror #8
    1738:	3029745f 	eorcc	r7, r9, pc, asr r4
    173c:	30303078 	eorscc	r3, r0, r8, ror r0
    1740:	5f002931 	svcpl	0x00002931
    1744:	544e495f 	strbpl	r4, [lr], #-2399	; 0xfffff6a1
    1748:	5341465f 	movtpl	r4, #5727	; 0x165f
    174c:	5f343654 	svcpl	0x00343654
    1750:	5f58414d 	svcpl	0x0058414d
    1754:	7830205f 	ldmdavc	r0!, {r0, r1, r2, r3, r4, r6, sp}
    1758:	66666637 			; <UNDEFINED> instruction: 0x66666637
    175c:	66666666 	strbtvs	r6, [r6], -r6, ror #12
    1760:	66666666 	strbtvs	r6, [r6], -r6, ror #12
    1764:	66666666 	strbtvs	r6, [r6], -r6, ror #12
    1768:	5f004c4c 	svcpl	0x00004c4c
    176c:	544c465f 	strbpl	r4, [ip], #-1631	; 0xfffff9a1
    1770:	5f583233 	svcpl	0x00583233
    1774:	49434544 	stmdbmi	r3, {r2, r6, r8, sl, lr}^
    1778:	5f4c414d 	svcpl	0x004c414d
    177c:	5f474944 	svcpl	0x00474944
    1780:	3731205f 			; <UNDEFINED> instruction: 0x3731205f
    1784:	65725f00 	ldrbvs	r5, [r2, #-3840]!	; 0xfffff100
    1788:	746c7573 	strbtvc	r7, [ip], #-1395	; 0xfffffa8d
    178c:	5f006b5f 	svcpl	0x00006b5f
    1790:	544c465f 	strbpl	r4, [ip], #-1631	; 0xfffff9a1
    1794:	5f583233 	svcpl	0x00583233
    1798:	5f534148 	svcpl	0x00534148
    179c:	45495551 	strbmi	r5, [r9, #-1361]	; 0xfffffaaf
    17a0:	414e5f54 	cmpmi	lr, r4, asr pc
    17a4:	205f5f4e 	subscs	r5, pc, lr, asr #30
    17a8:	70550031 	subsvc	r0, r5, r1, lsr r0
    17ac:	65746164 	ldrbvs	r6, [r4, #-356]!	; 0xfffffe9c
    17b0:	5458455f 	ldrbpl	r4, [r8], #-1375	; 0xfffffaa1
    17b4:	5f5f0049 	svcpl	0x005f0049
    17b8:	33544c46 	cmpcc	r4, #17920	; 0x4600
    17bc:	455f5832 	ldrbmi	r5, [pc, #-2098]	; f92 <_Min_Stack_Size+0xb92>
    17c0:	4c495350 	mcrrmi	3, 5, r5, r9, cr0
    17c4:	5f5f4e4f 	svcpl	0x005f4e4f
    17c8:	322e3220 	eorcc	r3, lr, #32, 4
    17cc:	34343032 	ldrtcc	r3, [r4], #-50	; 0xffffffce
    17d0:	39343036 	ldmdbcc	r4!, {r1, r2, r4, r5, ip, sp}
    17d4:	33303532 	teqcc	r0, #209715200	; 0xc800000
    17d8:	65313331 	ldrvs	r3, [r1, #-817]!	; 0xfffffccf
    17dc:	4636312d 	ldrtmi	r3, [r6], -sp, lsr #2
    17e0:	00783233 	rsbseq	r3, r8, r3, lsr r2
    17e4:	695f5f5f 	ldmdbvs	pc, {r0, r1, r2, r3, r4, r6, r8, r9, sl, fp, ip, lr}^	; <UNPREDICTABLE>
    17e8:	6c5f746e 	cfldrdvs	mvd7, [pc], {110}	; 0x6e
    17ec:	74736165 	ldrbtvc	r6, [r3], #-357	; 0xfffffe9b
    17f0:	745f3631 	ldrbvc	r3, [pc], #-1585	; 17f8 <_Min_Stack_Size+0x13f8>
    17f4:	6665645f 			; <UNDEFINED> instruction: 0x6665645f
    17f8:	64656e69 	strbtvs	r6, [r5], #-3689	; 0xfffff197
    17fc:	5f003120 	svcpl	0x00003120
    1800:	4d52415f 	ldfmie	f4, [r2, #-380]	; 0xfffffe84
    1804:	4352415f 	cmpmi	r2, #-1073741801	; 0xc0000017
    1808:	4d375f48 	ldcmi	15, cr5, [r7, #-288]!	; 0xfffffee0
    180c:	31205f5f 			; <UNDEFINED> instruction: 0x31205f5f
    1810:	445f5f00 	ldrbmi	r5, [pc], #-3840	; 1818 <_Min_Stack_Size+0x1418>
    1814:	32314345 	eorscc	r4, r1, #335544321	; 0x14000001
    1818:	494d5f38 	stmdbmi	sp, {r3, r4, r5, r8, r9, sl, fp, ip, lr}^
    181c:	58455f4e 	stmdapl	r5, {r1, r2, r3, r6, r8, r9, sl, fp, ip, lr}^
    1820:	205f5f50 	subscs	r5, pc, r0, asr pc	; <UNPREDICTABLE>
    1824:	31362d28 	teqcc	r6, r8, lsr #26
    1828:	00293234 	eoreq	r3, r9, r4, lsr r2
    182c:	4e495f5f 	mcrmi	15, 2, r5, cr9, cr15, {2}
    1830:	41465f54 	cmpmi	r6, r4, asr pc
    1834:	5f385453 	svcpl	0x00385453
    1838:	45505954 	ldrbmi	r5, [r0, #-2388]	; 0xfffff6ac
    183c:	69205f5f 	stmdbvs	r0!, {r0, r1, r2, r3, r4, r6, r8, r9, sl, fp, ip, lr}
    1840:	5f00746e 	svcpl	0x0000746e
    1844:	4e494f4e 	cdpmi	15, 4, cr4, cr9, cr14, {2}
    1848:	454e494c 	strbmi	r4, [lr, #-2380]	; 0xfffff6b4
    184c:	615f5f20 	cmpvs	pc, r0, lsr #30
    1850:	69727474 	ldmdbvs	r2!, {r2, r4, r5, r6, sl, ip, sp, lr}^
    1854:	65747562 	ldrbvs	r7, [r4, #-1378]!	; 0xfffffa9e
    1858:	28205f5f 	stmdacs	r0!, {r0, r1, r2, r3, r4, r6, r8, r9, sl, fp, ip, lr}
    185c:	6e5f5f28 	cdpvs	15, 5, cr5, cr15, cr8, {1}
    1860:	6c6e696f 			; <UNDEFINED> instruction: 0x6c6e696f
    1864:	5f656e69 	svcpl	0x00656e69
    1868:	0029295f 	eoreq	r2, r9, pc, asr r9
    186c:	69735f5f 	ldmdbvs	r3!, {r0, r1, r2, r3, r4, r6, r8, r9, sl, fp, ip, lr}^
    1870:	745f657a 	ldrbvc	r6, [pc], #-1402	; 1878 <_Min_Stack_Size+0x1478>
    1874:	00205f5f 	eoreq	r5, r0, pc, asr pc
    1878:	53555f5f 	cmppl	r5, #380	; 0x17c
    187c:	55434341 	strbpl	r4, [r3, #-833]	; 0xfffffcbf
    1880:	50455f4d 	subpl	r5, r5, sp, asr #30
    1884:	4f4c4953 	svcmi	0x004c4953
    1888:	205f5f4e 	subscs	r5, pc, lr, asr #30
    188c:	50317830 	eorspl	r7, r1, r0, lsr r8
    1890:	4855382d 	ldmdami	r5, {r0, r2, r3, r5, fp, ip, sp}^
    1894:	5f5f004b 	svcpl	0x005f004b
    1898:	544e4955 	strbpl	r4, [lr], #-2389	; 0xfffff6ab
    189c:	5f58414d 	svcpl	0x0058414d
    18a0:	29632843 	stmdbcs	r3!, {r0, r1, r6, fp, sp}^
    18a4:	23206320 			; <UNDEFINED> instruction: 0x23206320
    18a8:	4c552023 	mrrcmi	0, 2, r2, r5, cr3
    18ac:	5f5f004c 	svcpl	0x005f004c
    18b0:	455a4953 	ldrbmi	r4, [sl, #-2387]	; 0xfffff6ad
    18b4:	505f464f 	subspl	r4, pc, pc, asr #12
    18b8:	544e494f 	strbpl	r4, [lr], #-2383	; 0xfffff6b1
    18bc:	5f5f5245 	svcpl	0x005f5245
    18c0:	5f003420 	svcpl	0x00003420
    18c4:	544e495f 	strbpl	r4, [lr], #-2399	; 0xfffff6a1
    18c8:	41454c5f 	cmpmi	r5, pc, asr ip
    18cc:	5f385453 	svcpl	0x00385453
    18d0:	45505954 	ldrbmi	r5, [r0, #-2388]	; 0xfffff6ac
    18d4:	73205f5f 			; <UNDEFINED> instruction: 0x73205f5f
    18d8:	656e6769 	strbvs	r6, [lr, #-1897]!	; 0xfffff897
    18dc:	68632064 	stmdavs	r3!, {r2, r5, r6, sp}^
    18e0:	5f007261 	svcpl	0x00007261
    18e4:	61636f6c 	cmnvs	r3, ip, ror #30
    18e8:	6d69746c 	cfstrdvs	mvd7, [r9, #-432]!	; 0xfffffe50
    18ec:	75625f65 	strbvc	r5, [r2, #-3941]!	; 0xfffff09b
    18f0:	5f5f0066 	svcpl	0x005f0066
    18f4:	5f434347 	svcpl	0x00434347
    18f8:	4d4f5441 	cfstrdmi	mvd5, [pc, #-260]	; 17fc <_Min_Stack_Size+0x13fc>
    18fc:	425f4349 	subsmi	r4, pc, #603979777	; 0x24000001
    1900:	5f4c4f4f 	svcpl	0x004c4f4f
    1904:	4b434f4c 	blmi	10d563c <_Min_Stack_Size+0x10d523c>
    1908:	4552465f 	ldrbmi	r4, [r2, #-1631]	; 0xfffff9a1
    190c:	00322045 	eorseq	r2, r2, r5, asr #32
    1910:	695f5f5f 	ldmdbvs	pc, {r0, r1, r2, r3, r4, r6, r8, r9, sl, fp, ip, lr}^	; <UNPREDICTABLE>
    1914:	3436746e 	ldrtcc	r7, [r6], #-1134	; 0xfffffb92
    1918:	645f745f 	ldrbvs	r7, [pc], #-1119	; 1920 <_Min_Stack_Size+0x1520>
    191c:	6e696665 	cdpvs	6, 6, cr6, cr9, cr5, {3}
    1920:	31206465 			; <UNDEFINED> instruction: 0x31206465
    1924:	43435200 	movtmi	r5, #12800	; 0x3200
    1928:	4950475f 	ldmdbmi	r0, {r0, r1, r2, r3, r4, r6, r8, r9, sl, lr}^
    192c:	435f454f 	cmpmi	pc, #331350016	; 0x13c00000
    1930:	455f4b4c 	ldrbmi	r4, [pc, #-2892]	; dec <_Min_Stack_Size+0x9ec>
    1934:	2029284e 	eorcs	r2, r9, lr, asr #16
    1938:	43435228 	movtmi	r5, #12840	; 0x3228
    193c:	50413e2d 	subpl	r3, r1, sp, lsr #28
    1940:	4e453242 	cdpmi	2, 4, cr3, cr5, cr2, {2}
    1944:	3d7c2052 	ldclcc	0, cr2, [ip, #-328]!	; 0xfffffeb8
    1948:	3c312820 	ldccc	8, cr2, [r1], #-128	; 0xffffff80
    194c:	2929363c 	stmdbcs	r9!, {r2, r3, r4, r5, r9, sl, ip, sp}
    1950:	415f5f00 	cmpmi	pc, r0, lsl #30
    1954:	4e5f4d52 	mrcmi	13, 2, r4, cr15, cr2, {2}
    1958:	5f4e4f45 	svcpl	0x004e4f45
    195c:	4955005f 	ldmdbmi	r5, {r0, r1, r2, r3, r4, r6}^
    1960:	5450544e 	ldrbpl	r5, [r0], #-1102	; 0xfffffbb2
    1964:	414d5f52 	cmpmi	sp, r2, asr pc
    1968:	5f282058 	svcpl	0x00282058
    196c:	4e49555f 	mcrmi	5, 2, r5, cr9, cr15, {2}
    1970:	52545054 	subspl	r5, r4, #84	; 0x54
    1974:	58414d5f 	stmdapl	r1, {r0, r1, r2, r3, r4, r6, r8, sl, fp, lr}^
    1978:	00295f5f 	eoreq	r5, r9, pc, asr pc
    197c:	4c465f5f 	mcrrmi	15, 5, r5, r6, cr15
    1980:	5f323354 	svcpl	0x00323354
    1984:	5f58414d 	svcpl	0x0058414d
    1988:	5f505845 	svcpl	0x00505845
    198c:	3231205f 	eorscc	r2, r1, #95	; 0x5f
    1990:	5f5f0038 	svcpl	0x005f0038
    1994:	465f4154 			; <UNDEFINED> instruction: 0x465f4154
    1998:	5f544942 	svcpl	0x00544942
    199c:	3336205f 	teqcc	r6, #95	; 0x5f
    19a0:	545f5f00 	ldrbpl	r5, [pc], #-3840	; 19a8 <_Min_Stack_Size+0x15a8>
    19a4:	424d5548 	submi	r5, sp, #72, 10	; 0x12000000
    19a8:	544e495f 	strbpl	r4, [lr], #-2399	; 0xfffff6a1
    19ac:	4f575245 	svcmi	0x00575245
    19b0:	5f5f4b52 	svcpl	0x005f4b52
    19b4:	5f003120 	svcpl	0x00003120
    19b8:	4c4c555f 	cfstr64mi	mvdx5, [ip], {95}	; 0x5f
    19bc:	43415246 	movtmi	r5, #4678	; 0x1246
    19c0:	414d5f54 	cmpmi	sp, r4, asr pc
    19c4:	205f5f58 	subscs	r5, pc, r8, asr pc	; <UNPREDICTABLE>
    19c8:	46465830 			; <UNDEFINED> instruction: 0x46465830
    19cc:	46464646 	strbmi	r4, [r6], -r6, asr #12
    19d0:	46464646 	strbmi	r4, [r6], -r6, asr #12
    19d4:	46464646 	strbmi	r4, [r6], -r6, asr #12
    19d8:	2d504646 	ldclcs	6, cr4, [r0, #-280]	; 0xfffffee8
    19dc:	4c553436 	cfldrdmi	mvd3, [r5], {54}	; 0x36
    19e0:	5200524c 	andpl	r5, r0, #76, 4	; 0xc0000004
    19e4:	555f4343 	ldrbpl	r4, [pc, #-835]	; 16a9 <_Min_Stack_Size+0x12a9>
    19e8:	54524153 	ldrbpl	r4, [r2], #-339	; 0xfffffead
    19ec:	4c435f31 	mcrrmi	15, 3, r5, r3, cr1
    19f0:	65525f4b 	ldrbvs	r5, [r2, #-3915]	; 0xfffff0b5
    19f4:	28746573 	ldmdacs	r4!, {r0, r1, r4, r5, r6, r8, sl, sp, lr}^
    19f8:	52282029 	eorpl	r2, r8, #41	; 0x29
    19fc:	3e2d4343 	cdpcc	3, 2, cr4, cr13, cr3, {2}
    1a00:	32425041 	subcc	r5, r2, #65	; 0x41
    1a04:	52545352 	subspl	r5, r4, #1207959553	; 0x48000001
    1a08:	203d7c20 	eorscs	r7, sp, r0, lsr #24
    1a0c:	3c3c3128 	ldfccs	f3, [ip], #-160	; 0xffffff60
    1a10:	29293431 	stmdbcs	r9!, {r0, r4, r5, sl, ip, sp}
    1a14:	6e665f00 	cdpvs	15, 6, cr5, cr6, cr0, {0}
    1a18:	65707974 	ldrbvs	r7, [r0, #-2420]!	; 0xfffff68c
    1a1c:	54520073 	ldrbpl	r0, [r2], #-115	; 0xffffff8d
    1a20:	5f005253 	svcpl	0x00005253
    1a24:	6e695f5f 	mcrvs	15, 3, r5, cr9, cr15, {2}
    1a28:	74705f74 	ldrbtvc	r5, [r0], #-3956	; 0xfffff08c
    1a2c:	66696472 			; <UNDEFINED> instruction: 0x66696472
    1a30:	5f745f66 	svcpl	0x00745f66
    1a34:	5f002068 	svcpl	0x00002068
    1a38:	455a4953 	ldrbmi	r4, [sl, #-2387]	; 0xfffff6ad
    1a3c:	445f545f 	ldrbmi	r5, [pc], #-1119	; 1a44 <_Min_Stack_Size+0x1644>
    1a40:	414c4345 	cmpmi	ip, r5, asr #6
    1a44:	20444552 	subcs	r4, r4, r2, asr r5
    1a48:	54584500 	ldrbpl	r4, [r8], #-1280	; 0xfffffb00
    1a4c:	494c5f49 	stmdbmi	ip, {r0, r3, r6, r8, r9, sl, fp, ip, lr}^
    1a50:	3031454e 	eorscc	r4, r1, lr, asr #10
    1a54:	3144505f 	qdaddcc	r5, pc, r4	; <UNPREDICTABLE>
    1a58:	45282030 	strmi	r2, [r8, #-48]!	; 0xffffffd0
    1a5c:	5f495458 	svcpl	0x00495458
    1a60:	4f495047 	svcmi	0x00495047
    1a64:	70614d5f 	rsbvc	r4, r1, pc, asr sp
    1a68:	676e6970 			; <UNDEFINED> instruction: 0x676e6970
    1a6c:	7b29745f 	blvc	a5ebf0 <_Min_Stack_Size+0xa5e7f0>
    1a70:	49545845 	ldmdbmi	r4, {r0, r2, r6, fp, ip, lr}^
    1a74:	202c3031 	eorcs	r3, ip, r1, lsr r0
    1a78:	4f495047 	svcmi	0x00495047
    1a7c:	47202c44 	strmi	r2, [r0, -r4, asr #24]!
    1a80:	5f4f4950 	svcpl	0x004f4950
    1a84:	5f4e4950 	svcpl	0x004e4950
    1a88:	202c3031 	eorcs	r3, ip, r1, lsr r0
    1a8c:	49545845 	ldmdbmi	r4, {r0, r2, r6, fp, ip, lr}^
    1a90:	495f3031 	ldmdbmi	pc, {r0, r4, r5, ip, sp}^	; <UNPREDICTABLE>
    1a94:	007d5152 	rsbseq	r5, sp, r2, asr r1
    1a98:	48435f5f 	stmdami	r3, {r0, r1, r2, r3, r4, r6, r8, r9, sl, fp, ip, lr}^
    1a9c:	32335241 	eorscc	r5, r3, #268435460	; 0x10000004
    1aa0:	5059545f 	subspl	r5, r9, pc, asr r4
    1aa4:	205f5f45 	subscs	r5, pc, r5, asr #30
    1aa8:	676e6f6c 	strbvs	r6, [lr, -ip, ror #30]!
    1aac:	736e7520 	cmnvc	lr, #32, 10	; 0x8000000
    1ab0:	656e6769 	strbvs	r6, [lr, #-1897]!	; 0xfffff897
    1ab4:	6e692064 	cdpvs	0, 6, cr2, cr9, cr4, {3}
    1ab8:	5f5f0074 	svcpl	0x005f0074
    1abc:	5f4d5241 	svcpl	0x004d5241
    1ac0:	54414546 	strbpl	r4, [r1], #-1350	; 0xfffffaba
    1ac4:	5f455255 	svcpl	0x00455255
    1ac8:	36315046 	ldrtcc	r5, [r1], -r6, asr #32
    1acc:	4345565f 	movtmi	r5, #22111	; 0x565f
    1ad0:	5f524f54 	svcpl	0x00524f54
    1ad4:	54495241 	strbpl	r5, [r9], #-577	; 0xfffffdbf
    1ad8:	54454d48 	strbpl	r4, [r5], #-3400	; 0xfffff2b8
    1adc:	5f004349 	svcpl	0x00004349
    1ae0:	49534f50 	ldmdbmi	r3, {r4, r6, r8, r9, sl, fp, lr}^
    1ae4:	5f435f58 	svcpl	0x00435f58
    1ae8:	52554f53 	subspl	r4, r5, #332	; 0x14c
    1aec:	32204543 	eorcc	r4, r0, #281018368	; 0x10c00000
    1af0:	30383030 	eorscc	r3, r8, r0, lsr r0
    1af4:	5f004c39 	svcpl	0x00004c39
    1af8:	5f43435f 	svcpl	0x0043435f
    1afc:	50505553 	subspl	r5, r0, r3, asr r5
    1b00:	5354524f 	cmppl	r4, #-268435452	; 0xf0000004
    1b04:	4e59445f 	mrcmi	4, 2, r4, cr9, cr15, {2}
    1b08:	43494d41 	movtmi	r4, #40257	; 0x9d41
    1b0c:	5252415f 	subspl	r4, r2, #-1073741801	; 0xc0000017
    1b10:	495f5941 	ldmdbmi	pc, {r0, r6, r8, fp, ip, lr}^	; <UNPREDICTABLE>
    1b14:	2054494e 	subscs	r4, r4, lr, asr #18
    1b18:	5f5f0031 	svcpl	0x005f0031
    1b1c:	544e4955 	strbpl	r4, [lr], #-2389	; 0xfffff6ab
    1b20:	5341465f 	movtpl	r4, #5727	; 0x165f
    1b24:	5f323354 	svcpl	0x00323354
    1b28:	5f58414d 	svcpl	0x0058414d
    1b2c:	7830205f 	ldmdavc	r0!, {r0, r1, r2, r3, r4, r6, sp}
    1b30:	66666666 	strbtvs	r6, [r6], -r6, ror #12
    1b34:	66666666 	strbtvs	r6, [r6], -r6, ror #12
    1b38:	5f5f0055 	svcpl	0x005f0055
    1b3c:	6d5f6d74 	ldclvs	13, cr6, [pc, #-464]	; 1974 <_Min_Stack_Size+0x1574>
    1b40:	5f006e6f 	svcpl	0x00006e6f
    1b44:	544c465f 	strbpl	r4, [ip], #-1631	; 0xfffff9a1
    1b48:	58414d5f 	stmdapl	r1, {r0, r1, r2, r3, r4, r6, r8, sl, fp, lr}^
    1b4c:	5058455f 	subspl	r4, r8, pc, asr r5
    1b50:	31205f5f 			; <UNDEFINED> instruction: 0x31205f5f
    1b54:	5f003832 	svcpl	0x00003832
    1b58:	4e454552 	mcrmi	5, 2, r4, cr5, cr2, {2}
    1b5c:	4d455f54 	stclmi	15, cr5, [r5, #-336]	; 0xfffffeb0
    1b60:	45475245 	strbmi	r5, [r7, #-581]	; 0xfffffdbb
    1b64:	5f59434e 	svcpl	0x0059434e
    1b68:	455a4953 	ldrbmi	r4, [sl, #-2387]	; 0xfffff6ad
    1b6c:	00353220 	eorseq	r3, r5, r0, lsr #4
    1b70:	74735f5f 	ldrbtvc	r5, [r3], #-3935	; 0xfffff0a1
    1b74:	6f6d6672 	svcvs	0x006d6672
    1b78:	6b696c6e 	blvs	1a5cd38 <_Min_Stack_Size+0x1a5c938>
    1b7c:	6d662865 	stclvs	8, cr2, [r6, #-404]!	; 0xfffffe6c
    1b80:	67726174 			; <UNDEFINED> instruction: 0x67726174
    1b84:	7269662c 	rsbvc	r6, r9, #44, 12	; 0x2c00000
    1b88:	61767473 	cmnvs	r6, r3, ror r4
    1b8c:	67726172 			; <UNDEFINED> instruction: 0x67726172
    1b90:	5f5f2029 	svcpl	0x005f2029
    1b94:	72747461 	rsbsvc	r7, r4, #1627389952	; 0x61000000
    1b98:	74756269 	ldrbtvc	r6, [r5], #-617	; 0xfffffd97
    1b9c:	285f5f65 	ldmdacs	pc, {r0, r2, r5, r6, r8, r9, sl, fp, ip, lr}^	; <UNPREDICTABLE>
    1ba0:	665f5f28 	ldrbvs	r5, [pc], -r8, lsr #30
    1ba4:	616d726f 	cmnvs	sp, pc, ror #4
    1ba8:	205f5f74 	subscs	r5, pc, r4, ror pc	; <UNPREDICTABLE>
    1bac:	735f5f28 	cmpvc	pc, #40, 30	; 0xa0
    1bb0:	6d667274 	sfmvs	f7, 2, [r6, #-464]!	; 0xfffffe30
    1bb4:	5f5f6e6f 	svcpl	0x005f6e6f
    1bb8:	6d66202c 	stclvs	0, cr2, [r6, #-176]!	; 0xffffff50
    1bbc:	67726174 			; <UNDEFINED> instruction: 0x67726174
    1bc0:	6966202c 	stmdbvs	r6!, {r2, r3, r5, sp}^
    1bc4:	76747372 			; <UNDEFINED> instruction: 0x76747372
    1bc8:	72617261 	rsbvc	r7, r1, #268435462	; 0x10000006
    1bcc:	29292967 	stmdbcs	r9!, {r0, r1, r2, r5, r6, r8, fp, sp}
    1bd0:	445f5f00 	ldrbmi	r5, [pc], #-3840	; 1bd8 <_Min_Stack_Size+0x17d8>
    1bd4:	32314345 	eorscc	r4, r1, #335544321	; 0x14000001
    1bd8:	414d5f38 	cmpmi	sp, r8, lsr pc
    1bdc:	445f544e 	ldrbmi	r5, [pc], #-1102	; 1be4 <_Min_Stack_Size+0x17e4>
    1be0:	5f5f4749 	svcpl	0x005f4749
    1be4:	00343320 	eorseq	r3, r4, r0, lsr #6
    1be8:	5f515249 	svcpl	0x00515249
    1bec:	65736143 	ldrbvs	r6, [r3, #-323]!	; 0xfffffebd
    1bf0:	45525f00 	ldrbmi	r5, [r2, #-3840]	; 0xfffff100
    1bf4:	575f4441 	ldrbpl	r4, [pc, -r1, asr #8]
    1bf8:	45544952 	ldrbmi	r4, [r4, #-2386]	; 0xfffff6ae
    1bfc:	4655425f 			; <UNDEFINED> instruction: 0x4655425f
    1c00:	455a4953 	ldrbmi	r4, [sl, #-2387]	; 0xfffff6ad
    1c04:	5059545f 	subspl	r5, r9, pc, asr r4
    1c08:	6e692045 	cdpvs	0, 6, cr2, cr9, cr5, {2}
    1c0c:	5f5f0074 	svcpl	0x005f0074
    1c10:	455a4953 	ldrbmi	r4, [sl, #-2387]	; 0xfffff6ad
    1c14:	445f464f 	ldrbmi	r4, [pc], #-1615	; 1c1c <_Min_Stack_Size+0x181c>
    1c18:	4c42554f 	cfstr64mi	mvdx5, [r2], {79}	; 0x4f
    1c1c:	205f5f45 	subscs	r5, pc, r5, asr #30
    1c20:	5f5f0038 	svcpl	0x005f0038
    1c24:	5f544e49 	svcpl	0x00544e49
    1c28:	5341454c 	movtpl	r4, #5452	; 0x154c
    1c2c:	5f323354 	svcpl	0x00323354
    1c30:	54444957 	strbpl	r4, [r4], #-2391	; 0xfffff6a9
    1c34:	205f5f48 	subscs	r5, pc, r8, asr #30
    1c38:	5f003233 	svcpl	0x00003233
    1c3c:	434f4c43 	movtmi	r4, #64579	; 0xfc43
    1c40:	5f545f4b 	svcpl	0x00545f4b
    1c44:	736e7520 	cmnvc	lr, #32, 10	; 0x8000000
    1c48:	656e6769 	strbvs	r6, [lr, #-1897]!	; 0xfffff897
    1c4c:	6f6c2064 	svcvs	0x006c2064
    1c50:	5f00676e 	svcpl	0x0000676e
    1c54:	544c465f 	strbpl	r4, [ip], #-1631	; 0xfffff9a1
    1c58:	5f583233 	svcpl	0x00583233
    1c5c:	5f4e494d 	svcpl	0x004e494d
    1c60:	5f505845 	svcpl	0x00505845
    1c64:	2d28205f 	stccs	0, cr2, [r8, #-380]!	; 0xfffffe84
    1c68:	31323031 	teqcc	r2, r1, lsr r0
    1c6c:	58450029 	stmdapl	r5, {r0, r3, r5}^
    1c70:	4c5f4954 	mrrcmi	9, 5, r4, pc, cr4	; <UNPREDICTABLE>
    1c74:	37454e49 	strbcc	r4, [r5, -r9, asr #28]
    1c78:	3744505f 	smlsldcc	r5, r4, pc, r0	; <UNPREDICTABLE>
    1c7c:	58452820 	stmdapl	r5, {r5, fp, sp}^
    1c80:	475f4954 			; <UNDEFINED> instruction: 0x475f4954
    1c84:	5f4f4950 	svcpl	0x004f4950
    1c88:	7070614d 	rsbsvc	r6, r0, sp, asr #2
    1c8c:	5f676e69 	svcpl	0x00676e69
    1c90:	457b2974 	ldrbmi	r2, [fp, #-2420]!	; 0xfffff68c
    1c94:	37495458 	smlsldcc	r5, r9, r8, r4
    1c98:	5047202c 	subpl	r2, r7, ip, lsr #32
    1c9c:	2c444f49 	mcrrcs	15, 4, r4, r4, cr9
    1ca0:	49504720 	ldmdbmi	r0, {r5, r8, r9, sl, lr}^
    1ca4:	49505f4f 	ldmdbmi	r0, {r0, r1, r2, r3, r6, r8, r9, sl, fp, ip, lr}^
    1ca8:	2c375f4e 	ldccs	15, cr5, [r7], #-312	; 0xfffffec8
    1cac:	54584520 	ldrbpl	r4, [r8], #-1312	; 0xfffffae0
    1cb0:	495f3749 	ldmdbmi	pc, {r0, r3, r6, r8, r9, sl, ip, sp}^	; <UNPREDICTABLE>
    1cb4:	007d5152 	rsbseq	r5, sp, r2, asr r1
    1cb8:	49545845 	ldmdbmi	r4, {r0, r2, r6, fp, ip, lr}^
    1cbc:	4e494c5f 	mcrmi	12, 2, r4, cr9, cr15, {2}
    1cc0:	5f333145 	svcpl	0x00333145
    1cc4:	33314350 	teqcc	r1, #80, 6	; 0x40000001
    1cc8:	58452820 	stmdapl	r5, {r5, fp, sp}^
    1ccc:	475f4954 			; <UNDEFINED> instruction: 0x475f4954
    1cd0:	5f4f4950 	svcpl	0x004f4950
    1cd4:	7070614d 	rsbsvc	r6, r0, sp, asr #2
    1cd8:	5f676e69 	svcpl	0x00676e69
    1cdc:	457b2974 	ldrbmi	r2, [fp, #-2420]!	; 0xfffff68c
    1ce0:	31495458 	cmpcc	r9, r8, asr r4
    1ce4:	47202c33 			; <UNDEFINED> instruction: 0x47202c33
    1ce8:	434f4950 	movtmi	r4, #63824	; 0xf950
    1cec:	5047202c 	subpl	r2, r7, ip, lsr #32
    1cf0:	505f4f49 	subspl	r4, pc, r9, asr #30
    1cf4:	315f4e49 	cmpcc	pc, r9, asr #28
    1cf8:	45202c33 	strmi	r2, [r0, #-3123]!	; 0xfffff3cd
    1cfc:	31495458 	cmpcc	r9, r8, asr r4
    1d00:	52495f33 	subpl	r5, r9, #51, 30	; 0xcc
    1d04:	5f007d51 	svcpl	0x00007d51
    1d08:	5341465f 	movtpl	r4, #5727	; 0x165f
    1d0c:	20363154 	eorscs	r3, r6, r4, asr r1
    1d10:	696d5f00 	stmdbvs	sp!, {r8, r9, sl, fp, ip, lr}^
    1d14:	725f6373 	subsvc	r6, pc, #-872415231	; 0xcc000001
    1d18:	746e6565 	strbtvc	r6, [lr], #-1381	; 0xfffffa9b
    1d1c:	45525f00 	ldrbmi	r5, [r2, #-3840]	; 0xfffff100
    1d20:	5f544e45 	svcpl	0x00544e45
    1d24:	444e4152 	strbmi	r4, [lr], #-338	; 0xfffffeae
    1d28:	535f3834 	cmppl	pc, #52, 16	; 0x340000
    1d2c:	28444545 	stmdacs	r4, {r0, r2, r6, r8, sl, lr}^
    1d30:	29727470 	ldmdbcs	r2!, {r4, r5, r6, sl, ip, sp, lr}^
    1d34:	70282820 	eorvc	r2, r8, r0, lsr #16
    1d38:	2d297274 	sfmcs	f7, 4, [r9, #-464]!	; 0xfffffe30
    1d3c:	34725f3e 	ldrbtcc	r5, [r2], #-3902	; 0xfffff0c2
    1d40:	5f3e2d38 	svcpl	0x003e2d38
    1d44:	64656573 	strbtvs	r6, [r5], #-1395	; 0xfffffa8d
    1d48:	5f5f0029 	svcpl	0x005f0029
    1d4c:	4752414c 	ldrbmi	r4, [r2, -ip, asr #2]
    1d50:	4c494645 	mcrrmi	6, 4, r4, r9, cr5
    1d54:	49565f45 	ldmdbmi	r6, {r0, r2, r6, r8, r9, sl, fp, ip, lr}^
    1d58:	4c424953 	mcrrmi	9, 5, r4, r2, cr3	; <UNPREDICTABLE>
    1d5c:	00302045 	eorseq	r2, r0, r5, asr #32
    1d60:	45445f5f 	strbmi	r5, [r4, #-3935]	; 0xfffff0a1
    1d64:	5f343643 	svcpl	0x00343643
    1d68:	5f58414d 	svcpl	0x0058414d
    1d6c:	2e39205f 	mrccs	0, 1, r2, cr9, cr15, {2}
    1d70:	39393939 	ldmdbcc	r9!, {r0, r3, r4, r5, r8, fp, ip, sp}
    1d74:	39393939 	ldmdbcc	r9!, {r0, r3, r4, r5, r8, fp, ip, sp}
    1d78:	39393939 	ldmdbcc	r9!, {r0, r3, r4, r5, r8, fp, ip, sp}
    1d7c:	45393939 	ldrmi	r3, [r9, #-2361]!	; 0xfffff6c7
    1d80:	44343833 	ldrtmi	r3, [r4], #-2099	; 0xfffff7cd
    1d84:	5f5f0044 	svcpl	0x005f0044
    1d88:	5f746e69 	svcpl	0x00746e69
    1d8c:	74736166 	ldrbtvc	r6, [r3], #-358	; 0xfffffe9a
    1d90:	5f745f38 	svcpl	0x00745f38
    1d94:	69666564 	stmdbvs	r6!, {r2, r5, r6, r8, sl, sp, lr}^
    1d98:	2064656e 	rsbcs	r6, r4, lr, ror #10
    1d9c:	5f5f0031 	svcpl	0x005f0031
    1da0:	4c57454e 	cfldr64mi	mvdx4, [r7], {78}	; 0x4e
    1da4:	5f5f4249 	svcpl	0x005f4249
    1da8:	5f003320 	svcpl	0x00003320
    1dac:	4e454552 	mcrmi	5, 2, r4, cr5, cr2, {2}
    1db0:	4e495f54 	mcrmi	15, 2, r5, cr9, cr4, {2}
    1db4:	76285449 	strtvc	r5, [r8], -r9, asr #8
    1db8:	20297261 	eorcs	r7, r9, r1, ror #4
    1dbc:	2c30207b 	ldccs	0, cr2, [r0], #-492	; 0xfffffe14
    1dc0:	5f5f2820 	svcpl	0x005f2820
    1dc4:	454c4946 	strbmi	r4, [ip, #-2374]	; 0xfffff6ba
    1dc8:	26292a20 	strtcs	r2, [r9], -r0, lsr #20
    1dcc:	66735f5f 	uhsaxvs	r5, r3, pc	; <UNPREDICTABLE>
    1dd0:	6b61665f 	blvs	185b754 <_Min_Stack_Size+0x185b354>
    1dd4:	74735f65 	ldrbtvc	r5, [r3], #-3941	; 0xfffff09b
    1dd8:	2c6e6964 			; <UNDEFINED> instruction: 0x2c6e6964
    1ddc:	5f5f2820 	svcpl	0x005f2820
    1de0:	454c4946 	strbmi	r4, [ip, #-2374]	; 0xfffff6ba
    1de4:	26292a20 	strtcs	r2, [r9], -r0, lsr #20
    1de8:	66735f5f 	uhsaxvs	r5, r3, pc	; <UNPREDICTABLE>
    1dec:	6b61665f 	blvs	185b770 <_Min_Stack_Size+0x185b370>
    1df0:	74735f65 	ldrbtvc	r5, [r3], #-3941	; 0xfffff09b
    1df4:	74756f64 	ldrbtvc	r6, [r5], #-3940	; 0xfffff09c
    1df8:	5f28202c 	svcpl	0x0028202c
    1dfc:	4c49465f 	mcrrmi	6, 5, r4, r9, cr15
    1e00:	292a2045 	stmdbcs	sl!, {r0, r2, r6, sp}
    1e04:	735f5f26 	cmpvc	pc, #38, 30	; 0x98
    1e08:	61665f66 	cmnvs	r6, r6, ror #30
    1e0c:	735f656b 	cmpvc	pc, #448790528	; 0x1ac00000
    1e10:	72656474 	rsbvc	r6, r5, #116, 8	; 0x74000000
    1e14:	30202c72 	eorcc	r2, r0, r2, ror ip
    1e18:	4e5f202c 	cdpmi	0, 5, cr2, cr15, cr12, {1}
    1e1c:	2c4c4c55 	mcrrcs	12, 5, r4, ip, cr5
    1e20:	202c3020 	eorcs	r3, ip, r0, lsr #32
    1e24:	5f202c30 	svcpl	0x00202c30
    1e28:	4c4c554e 	cfstr64mi	mvdx5, [ip], {78}	; 0x4e
    1e2c:	4e5f202c 	cdpmi	0, 5, cr2, cr15, cr12, {1}
    1e30:	2c4c4c55 	mcrrcs	12, 5, r4, ip, cr5
    1e34:	554e5f20 	strbpl	r5, [lr, #-3872]	; 0xfffff0e0
    1e38:	202c4c4c 	eorcs	r4, ip, ip, asr #24
    1e3c:	30202c30 	eorcc	r2, r0, r0, lsr ip
    1e40:	4e5f202c 	cdpmi	0, 5, cr2, cr15, cr12, {1}
    1e44:	2c4c4c55 	mcrrcs	12, 5, r4, ip, cr5
    1e48:	554e5f20 	strbpl	r5, [lr, #-3872]	; 0xfffff0e0
    1e4c:	202c4c4c 	eorcs	r4, ip, ip, asr #24
    1e50:	4c554e5f 	mrrcmi	14, 5, r4, r5, cr15
    1e54:	5f202c4c 	svcpl	0x00202c4c
    1e58:	4c4c554e 	cfstr64mi	mvdx5, [ip], {78}	; 0x4e
    1e5c:	4e5f202c 	cdpmi	0, 5, cr2, cr15, cr12, {1}
    1e60:	2c4c4c55 	mcrrcs	12, 5, r4, ip, cr5
    1e64:	45525f20 	ldrbmi	r5, [r2, #-3872]	; 0xfffff0e0
    1e68:	5f544e45 	svcpl	0x00544e45
    1e6c:	54494e49 	strbpl	r4, [r9], #-3657	; 0xfffff1b7
    1e70:	4554415f 	ldrbmi	r4, [r4, #-351]	; 0xfffffea1
    1e74:	20544958 	subscs	r4, r4, r8, asr r9
    1e78:	554e5f7b 	strbpl	r5, [lr, #-3963]	; 0xfffff085
    1e7c:	202c4c4c 	eorcs	r4, ip, ip, asr #24
    1e80:	5f202c30 	svcpl	0x00202c30
    1e84:	4c4c554e 	cfstr64mi	mvdx5, [ip], {78}	; 0x4e
    1e88:	5f202c7d 	svcpl	0x00202c7d
    1e8c:	4c4c554e 	cfstr64mi	mvdx5, [ip], {78}	; 0x4e
    1e90:	4e5f202c 	cdpmi	0, 5, cr2, cr15, cr12, {1}
    1e94:	2c4c4c55 	mcrrcs	12, 5, r4, ip, cr5
    1e98:	554e5f20 	strbpl	r5, [lr, #-3872]	; 0xfffff0e0
    1e9c:	7d204c4c 	stcvc	12, cr4, [r0, #-304]!	; 0xfffffed0
    1ea0:	49584500 	ldmdbmi	r8, {r8, sl, lr}^
    1ea4:	55535f54 	ldrbpl	r5, [r3, #-3924]	; 0xfffff0ac
    1ea8:	53454343 	movtpl	r4, #21315	; 0x5343
    1eac:	00302053 	eorseq	r2, r0, r3, asr r0
    1eb0:	49545845 	ldmdbmi	r4, {r0, r2, r6, fp, ip, lr}^
    1eb4:	52495f36 	subpl	r5, r9, #54, 30	; 0xd8
    1eb8:	33322051 	teqcc	r2, #81	; 0x51
    1ebc:	555f5f00 	ldrbpl	r5, [pc, #-3840]	; fc4 <_Min_Stack_Size+0xbc4>
    1ec0:	465f4154 			; <UNDEFINED> instruction: 0x465f4154
    1ec4:	5f544942 	svcpl	0x00544942
    1ec8:	3436205f 	ldrtcc	r2, [r6], #-95	; 0xffffffa1
    1ecc:	415f5f00 	cmpmi	pc, r0, lsl #30
    1ed0:	414e4d53 	cmpmi	lr, r3, asr sp
    1ed4:	6328454d 			; <UNDEFINED> instruction: 0x6328454d
    1ed8:	656d616e 	strbvs	r6, [sp, #-366]!	; 0xfffffe92
    1edc:	5f5f2029 	svcpl	0x005f2029
    1ee0:	52545358 	subspl	r5, r4, #88, 6	; 0x60000001
    1ee4:	20474e49 	subcs	r4, r7, r9, asr #28
    1ee8:	555f5f28 	ldrbpl	r5, [pc, #-3880]	; fc8 <_Min_Stack_Size+0xbc8>
    1eec:	5f524553 	svcpl	0x00524553
    1ef0:	4542414c 	strbmi	r4, [r2, #-332]	; 0xfffffeb4
    1ef4:	52505f4c 	subspl	r5, r0, #76, 30	; 0x130
    1ef8:	58494645 	stmdapl	r9, {r0, r2, r6, r9, sl, lr}^
    1efc:	20295f5f 	eorcs	r5, r9, pc, asr pc
    1f00:	6d616e63 	stclvs	14, cr6, [r1, #-396]!	; 0xfffffe74
    1f04:	46410065 	strbmi	r0, [r1], -r5, rrx
    1f08:	475f4f49 	ldrbmi	r4, [pc, -r9, asr #30]
    1f0c:	5f4f4950 	svcpl	0x004f4950
    1f10:	7070614d 	rsbsvc	r6, r0, sp, asr #2
    1f14:	28676e69 	stmdacs	r7!, {r0, r3, r5, r6, r9, sl, fp, sp, lr}^
    1f18:	28202978 	stmdacs	r0!, {r3, r4, r5, r6, r8, fp, sp}
    1f1c:	20782820 	rsbscs	r2, r8, r0, lsr #16
    1f20:	47203d3d 			; <UNDEFINED> instruction: 0x47203d3d
    1f24:	414f4950 	cmpmi	pc, r0, asr r9	; <UNPREDICTABLE>
    1f28:	30203f29 	eorcc	r3, r0, r9, lsr #30
    1f2c:	7828203a 	stmdavc	r8!, {r1, r3, r4, r5, sp}
    1f30:	203d3d20 	eorscs	r3, sp, r0, lsr #26
    1f34:	4f495047 	svcmi	0x00495047
    1f38:	203f2942 	eorscs	r2, pc, r2, asr #18
    1f3c:	28203a31 	stmdacs	r0!, {r0, r4, r5, r9, fp, ip, sp}
    1f40:	3d3d2078 	ldccc	0, cr2, [sp, #-480]!	; 0xfffffe20
    1f44:	49504720 	ldmdbmi	r0, {r5, r8, r9, sl, lr}^
    1f48:	3f29434f 	svccc	0x0029434f
    1f4c:	203a3220 	eorscs	r3, sl, r0, lsr #4
    1f50:	3d207828 	stccc	8, cr7, [r0, #-160]!	; 0xffffff60
    1f54:	5047203d 	subpl	r2, r7, sp, lsr r0
    1f58:	29444f49 	stmdbcs	r4, {r0, r3, r6, r8, r9, sl, fp, lr}^
    1f5c:	303a333f 	eorscc	r3, sl, pc, lsr r3
    1f60:	45002920 	strmi	r2, [r0, #-2336]	; 0xfffff6e0
    1f64:	5f495458 	svcpl	0x00495458
    1f68:	454e494c 	strbmi	r4, [lr, #-2380]	; 0xfffff6b4
    1f6c:	44505f30 	ldrbmi	r5, [r0], #-3888	; 0xfffff0d0
    1f70:	45282030 	strmi	r2, [r8, #-48]!	; 0xffffffd0
    1f74:	5f495458 	svcpl	0x00495458
    1f78:	4f495047 	svcmi	0x00495047
    1f7c:	70614d5f 	rsbvc	r4, r1, pc, asr sp
    1f80:	676e6970 			; <UNDEFINED> instruction: 0x676e6970
    1f84:	7b29745f 	blvc	a5f108 <_Min_Stack_Size+0xa5ed08>
    1f88:	49545845 	ldmdbmi	r4, {r0, r2, r6, fp, ip, lr}^
    1f8c:	47202c30 			; <UNDEFINED> instruction: 0x47202c30
    1f90:	444f4950 	strbmi	r4, [pc], #-2384	; 1f98 <_Min_Stack_Size+0x1b98>
    1f94:	5047202c 	subpl	r2, r7, ip, lsr #32
    1f98:	505f4f49 	subspl	r4, pc, r9, asr #30
    1f9c:	305f4e49 	subscc	r4, pc, r9, asr #28
    1fa0:	5845202c 	stmdapl	r5, {r2, r3, r5, sp}^
    1fa4:	5f304954 	svcpl	0x00304954
    1fa8:	7d515249 	lfmvc	f5, 2, [r1, #-292]	; 0xfffffedc
    1fac:	465f5f00 	ldrbmi	r5, [pc], -r0, lsl #30
    1fb0:	445f544c 	ldrbmi	r5, [pc], #-1100	; 1fb8 <_Min_Stack_Size+0x1bb8>
    1fb4:	4d494345 	stclmi	3, cr4, [r9, #-276]	; 0xfffffeec
    1fb8:	445f4c41 	ldrbmi	r4, [pc], #-3137	; 1fc0 <_Min_Stack_Size+0x1bc0>
    1fbc:	5f5f4749 	svcpl	0x005f4749
    1fc0:	45003920 	strmi	r3, [r0, #-2336]	; 0xfffff6e0
    1fc4:	5f495458 	svcpl	0x00495458
    1fc8:	454e494c 	strbmi	r4, [lr, #-2380]	; 0xfffff6b4
    1fcc:	505f3531 	subspl	r3, pc, r1, lsr r5	; <UNPREDICTABLE>
    1fd0:	20353143 	eorscs	r3, r5, r3, asr #2
    1fd4:	54584528 	ldrbpl	r4, [r8], #-1320	; 0xfffffad8
    1fd8:	50475f49 	subpl	r5, r7, r9, asr #30
    1fdc:	4d5f4f49 	ldclmi	15, cr4, [pc, #-292]	; 1ec0 <_Min_Stack_Size+0x1ac0>
    1fe0:	69707061 	ldmdbvs	r0!, {r0, r5, r6, ip, sp, lr}^
    1fe4:	745f676e 	ldrbvc	r6, [pc], #-1902	; 1fec <_Min_Stack_Size+0x1bec>
    1fe8:	58457b29 	stmdapl	r5, {r0, r3, r5, r8, r9, fp, ip, sp, lr}^
    1fec:	35314954 	ldrcc	r4, [r1, #-2388]!	; 0xfffff6ac
    1ff0:	5047202c 	subpl	r2, r7, ip, lsr #32
    1ff4:	2c434f49 	mcrrcs	15, 4, r4, r3, cr9
    1ff8:	49504720 	ldmdbmi	r0, {r5, r8, r9, sl, lr}^
    1ffc:	49505f4f 	ldmdbmi	r0, {r0, r1, r2, r3, r6, r8, r9, sl, fp, ip, lr}^
    2000:	35315f4e 	ldrcc	r5, [r1, #-3918]!	; 0xfffff0b2
    2004:	5845202c 	stmdapl	r5, {r2, r3, r5, sp}^
    2008:	35314954 	ldrcc	r4, [r1, #-2388]!	; 0xfffff6ac
    200c:	5152495f 	cmppl	r2, pc, asr r9
    2010:	5f5f007d 	svcpl	0x005f007d
    2014:	5f544e49 	svcpl	0x00544e49
    2018:	5341454c 	movtpl	r4, #5452	; 0x154c
    201c:	5f323354 	svcpl	0x00323354
    2020:	5f58414d 	svcpl	0x0058414d
    2024:	7830205f 	ldmdavc	r0!, {r0, r1, r2, r3, r4, r6, sp}
    2028:	66666637 			; <UNDEFINED> instruction: 0x66666637
    202c:	66666666 	strbtvs	r6, [r6], -r6, ror #12
    2030:	5047004c 	subpl	r0, r7, ip, asr #32
    2034:	505f4f49 	subspl	r4, pc, r9, asr #30
    2038:	315f4e49 	cmpcc	pc, r9, asr #28
    203c:	28282032 	stmdacs	r8!, {r1, r4, r5, sp}
    2040:	746e6975 	strbtvc	r6, [lr], #-2421	; 0xfffff68b
    2044:	745f3631 	ldrbvc	r3, [pc], #-1585	; 204c <_Min_Stack_Size+0x1c4c>
    2048:	31783029 	cmncc	r8, r9, lsr #32
    204c:	29303030 	ldmdbcs	r0!, {r4, r5, ip, sp}
    2050:	54584500 	ldrbpl	r4, [r8], #-1280	; 0xfffffb00
    2054:	72545f49 	subsvc	r5, r4, #292	; 0x124
    2058:	65676769 	strbvs	r6, [r7, #-1897]!	; 0xfffff897
    205c:	41465f72 	hvcmi	26098	; 0x65f2
    2060:	4e494c4c 	cdpmi	12, 4, cr4, cr9, cr12, {2}
    2064:	00312047 	eorseq	r2, r1, r7, asr #32
    2068:	66735f5f 	uhsaxvs	r5, r3, pc	; <UNPREDICTABLE>
    206c:	6b61665f 	blvs	185b9f0 <_Min_Stack_Size+0x185b5f0>
    2070:	74735f65 	ldrbtvc	r5, [r3], #-3941	; 0xfffff09b
    2074:	006e6964 	rsbeq	r6, lr, r4, ror #18
    2078:	4545525f 	strbmi	r5, [r5, #-607]	; 0xfffffda1
    207c:	4d5f544e 	cfldrdmi	mvd5, [pc, #-312]	; 1f4c <_Min_Stack_Size+0x1b4c>
    2080:	454c5242 	strbmi	r5, [ip, #-578]	; 0xfffffdbe
    2084:	54535f4e 	ldrbpl	r5, [r3], #-3918	; 0xfffff0b2
    2088:	28455441 	stmdacs	r5, {r0, r6, sl, ip, lr}^
    208c:	29727470 	ldmdbcs	r2!, {r4, r5, r6, sl, ip, sp, lr}^
    2090:	70282820 	eorvc	r2, r8, r0, lsr #16
    2094:	2d297274 	sfmcs	f7, 4, [r9, #-464]!	; 0xfffffe30
    2098:	696d5f3e 	stmdbvs	sp!, {r1, r2, r3, r4, r5, r8, r9, sl, fp, ip, lr}^
    209c:	3e2d6373 	mcrcc	3, 1, r6, cr13, cr3, {3}
    20a0:	72626d5f 	rsbvc	r6, r2, #6080	; 0x17c0
    20a4:	5f6e656c 	svcpl	0x006e656c
    20a8:	74617473 	strbtvc	r7, [r1], #-1139	; 0xfffffb8d
    20ac:	4e002965 	vmlsmi.f16	s4, s0, s11	; <UNPREDICTABLE>
    20b0:	5f434956 	svcpl	0x00434956
    20b4:	52455349 	subpl	r5, r5, #603979777	; 0x24000001
    20b8:	282a2030 	stmdacs	sl!, {r4, r5, sp}
    20bc:	6c6f7628 	stclvs	6, cr7, [pc], #-160	; 2024 <_Min_Stack_Size+0x1c24>
    20c0:	6c697461 	cfstrdvs	mvd7, [r9], #-388	; 0xfffffe7c
    20c4:	69752065 	ldmdbvs	r5!, {r0, r2, r5, r6, sp}^
    20c8:	3233746e 	eorscc	r7, r3, #1845493760	; 0x6e000000
    20cc:	2a20745f 	bcs	81f250 <_Min_Stack_Size+0x81ee50>
    20d0:	564e2029 	strbpl	r2, [lr], -r9, lsr #32
    20d4:	425f4349 	subsmi	r4, pc, #603979777	; 0x24000001
    20d8:	20455341 	subcs	r5, r5, r1, asr #6
    20dc:	7830202b 	ldmdavc	r0!, {r0, r1, r3, r5, sp}
    20e0:	00293030 	eoreq	r3, r9, r0, lsr r0
    20e4:	74705f5f 	ldrbtvc	r5, [r0], #-3935	; 0xfffff0a1
    20e8:	20745f72 	rsbscs	r5, r4, r2, ror pc
    20ec:	64696f76 	strbtvs	r6, [r9], #-3958	; 0xfffff08a
    20f0:	5f002a20 	svcpl	0x00002a20
    20f4:	554e475f 	strbpl	r4, [lr, #-1887]	; 0xfffff8a1
    20f8:	54535f43 	ldrbpl	r5, [r3], #-3907	; 0xfffff0bd
    20fc:	495f4344 	ldmdbmi	pc, {r2, r6, r8, r9, lr}^	; <UNPREDICTABLE>
    2100:	4e494c4e 	cdpmi	12, 4, cr4, cr9, cr14, {2}
    2104:	205f5f45 	subscs	r5, pc, r5, asr #30
    2108:	5f5f0031 	svcpl	0x005f0031
    210c:	5341454c 	movtpl	r4, #5452	; 0x154c
    2110:	20323354 	eorscs	r3, r2, r4, asr r3
    2114:	00226c22 	eoreq	r6, r2, r2, lsr #24
    2118:	4f495047 	svcmi	0x00495047
    211c:	444f4d5f 	strbmi	r4, [pc], #-3423	; 2124 <_Min_Stack_Size+0x1d24>
    2120:	5f5f0045 	svcpl	0x005f0045
    2124:	43415246 	movtmi	r5, #4678	; 0x1246
    2128:	42465f54 	submi	r5, r6, #84, 30	; 0x150
    212c:	5f5f5449 	svcpl	0x005f5449
    2130:	00353120 	eorseq	r3, r5, r0, lsr #2
    2134:	4c4c5f5f 	mcrrmi	15, 5, r5, ip, cr15
    2138:	55434341 	strbpl	r4, [r3, #-833]	; 0xfffffcbf
    213c:	50455f4d 	subpl	r5, r5, sp, asr #30
    2140:	4f4c4953 	svcmi	0x004c4953
    2144:	205f5f4e 	subscs	r5, pc, lr, asr #30
    2148:	50317830 	eorspl	r7, r1, r0, lsr r8
    214c:	4c31332d 	ldcmi	3, cr3, [r1], #-180	; 0xffffff4c
    2150:	5f004b4c 	svcpl	0x00004b4c
    2154:	554e475f 	strbpl	r4, [lr, #-1887]	; 0xfffff8a1
    2158:	41505f43 	cmpmi	r0, r3, asr #30
    215c:	4c484354 	mcrrmi	3, 5, r4, r8, cr4
    2160:	4c455645 	mcrrmi	6, 4, r5, r5, cr5
    2164:	31205f5f 			; <UNDEFINED> instruction: 0x31205f5f
    2168:	475f5f00 	ldrbmi	r5, [pc, -r0, lsl #30]
    216c:	415f4343 	cmpmi	pc, r3, asr #6
    2170:	494d4f54 	stmdbmi	sp, {r2, r4, r6, r8, r9, sl, fp, lr}^
    2174:	48435f43 	stmdami	r3, {r0, r1, r6, r8, r9, sl, fp, ip, lr}^
    2178:	32335241 	eorscc	r5, r3, #268435460	; 0x10000004
    217c:	4c5f545f 	cfldrdmi	mvd5, [pc], {95}	; 0x5f
    2180:	5f4b434f 	svcpl	0x004b434f
    2184:	45455246 	strbmi	r5, [r5, #-582]	; 0xfffffdba
    2188:	5f003220 	svcpl	0x00003220
    218c:	6c6c615f 	stfvse	f6, [ip], #-380	; 0xfffffe84
    2190:	615f636f 	cmpvs	pc, pc, ror #6
    2194:	6e67696c 	vnmulvs.f16	s13, s14, s25	; <UNPREDICTABLE>
    2198:	20297828 	eorcs	r7, r9, r8, lsr #16
    219c:	74615f5f 	strbtvc	r5, [r1], #-3935	; 0xfffff0a1
    21a0:	62697274 	rsbvs	r7, r9, #116, 4	; 0x40000007
    21a4:	5f657475 	svcpl	0x00657475
    21a8:	5f28285f 	svcpl	0x0028285f
    21ac:	6c6c615f 	stfvse	f6, [ip], #-380	; 0xfffffe84
    21b0:	615f636f 	cmpvs	pc, pc, ror #6
    21b4:	6e67696c 	vnmulvs.f16	s13, s14, s25	; <UNPREDICTABLE>
    21b8:	78285f5f 	stmdavc	r8!, {r0, r1, r2, r3, r4, r6, r8, r9, sl, fp, ip, lr}
    21bc:	00292929 	eoreq	r2, r9, r9, lsr #18
    21c0:	49555f5f 	ldmdbmi	r5, {r0, r1, r2, r3, r4, r6, r8, r9, sl, fp, ip, lr}^
    21c4:	4c5f544e 	cfldrdmi	mvd5, [pc], {78}	; 0x4e
    21c8:	54534145 	ldrbpl	r4, [r3], #-325	; 0xfffffebb
    21cc:	4d5f3631 	ldclmi	6, cr3, [pc, #-196]	; 2110 <_Min_Stack_Size+0x1d10>
    21d0:	5f5f5841 	svcpl	0x005f5841
    21d4:	66783020 	ldrbtvs	r3, [r8], -r0, lsr #32
    21d8:	00666666 	rsbeq	r6, r6, r6, ror #12
    21dc:	72705f5f 	rsbsvc	r5, r0, #380	; 0x17c
    21e0:	63696465 	cmnvs	r9, #1694498816	; 0x65000000
    21e4:	72745f74 	rsbsvc	r5, r4, #116, 30	; 0x1d0
    21e8:	65286575 	strvs	r6, [r8, #-1397]!	; 0xfffffa8b
    21ec:	20297078 	eorcs	r7, r9, r8, ror r0
    21f0:	75625f5f 	strbvc	r5, [r2, #-3935]!	; 0xfffff0a1
    21f4:	69746c69 	ldmdbvs	r4!, {r0, r3, r5, r6, sl, fp, sp, lr}^
    21f8:	78655f6e 	stmdavc	r5!, {r1, r2, r3, r5, r6, r8, r9, sl, fp, ip, lr}^
    21fc:	74636570 	strbtvc	r6, [r3], #-1392	; 0xfffffa90
    2200:	78652828 	stmdavc	r5!, {r3, r5, fp, sp}^
    2204:	202c2970 	eorcs	r2, ip, r0, ror r9
    2208:	4e002931 			; <UNDEFINED> instruction: 0x4e002931
    220c:	5f434956 	svcpl	0x00434956
    2210:	33515249 	cmpcc	r1, #-1879048188	; 0x90000004
    2214:	53555f38 	cmppl	r5, #56, 30	; 0xe0
    2218:	32545241 	subscc	r5, r4, #268435460	; 0x10000004
    221c:	616e455f 	cmnvs	lr, pc, asr r5
    2220:	28656c62 	stmdacs	r5!, {r1, r5, r6, sl, fp, sp, lr}^
    2224:	4e282029 	cdpmi	0, 2, cr2, cr8, cr9, {1}
    2228:	5f434956 	svcpl	0x00434956
    222c:	52455349 	subpl	r5, r5, #603979777	; 0x24000001
    2230:	3d7c2031 	ldclcc	0, cr2, [ip, #-196]!	; 0xffffff3c
    2234:	31202820 			; <UNDEFINED> instruction: 0x31202820
    2238:	203c3c20 	eorscs	r3, ip, r0, lsr #24
    223c:	41535528 	cmpmi	r3, r8, lsr #10
    2240:	5f325452 	svcpl	0x00325452
    2244:	2d515249 	lfmcs	f5, 2, [r1, #-292]	; 0xfffffedc
    2248:	20293233 	eorcs	r3, r9, r3, lsr r2
    224c:	45002929 	strmi	r2, [r0, #-2345]	; 0xfffff6d7
    2250:	5f495458 	svcpl	0x00495458
    2254:	454e494c 	strbmi	r4, [lr, #-2380]	; 0xfffff6b4
    2258:	505f3131 	subspl	r3, pc, r1, lsr r1	; <UNPREDICTABLE>
    225c:	20313144 	eorscs	r3, r1, r4, asr #2
    2260:	54584528 	ldrbpl	r4, [r8], #-1320	; 0xfffffad8
    2264:	50475f49 	subpl	r5, r7, r9, asr #30
    2268:	4d5f4f49 	ldclmi	15, cr4, [pc, #-292]	; 214c <_Min_Stack_Size+0x1d4c>
    226c:	69707061 	ldmdbvs	r0!, {r0, r5, r6, ip, sp, lr}^
    2270:	745f676e 	ldrbvc	r6, [pc], #-1902	; 2278 <_Min_Stack_Size+0x1e78>
    2274:	58457b29 	stmdapl	r5, {r0, r3, r5, r8, r9, fp, ip, sp, lr}^
    2278:	31314954 	teqcc	r1, r4, asr r9
    227c:	5047202c 	subpl	r2, r7, ip, lsr #32
    2280:	2c444f49 	mcrrcs	15, 4, r4, r4, cr9
    2284:	49504720 	ldmdbmi	r0, {r5, r8, r9, sl, lr}^
    2288:	49505f4f 	ldmdbmi	r0, {r0, r1, r2, r3, r6, r8, r9, sl, fp, ip, lr}^
    228c:	31315f4e 	teqcc	r1, lr, asr #30
    2290:	5845202c 	stmdapl	r5, {r2, r3, r5, sp}^
    2294:	31314954 	teqcc	r1, r4, asr r9
    2298:	5152495f 	cmppl	r2, pc, asr r9
    229c:	5f5f007d 	svcpl	0x005f007d
    22a0:	36544c46 	ldrbcc	r4, [r4], -r6, asr #24
    22a4:	414d5f34 	cmpmi	sp, r4, lsr pc
    22a8:	30315f58 	eorscc	r5, r1, r8, asr pc
    22ac:	5058455f 	subspl	r4, r8, pc, asr r5
    22b0:	33205f5f 			; <UNDEFINED> instruction: 0x33205f5f
    22b4:	5f003830 	svcpl	0x00003830
    22b8:	5a49535f 	bpl	125703c <_Min_Stack_Size+0x1256c3c>
    22bc:	5f464f45 	svcpl	0x00464f45
    22c0:	474e4f4c 	strbmi	r4, [lr, -ip, asr #30]
    22c4:	34205f5f 	strtcc	r5, [r0], #-3935	; 0xfffff0a1
    22c8:	615f5f00 	cmpvs	pc, r0, lsl #30
    22cc:	69727474 	ldmdbvs	r2!, {r2, r4, r5, r6, sl, ip, sp, lr}^
    22d0:	65747562 	ldrbvs	r7, [r4, #-1378]!	; 0xfffffa9e
    22d4:	726f665f 	rsbvc	r6, pc, #99614720	; 0x5f00000
    22d8:	5f74616d 	svcpl	0x0074616d
    22dc:	66727473 			; <UNDEFINED> instruction: 0x66727473
    22e0:	5f6e6f6d 	svcpl	0x006e6f6d
    22e4:	2c61285f 	stclcs	8, cr2, [r1], #-380	; 0xfffffe84
    22e8:	00202962 	eoreq	r2, r0, r2, ror #18
    22ec:	4453425f 	ldrbmi	r4, [r3], #-607	; 0xfffffda1
    22f0:	5a49535f 	bpl	1257074 <_Min_Stack_Size+0x1256c74>
    22f4:	5f545f45 	svcpl	0x00545f45
    22f8:	49464544 	stmdbmi	r6, {r2, r6, r8, sl, lr}^
    22fc:	5f44454e 	svcpl	0x0044454e
    2300:	45520020 	ldrbmi	r0, [r2, #-32]	; 0xffffffe0
    2304:	56524553 			; <UNDEFINED> instruction: 0x56524553
    2308:	00304445 	eorseq	r4, r0, r5, asr #8
    230c:	49555f5f 	ldmdbmi	r5, {r0, r1, r2, r3, r4, r6, r8, r9, sl, fp, ip, lr}^
    2310:	465f544e 	ldrbmi	r5, [pc], -lr, asr #8
    2314:	33545341 	cmpcc	r4, #67108865	; 0x4000001
    2318:	59545f32 	ldmdbpl	r4, {r1, r4, r5, r8, r9, sl, fp, ip, lr}^
    231c:	5f5f4550 	svcpl	0x005f4550
    2320:	736e7520 	cmnvc	lr, #32, 10	; 0x8000000
    2324:	656e6769 	strbvs	r6, [lr, #-1897]!	; 0xfffff897
    2328:	6e692064 	cdpvs	0, 6, cr2, cr9, cr4, {3}
    232c:	5f5f0074 	svcpl	0x005f0074
    2330:	746e695f 	strbtvc	r6, [lr], #-2399	; 0xfffff6a1
    2334:	7a69735f 	bvc	1a5f0b8 <_Min_Stack_Size+0x1a5ecb8>
    2338:	5f745f65 	svcpl	0x00745f65
    233c:	5f002068 	svcpl	0x00002068
    2340:	4454535f 	ldrbmi	r5, [r4], #-863	; 0xfffffca1
    2344:	54555f43 	ldrbpl	r5, [r5], #-3907	; 0xfffff0bd
    2348:	32335f46 	eorscc	r5, r3, #280	; 0x118
    234c:	31205f5f 			; <UNDEFINED> instruction: 0x31205f5f
    2350:	535f5f00 	cmppl	pc, #0, 30
    2354:	4f455a49 	svcmi	0x00455a49
    2358:	4c465f46 	mcrrmi	15, 4, r5, r6, cr6
    235c:	5f54414f 	svcpl	0x0054414f
    2360:	0034205f 	eorseq	r2, r4, pc, asr r0
    2364:	4c465f5f 	mcrrmi	15, 5, r5, r6, cr15
    2368:	58323354 	ldmdapl	r2!, {r2, r4, r6, r8, r9, ip, sp}
    236c:	4e45445f 	mcrmi	4, 2, r4, cr5, cr15, {2}
    2370:	5f4d524f 	svcpl	0x004d524f
    2374:	5f4e494d 	svcpl	0x004e494d
    2378:	2e34205f 	mrccs	0, 1, r2, cr4, cr15, {2}
    237c:	36303439 			; <UNDEFINED> instruction: 0x36303439
    2380:	35343635 	ldrcc	r3, [r4, #-1589]!	; 0xfffff9cb
    2384:	32313438 	eorscc	r3, r1, #56, 8	; 0x38000000
    2388:	34353634 	ldrtcc	r3, [r5], #-1588	; 0xfffff9cc
    238c:	32332d65 	eorscc	r2, r3, #6464	; 0x1940
    2390:	32334634 	eorscc	r4, r3, #52, 12	; 0x3400000
    2394:	5f5f0078 	svcpl	0x005f0078
    2398:	43554e47 	cmpmi	r5, #1136	; 0x470
    239c:	454b494c 	strbmi	r4, [fp, #-2380]	; 0xfffff6b4
    23a0:	54414d5f 	strbpl	r4, [r1], #-3423	; 0xfffff2a1
    23a4:	55425f48 	strbpl	r5, [r2, #-3912]	; 0xfffff0b8
    23a8:	49544c49 	ldmdbmi	r4, {r0, r3, r6, sl, fp, lr}^
    23ac:	45525f4e 	ldrbmi	r5, [r2, #-3918]	; 0xfffff0b2
    23b0:	53504f4c 	cmppl	r0, #76, 30	; 0x130
    23b4:	46410020 	strbmi	r0, [r1], -r0, lsr #32
    23b8:	415f4f49 	cmpmi	pc, r9, asr #30
    23bc:	5f4f4946 	svcpl	0x004f4946
    23c0:	49545845 	ldmdbmi	r4, {r0, r2, r6, fp, ip, lr}^
    23c4:	505f5243 	subspl	r5, pc, r3, asr #4
    23c8:	7469736f 	strbtvc	r7, [r9], #-879	; 0xfffffc91
    23cc:	006e6f69 	rsbeq	r6, lr, r9, ror #30
    23d0:	49535f5f 	ldmdbmi	r3, {r0, r1, r2, r3, r4, r6, r8, r9, sl, fp, ip, lr}^
    23d4:	54415f47 	strbpl	r5, [r1], #-3911	; 0xfffff0b9
    23d8:	43494d4f 	movtmi	r4, #40271	; 0x9d4f
    23dc:	5059545f 	subspl	r5, r9, pc, asr r4
    23e0:	205f5f45 	subscs	r5, pc, r5, asr #30
    23e4:	00746e69 	rsbseq	r6, r4, r9, ror #28
    23e8:	45445f5f 	strbmi	r5, [r4, #-3935]	; 0xfffff0a1
    23ec:	38323143 	ldmdacc	r2!, {r0, r1, r6, r8, ip, sp}
    23f0:	58414d5f 	stmdapl	r1, {r0, r1, r2, r3, r4, r6, r8, sl, fp, lr}^
    23f4:	39205f5f 	stmdbcc	r0!, {r0, r1, r2, r3, r4, r6, r8, r9, sl, fp, ip, lr}
    23f8:	3939392e 	ldmdbcc	r9!, {r1, r2, r3, r5, r8, fp, ip, sp}
    23fc:	39393939 	ldmdbcc	r9!, {r0, r3, r4, r5, r8, fp, ip, sp}
    2400:	39393939 	ldmdbcc	r9!, {r0, r3, r4, r5, r8, fp, ip, sp}
    2404:	39393939 	ldmdbcc	r9!, {r0, r3, r4, r5, r8, fp, ip, sp}
    2408:	39393939 	ldmdbcc	r9!, {r0, r3, r4, r5, r8, fp, ip, sp}
    240c:	39393939 	ldmdbcc	r9!, {r0, r3, r4, r5, r8, fp, ip, sp}
    2410:	39393939 	ldmdbcc	r9!, {r0, r3, r4, r5, r8, fp, ip, sp}
    2414:	39393939 	ldmdbcc	r9!, {r0, r3, r4, r5, r8, fp, ip, sp}
    2418:	36453939 			; <UNDEFINED> instruction: 0x36453939
    241c:	44343431 	ldrtmi	r3, [r4], #-1073	; 0xfffffbcf
    2420:	5f5f004c 	svcpl	0x005f004c
    2424:	43415246 	movtmi	r5, #4678	; 0x1246
    2428:	414d5f54 	cmpmi	sp, r4, asr pc
    242c:	205f5f58 	subscs	r5, pc, r8, asr pc	; <UNPREDICTABLE>
    2430:	46375830 			; <UNDEFINED> instruction: 0x46375830
    2434:	2d504646 	ldclcs	6, cr4, [r0, #-280]	; 0xfffffee8
    2438:	00523531 	subseq	r3, r2, r1, lsr r5
    243c:	43475f5f 	movtmi	r5, #32607	; 0x7f5f
    2440:	45495f43 	strbmi	r5, [r9, #-3907]	; 0xfffff0bd
    2444:	35355f43 	ldrcc	r5, [r5, #-3907]!	; 0xfffff0bd
    2448:	00302039 	eorseq	r2, r0, r9, lsr r0
    244c:	4e495f5f 	mcrmi	15, 2, r5, cr9, cr15, {2}
    2450:	41465f54 	cmpmi	r6, r4, asr pc
    2454:	32335453 	eorscc	r5, r3, #1392508928	; 0x53000000
    2458:	58414d5f 	stmdapl	r1, {r0, r1, r2, r3, r4, r6, r8, sl, fp, lr}^
    245c:	30205f5f 	eorcc	r5, r0, pc, asr pc
    2460:	66663778 			; <UNDEFINED> instruction: 0x66663778
    2464:	66666666 	strbtvs	r6, [r6], -r6, ror #12
    2468:	5f5f0066 	svcpl	0x005f0066
    246c:	4d4f5441 	cfstrdmi	mvd5, [pc, #-260]	; 2370 <_Min_Stack_Size+0x1f70>
    2470:	535f4349 	cmppl	pc, #603979777	; 0x24000001
    2474:	435f5145 	cmpmi	pc, #1073741841	; 0x40000011
    2478:	35205453 	strcc	r5, [r0, #-1107]!	; 0xfffffbad
    247c:	45525f00 	ldrbmi	r5, [r2, #-3840]	; 0xfffff100
    2480:	575f4441 	ldrbpl	r4, [pc, -r1, asr #8]
    2484:	45544952 	ldrbmi	r4, [r4, #-2386]	; 0xfffff6ae
    2488:	5445525f 	strbpl	r5, [r5], #-607	; 0xfffffda1
    248c:	5f4e5255 	svcpl	0x004e5255
    2490:	45505954 	ldrbmi	r5, [r0, #-2388]	; 0xfffff6ac
    2494:	746e6920 	strbtvc	r6, [lr], #-2336	; 0xfffff6e0
    2498:	54584500 	ldrbpl	r4, [r8], #-1280	; 0xfffffb00
    249c:	494c5f49 	stmdbmi	ip, {r0, r3, r6, r8, r9, sl, fp, ip, lr}^
    24a0:	5f37454e 	svcpl	0x0037454e
    24a4:	20374350 	eorscs	r4, r7, r0, asr r3
    24a8:	54584528 	ldrbpl	r4, [r8], #-1320	; 0xfffffad8
    24ac:	50475f49 	subpl	r5, r7, r9, asr #30
    24b0:	4d5f4f49 	ldclmi	15, cr4, [pc, #-292]	; 2394 <_Min_Stack_Size+0x1f94>
    24b4:	69707061 	ldmdbvs	r0!, {r0, r5, r6, ip, sp, lr}^
    24b8:	745f676e 	ldrbvc	r6, [pc], #-1902	; 24c0 <_Min_Stack_Size+0x20c0>
    24bc:	58457b29 	stmdapl	r5, {r0, r3, r5, r8, r9, fp, ip, sp, lr}^
    24c0:	2c374954 			; <UNDEFINED> instruction: 0x2c374954
    24c4:	49504720 	ldmdbmi	r0, {r5, r8, r9, sl, lr}^
    24c8:	202c434f 	eorcs	r4, ip, pc, asr #6
    24cc:	4f495047 	svcmi	0x00495047
    24d0:	4e49505f 	mcrmi	0, 2, r5, cr9, cr15, {2}
    24d4:	202c375f 	eorcs	r3, ip, pc, asr r7
    24d8:	49545845 	ldmdbmi	r4, {r0, r2, r6, fp, ip, lr}^
    24dc:	52495f37 	subpl	r5, r9, #55, 30	; 0xdc
    24e0:	5f007d51 	svcpl	0x00007d51
    24e4:	4843414d 	stmdami	r3, {r0, r2, r3, r6, r8, lr}^
    24e8:	4c445453 	cfstrdmi	mvd5, [r4], {83}	; 0x53
    24ec:	485f4249 	ldmdami	pc, {r0, r3, r6, r9, lr}^	; <UNPREDICTABLE>
    24f0:	5f00205f 	svcpl	0x0000205f
    24f4:	70736e75 	rsbsvc	r6, r3, r5, ror lr
    24f8:	66696365 	strbtvs	r6, [r9], -r5, ror #6
    24fc:	5f646569 	svcpl	0x00646569
    2500:	61636f6c 	cmnvs	r3, ip, ror #30
    2504:	695f656c 	ldmdbvs	pc, {r2, r3, r5, r6, r8, sl, sp, lr}^	; <UNPREDICTABLE>
    2508:	006f666e 	rsbeq	r6, pc, lr, ror #12
    250c:	656e5f5f 	strbvs	r5, [lr, #-3935]!	; 0xfffff0a1
    2510:	775f6465 	ldrbvc	r6, [pc, -r5, ror #8]
    2514:	5f746e69 	svcpl	0x00746e69
    2518:	5f5f0074 	svcpl	0x005f0074
    251c:	5f6d7973 	svcpl	0x006d7973
    2520:	61666564 	cmnvs	r6, r4, ror #10
    2524:	28746c75 	ldmdacs	r4!, {r0, r2, r4, r5, r6, sl, fp, sp, lr}^
    2528:	2c6d7973 			; <UNDEFINED> instruction: 0x2c6d7973
    252c:	6c706d69 	ldclvs	13, cr6, [r0], #-420	; 0xfffffe5c
    2530:	7265762c 	rsbvc	r7, r5, #44, 12	; 0x2c00000
    2534:	20296469 	eorcs	r6, r9, r9, ror #8
    2538:	73615f5f 	cmnvc	r1, #380	; 0x17c
    253c:	285f5f6d 	ldmdacs	pc, {r0, r2, r3, r5, r6, r8, r9, sl, fp, ip, lr}^	; <UNPREDICTABLE>
    2540:	79732e22 	ldmdbvc	r3!, {r1, r5, r9, sl, fp, sp}^
    2544:	7265766d 	rsbvc	r7, r5, #114294784	; 0x6d00000
    2548:	23202220 			; <UNDEFINED> instruction: 0x23202220
    254c:	6c706d69 	ldclvs	13, cr6, [r0], #-420	; 0xfffffe5c
    2550:	202c2220 	eorcs	r2, ip, r0, lsr #4
    2554:	73232022 			; <UNDEFINED> instruction: 0x73232022
    2558:	22206d79 	eorcs	r6, r0, #7744	; 0x1e40
    255c:	20224040 	eorcs	r4, r2, r0, asr #32
    2560:	72657623 	rsbvc	r7, r5, #36700160	; 0x2300000
    2564:	00296469 	eoreq	r6, r9, r9, ror #8
    2568:	52415355 	subpl	r5, r1, #1409286145	; 0x54000001
    256c:	28203154 	stmdacs	r0!, {r2, r4, r6, r8, ip, sp}
    2570:	41535528 	cmpmi	r3, r8, lsr #10
    2574:	545f5452 	ldrbpl	r5, [pc], #-1106	; 257c <_Min_Stack_Size+0x217c>
    2578:	44657079 	strbtmi	r7, [r5], #-121	; 0xffffff87
    257c:	2a206665 	bcs	81bf18 <_Min_Stack_Size+0x81bb18>
    2580:	41535529 	cmpmi	r3, r9, lsr #10
    2584:	5f315452 	svcpl	0x00315452
    2588:	45534142 	ldrbmi	r4, [r3, #-322]	; 0xfffffebe
    258c:	4e490029 	cdpmi	0, 4, cr0, cr9, cr9, {1}
    2590:	41465f54 	cmpmi	r6, r4, asr pc
    2594:	5f385453 	svcpl	0x00385453
    2598:	2058414d 	subscs	r4, r8, sp, asr #2
    259c:	495f5f28 	ldmdbmi	pc, {r3, r5, r8, r9, sl, fp, ip, lr}^	; <UNPREDICTABLE>
    25a0:	465f544e 	ldrbmi	r5, [pc], -lr, asr #8
    25a4:	38545341 	ldmdacc	r4, {r0, r6, r8, r9, ip, lr}^
    25a8:	58414d5f 	stmdapl	r1, {r0, r1, r2, r3, r4, r6, r8, sl, fp, lr}^
    25ac:	00295f5f 	eoreq	r5, r9, pc, asr pc
    25b0:	49555f5f 	ldmdbmi	r5, {r0, r1, r2, r3, r4, r6, r8, r9, sl, fp, ip, lr}^
    25b4:	3631544e 	ldrtcc	r5, [r1], -lr, asr #8
    25b8:	58414d5f 	stmdapl	r1, {r0, r1, r2, r3, r4, r6, r8, sl, fp, lr}^
    25bc:	30205f5f 	eorcc	r5, r0, pc, asr pc
    25c0:	66666678 			; <UNDEFINED> instruction: 0x66666678
    25c4:	53550066 	cmppl	r5, #102	; 0x66
    25c8:	31545241 	cmpcc	r4, r1, asr #4
    25cc:	5341425f 	movtpl	r4, #4703	; 0x125f
    25d0:	78302045 	ldmdavc	r0!, {r0, r2, r6, sp}
    25d4:	31303034 	teqcc	r0, r4, lsr r0
    25d8:	30303833 	eorscc	r3, r0, r3, lsr r8
    25dc:	5f004c55 	svcpl	0x00004c55
    25e0:	4345445f 	movtmi	r4, #21599	; 0x545f
    25e4:	5f383231 	svcpl	0x00383231
    25e8:	4e425553 	mcrmi	5, 2, r5, cr2, cr3, {2}
    25ec:	414d524f 	cmpmi	sp, pc, asr #4
    25f0:	494d5f4c 	stmdbmi	sp, {r2, r3, r6, r8, r9, sl, fp, ip, lr}^
    25f4:	205f5f4e 	subscs	r5, pc, lr, asr #30
    25f8:	30302e30 	eorscc	r2, r0, r0, lsr lr
    25fc:	30303030 	eorscc	r3, r0, r0, lsr r0
    2600:	30303030 	eorscc	r3, r0, r0, lsr r0
    2604:	30303030 	eorscc	r3, r0, r0, lsr r0
    2608:	30303030 	eorscc	r3, r0, r0, lsr r0
    260c:	30303030 	eorscc	r3, r0, r0, lsr r0
    2610:	30303030 	eorscc	r3, r0, r0, lsr r0
    2614:	30303030 	eorscc	r3, r0, r0, lsr r0
    2618:	45313030 	ldrmi	r3, [r1, #-48]!	; 0xffffffd0
    261c:	3431362d 	ldrtcc	r3, [r1], #-1581	; 0xfffff9d3
    2620:	004c4433 	subeq	r4, ip, r3, lsr r4
    2624:	5641485f 			; <UNDEFINED> instruction: 0x5641485f
    2628:	4f4c5f45 	svcmi	0x004c5f45
    262c:	445f474e 	ldrbmi	r4, [pc], #-1870	; 2634 <_Min_Stack_Size+0x2234>
    2630:	4c42554f 	cfstr64mi	mvdx5, [r2], {79}	; 0x4f
    2634:	00312045 	eorseq	r2, r1, r5, asr #32
    2638:	6e695f5f 	mcrvs	15, 3, r5, cr9, cr15, {2}
    263c:	61665f74 	smcvs	26100	; 0x65f4
    2640:	34367473 	ldrtcc	r7, [r6], #-1139	; 0xfffffb8d
    2644:	645f745f 	ldrbvs	r7, [pc], #-1119	; 264c <_Min_Stack_Size+0x224c>
    2648:	6e696665 	cdpvs	6, 6, cr6, cr9, cr5, {3}
    264c:	31206465 			; <UNDEFINED> instruction: 0x31206465
    2650:	45525f00 	ldrbmi	r5, [r2, #-3840]	; 0xfffff100
    2654:	5f544e45 	svcpl	0x00544e45
    2658:	5452424d 	ldrbpl	r4, [r2], #-589	; 0xfffffdb3
    265c:	5f43574f 	svcpl	0x0043574f
    2660:	54415453 	strbpl	r5, [r1], #-1107	; 0xfffffbad
    2664:	74702845 	ldrbtvc	r2, [r0], #-2117	; 0xfffff7bb
    2668:	28202972 	stmdacs	r0!, {r1, r4, r5, r6, r8, fp, sp}
    266c:	72747028 	rsbsvc	r7, r4, #40	; 0x28
    2670:	5f3e2d29 	svcpl	0x003e2d29
    2674:	6373696d 	cmnvs	r3, #1785856	; 0x1b4000
    2678:	6d5f3e2d 	ldclvs	14, cr3, [pc, #-180]	; 25cc <_Min_Stack_Size+0x21cc>
    267c:	6f747262 	svcvs	0x00747262
    2680:	735f6377 	cmpvc	pc, #-603979775	; 0xdc000001
    2684:	65746174 	ldrbvs	r6, [r4, #-372]!	; 0xfffffe8c
    2688:	5f5f0029 	svcpl	0x005f0029
    268c:	455a4953 	ldrbmi	r4, [sl, #-2387]	; 0xfffff6ad
    2690:	535f464f 	cmppl	pc, #82837504	; 0x4f00000
    2694:	54524f48 	ldrbpl	r4, [r2], #-3912	; 0xfffff0b8
    2698:	32205f5f 	eorcc	r5, r0, #380	; 0x17c
    269c:	555f5f00 	ldrbpl	r5, [pc, #-3840]	; 17a4 <_Min_Stack_Size+0x13a4>
    26a0:	43414c4c 	movtmi	r4, #7244	; 0x1c4c
    26a4:	5f4d5543 	svcpl	0x004d5543
    26a8:	54494246 	strbpl	r4, [r9], #-582	; 0xfffffdba
    26ac:	33205f5f 			; <UNDEFINED> instruction: 0x33205f5f
    26b0:	58450032 	stmdapl	r5, {r1, r4, r5}^
    26b4:	4c5f4954 	mrrcmi	9, 5, r4, pc, cr4	; <UNPREDICTABLE>
    26b8:	30454e49 	subcc	r4, r5, r9, asr #28
    26bc:	3042505f 	subcc	r5, r2, pc, asr r0
    26c0:	58452820 	stmdapl	r5, {r5, fp, sp}^
    26c4:	475f4954 			; <UNDEFINED> instruction: 0x475f4954
    26c8:	5f4f4950 	svcpl	0x004f4950
    26cc:	7070614d 	rsbsvc	r6, r0, sp, asr #2
    26d0:	5f676e69 	svcpl	0x00676e69
    26d4:	457b2974 	ldrbmi	r2, [fp, #-2420]!	; 0xfffff68c
    26d8:	30495458 	subcc	r5, r9, r8, asr r4
    26dc:	5047202c 	subpl	r2, r7, ip, lsr #32
    26e0:	2c424f49 	mcrrcs	15, 4, r4, r2, cr9
    26e4:	49504720 	ldmdbmi	r0, {r5, r8, r9, sl, lr}^
    26e8:	49505f4f 	ldmdbmi	r0, {r0, r1, r2, r3, r6, r8, r9, sl, fp, ip, lr}^
    26ec:	2c305f4e 	ldccs	15, cr5, [r0], #-312	; 0xfffffec8
    26f0:	54584520 	ldrbpl	r4, [r8], #-1312	; 0xfffffae0
    26f4:	495f3049 	ldmdbmi	pc, {r0, r3, r6, ip, sp}^	; <UNPREDICTABLE>
    26f8:	007d5152 	rsbseq	r5, sp, r2, asr r1
    26fc:	45445f5f 	strbmi	r5, [r4, #-3935]	; 0xfffff0a1
    2700:	534e4f43 	movtpl	r4, #61251	; 0xef43
    2704:	79742854 	ldmdbvc	r4!, {r2, r4, r6, fp, sp}^
    2708:	762c6570 			; <UNDEFINED> instruction: 0x762c6570
    270c:	20297261 	eorcs	r7, r9, r1, ror #4
    2710:	79742828 	ldmdbvc	r4!, {r3, r5, fp, sp}^
    2714:	28296570 	stmdacs	r9!, {r4, r5, r6, r8, sl, sp, lr}
    2718:	69755f5f 	ldmdbvs	r5!, {r0, r1, r2, r3, r4, r6, r8, r9, sl, fp, ip, lr}^
    271c:	7470746e 	ldrbtvc	r7, [r0], #-1134	; 0xfffffb92
    2720:	29745f72 	ldmdbcs	r4!, {r1, r4, r5, r6, r8, r9, sl, fp, ip, lr}^
    2724:	6e6f6328 	cdpvs	3, 6, cr6, cr15, cr8, {1}
    2728:	76207473 			; <UNDEFINED> instruction: 0x76207473
    272c:	2064696f 	rsbcs	r6, r4, pc, ror #18
    2730:	7628292a 	strtvc	r2, [r8], -sl, lsr #18
    2734:	29297261 	stmdbcs	r9!, {r0, r5, r6, r9, ip, sp, lr}
    2738:	49564e00 	ldmdbmi	r6, {r9, sl, fp, lr}^
    273c:	52495f43 	subpl	r5, r9, #268	; 0x10c
    2740:	455f3651 	ldrbmi	r3, [pc, #-1617]	; 20f7 <_Min_Stack_Size+0x1cf7>
    2744:	30495458 	subcc	r5, r9, r8, asr r4
    2748:	7369445f 	cmnvc	r9, #1593835520	; 0x5f000000
    274c:	656c6261 	strbvs	r6, [ip, #-609]!	; 0xfffffd9f
    2750:	28202928 	stmdacs	r0!, {r3, r5, r8, fp, sp}
    2754:	4349564e 	movtmi	r5, #38478	; 0x964e
    2758:	4543495f 	strbmi	r4, [r3, #-2399]	; 0xfffff6a1
    275c:	7c203052 	stcvc	0, cr3, [r0], #-328	; 0xfffffeb8
    2760:	3128203d 			; <UNDEFINED> instruction: 0x3128203d
    2764:	29363c3c 	ldmdbcs	r6!, {r2, r3, r4, r5, sl, fp, ip, sp}
    2768:	535f0029 	cmppl	pc, #41	; 0x29
    276c:	465f5359 			; <UNDEFINED> instruction: 0x465f5359
    2770:	55544145 	ldrbpl	r4, [r4, #-325]	; 0xfffffebb
    2774:	5f534552 	svcpl	0x00534552
    2778:	5f002048 	svcpl	0x00002048
    277c:	00636e69 	rsbeq	r6, r3, r9, ror #28
    2780:	646e695f 	strbtvs	r6, [lr], #-2399	; 0xfffff6a1
    2784:	49504700 	ldmdbmi	r0, {r8, r9, sl, lr}^
    2788:	49505f4f 	ldmdbmi	r0, {r0, r1, r2, r3, r6, r8, r9, sl, fp, ip, lr}^
    278c:	20335f4e 	eorscs	r5, r3, lr, asr #30
    2790:	69752828 	ldmdbvs	r5!, {r3, r5, fp, sp}^
    2794:	3631746e 	ldrtcc	r7, [r1], -lr, ror #8
    2798:	3029745f 	eorcc	r7, r9, pc, asr r4
    279c:	30303078 	eorscc	r3, r0, r8, ror r0
    27a0:	5f002938 	svcpl	0x00002938
    27a4:	5a49535f 	bpl	1257528 <_Min_Stack_Size+0x1257128>
    27a8:	5f464f45 	svcpl	0x00464f45
    27ac:	474e4f4c 	strbmi	r4, [lr, -ip, asr #30]
    27b0:	554f445f 	strbpl	r4, [pc, #-1119]	; 2359 <_Min_Stack_Size+0x1f59>
    27b4:	5f454c42 	svcpl	0x00454c42
    27b8:	0038205f 	eorseq	r2, r8, pc, asr r0
    27bc:	52505f5f 	subspl	r5, r0, #380	; 0x17c
    27c0:	414d4741 	cmpmi	sp, r1, asr #14
    27c4:	4445525f 	strbmi	r5, [r5], #-607	; 0xfffffda1
    27c8:	4e494645 	cdpmi	6, 4, cr4, cr9, cr5, {2}
    27cc:	58455f45 	stmdapl	r5, {r0, r2, r6, r8, r9, sl, fp, ip, lr}^
    27d0:	4d414e54 	stclmi	14, cr4, [r1, #-336]	; 0xfffffeb0
    27d4:	00312045 	eorseq	r2, r1, r5, asr #32
    27d8:	43575f5f 	cmpmi	r7, #380	; 0x17c
    27dc:	5f524148 	svcpl	0x00524148
    27e0:	45505954 	ldrbmi	r5, [r0, #-2388]	; 0xfffff6ac
    27e4:	75205f5f 	strvc	r5, [r0, #-3935]!	; 0xfffff0a1
    27e8:	6769736e 	strbvs	r7, [r9, -lr, ror #6]!
    27ec:	2064656e 	rsbcs	r6, r4, lr, ror #10
    27f0:	00746e69 	rsbseq	r6, r4, r9, ror #28
    27f4:	4545525f 	strbmi	r5, [r5, #-607]	; 0xfffffda1
    27f8:	535f544e 	cmppl	pc, #1308622848	; 0x4e000000
    27fc:	474e4749 	strbmi	r4, [lr, -r9, asr #14]
    2800:	70284d41 	eorvc	r4, r8, r1, asr #26
    2804:	20297274 	eorcs	r7, r9, r4, ror r2
    2808:	74702828 	ldrbtvc	r2, [r0], #-2088	; 0xfffff7d8
    280c:	3e2d2972 			; <UNDEFINED> instruction: 0x3e2d2972
    2810:	6d61675f 	stclvs	7, cr6, [r1, #-380]!	; 0xfffffe84
    2814:	735f616d 	cmpvc	pc, #1073741851	; 0x4000001b
    2818:	676e6769 	strbvs	r6, [lr, -r9, ror #14]!
    281c:	00296d61 	eoreq	r6, r9, r1, ror #26
    2820:	49545845 	ldmdbmi	r4, {r0, r2, r6, fp, ip, lr}^
    2824:	52495f34 	subpl	r5, r9, #52, 30	; 0xd0
    2828:	6e614851 	mcrvs	8, 3, r4, cr1, cr1, {2}
    282c:	72656c64 	rsbvc	r6, r5, #100, 24	; 0x6400
    2830:	555f5f00 	ldrbpl	r5, [pc, #-3840]	; 1938 <_Min_Stack_Size+0x1538>
    2834:	495f4153 	ldmdbmi	pc, {r0, r1, r4, r6, r8, lr}^	; <UNPREDICTABLE>
    2838:	5f544942 	svcpl	0x00544942
    283c:	3631205f 			; <UNDEFINED> instruction: 0x3631205f
    2840:	54584500 	ldrbpl	r4, [r8], #-1280	; 0xfffffb00
    2844:	495f3149 	ldmdbmi	pc, {r0, r3, r6, r8, ip, sp}^	; <UNPREDICTABLE>
    2848:	37205152 			; <UNDEFINED> instruction: 0x37205152
    284c:	54584500 	ldrbpl	r4, [r8], #-1280	; 0xfffffb00
    2850:	6f435f49 	svcvs	0x00435f49
    2854:	6769666e 	strbvs	r6, [r9, -lr, ror #12]!
    2858:	544e4900 	strbpl	r4, [lr], #-2304	; 0xfffff700
    285c:	5f58414d 	svcpl	0x0058414d
    2860:	29782843 	ldmdbcs	r8!, {r0, r1, r6, fp, sp}^
    2864:	495f5f20 	ldmdbmi	pc, {r5, r8, r9, sl, fp, ip, lr}^	; <UNPREDICTABLE>
    2868:	414d544e 	cmpmi	sp, lr, asr #8
    286c:	28435f58 	stmdacs	r3, {r3, r4, r6, r8, r9, sl, fp, ip, lr}^
    2870:	5f002978 	svcpl	0x00002978
    2874:	65656e5f 	strbvs	r6, [r5, #-3679]!	; 0xfffff1a1
    2878:	63775f64 	cmnvs	r7, #100, 30	; 0x190
    287c:	5f726168 	svcpl	0x00726168
    2880:	5f002074 	svcpl	0x00002074
    2884:	6469685f 	strbtvs	r6, [r9], #-2143	; 0xfffff7a1
    2888:	206e6564 	rsbcs	r6, lr, r4, ror #10
    288c:	74615f5f 	strbtvc	r5, [r1], #-3935	; 0xfffff0a1
    2890:	62697274 	rsbvs	r7, r9, #116, 4	; 0x40000007
    2894:	5f657475 	svcpl	0x00657475
    2898:	5f28285f 	svcpl	0x0028285f
    289c:	7369765f 	cmnvc	r9, #99614720	; 0x5f00000
    28a0:	6c696269 	sfmvs	f6, 2, [r9], #-420	; 0xfffffe5c
    28a4:	5f797469 	svcpl	0x00797469
    28a8:	6822285f 	stmdavs	r2!, {r0, r1, r2, r3, r4, r6, fp, sp}
    28ac:	65646469 	strbvs	r6, [r4, #-1129]!	; 0xfffffb97
    28b0:	2929226e 	stmdbcs	r9!, {r1, r2, r3, r5, r6, r9, sp}
    28b4:	4e490029 	cdpmi	0, 4, cr0, cr9, cr9, {1}
    28b8:	454c5f54 	strbmi	r5, [ip, #-3924]	; 0xfffff0ac
    28bc:	33545341 	cmpcc	r4, #67108865	; 0x4000001
    28c0:	414d5f32 	cmpmi	sp, r2, lsr pc
    28c4:	5f282058 	svcpl	0x00282058
    28c8:	544e495f 	strbpl	r4, [lr], #-2399	; 0xfffff6a1
    28cc:	41454c5f 	cmpmi	r5, pc, asr ip
    28d0:	32335453 	eorscc	r5, r3, #1392508928	; 0x53000000
    28d4:	58414d5f 	stmdapl	r1, {r0, r1, r2, r3, r4, r6, r8, sl, fp, lr}^
    28d8:	00295f5f 	eoreq	r5, r9, pc, asr pc
    28dc:	736e665f 	cmnvc	lr, #99614720	; 0x5f00000
    28e0:	535f5f00 	cmppl	pc, #0, 30
    28e4:	43415246 	movtmi	r5, #4678	; 0x1246
    28e8:	414d5f54 	cmpmi	sp, r4, asr pc
    28ec:	205f5f58 	subscs	r5, pc, r8, asr pc	; <UNPREDICTABLE>
    28f0:	46375830 			; <UNDEFINED> instruction: 0x46375830
    28f4:	48372d50 	ldmdami	r7!, {r4, r6, r8, sl, fp, sp}
    28f8:	5f5f0052 	svcpl	0x005f0052
    28fc:	544e4955 	strbpl	r4, [lr], #-2389	; 0xfffff6ab
    2900:	5341465f 	movtpl	r4, #5727	; 0x165f
    2904:	5f343654 	svcpl	0x00343654
    2908:	45505954 	ldrbmi	r5, [r0, #-2388]	; 0xfffff6ac
    290c:	6c205f5f 	stcvs	15, cr5, [r0], #-380	; 0xfffffe84
    2910:	20676e6f 	rsbcs	r6, r7, pc, ror #28
    2914:	676e6f6c 	strbvs	r6, [lr, -ip, ror #30]!
    2918:	736e7520 	cmnvc	lr, #32, 10	; 0x8000000
    291c:	656e6769 	strbvs	r6, [lr, #-1897]!	; 0xfffff897
    2920:	6e692064 	cdpvs	0, 6, cr2, cr9, cr4, {3}
    2924:	58450074 	stmdapl	r5, {r2, r4, r5, r6}^
    2928:	545f4954 	ldrbpl	r4, [pc], #-2388	; 2930 <_Min_Stack_Size+0x2530>
    292c:	67676972 			; <UNDEFINED> instruction: 0x67676972
    2930:	525f7265 	subspl	r7, pc, #1342177286	; 0x50000006
    2934:	4e495341 	cdpmi	3, 4, cr5, cr9, cr1, {2}
    2938:	41465f47 	cmpmi	r6, r7, asr #30
    293c:	4e494c4c 	cdpmi	12, 4, cr4, cr9, cr12, {2}
    2940:	00322047 	eorseq	r2, r2, r7, asr #32
    2944:	4e49575f 	mcrmi	7, 2, r5, cr9, cr15, {2}
    2948:	20545f54 	subscs	r5, r4, r4, asr pc
    294c:	49564e00 	ldmdbmi	r6, {r9, sl, fp, lr}^
    2950:	52495f43 	subpl	r5, r9, #268	; 0x10c
    2954:	455f3751 	ldrbmi	r3, [pc, #-1873]	; 220b <_Min_Stack_Size+0x1e0b>
    2958:	31495458 	cmpcc	r9, r8, asr r4
    295c:	616e455f 	cmnvs	lr, pc, asr r5
    2960:	28656c62 	stmdacs	r5!, {r1, r5, r6, sl, fp, sp, lr}^
    2964:	4e282029 	cdpmi	0, 2, cr2, cr8, cr9, {1}
    2968:	5f434956 	svcpl	0x00434956
    296c:	52455349 	subpl	r5, r5, #603979777	; 0x24000001
    2970:	3d7c2030 	ldclcc	0, cr2, [ip, #-192]!	; 0xffffff40
    2974:	3c312820 	ldccc	8, cr2, [r1], #-128	; 0xffffff80
    2978:	2929373c 	stmdbcs	r9!, {r2, r3, r4, r5, r8, r9, sl, ip, sp}
    297c:	544e4900 	strbpl	r4, [lr], #-2304	; 0xfffff700
    2980:	41454c5f 	cmpmi	r5, pc, asr ip
    2984:	5f385453 	svcpl	0x00385453
    2988:	2058414d 	subscs	r4, r8, sp, asr #2
    298c:	495f5f28 	ldmdbmi	pc, {r3, r5, r8, r9, sl, fp, ip, lr}^	; <UNPREDICTABLE>
    2990:	4c5f544e 	cfldrdmi	mvd5, [pc], {78}	; 0x4e
    2994:	54534145 	ldrbpl	r4, [r3], #-325	; 0xfffffebb
    2998:	414d5f38 	cmpmi	sp, r8, lsr pc
    299c:	295f5f58 	ldmdbcs	pc, {r3, r4, r6, r8, r9, sl, fp, ip, lr}^	; <UNPREDICTABLE>
    29a0:	6c5f5f00 	mrrcvs	15, 0, r5, pc, cr0	; <UNPREDICTABLE>
    29a4:	5f6b636f 	svcpl	0x006b636f
    29a8:	736f6c63 	cmnvc	pc, #25344	; 0x6300
    29ac:	6f6c2865 	svcvs	0x006c2865
    29b0:	20296b63 	eorcs	r6, r9, r3, ror #22
    29b4:	6f762828 	svcvs	0x00762828
    29b8:	20296469 	eorcs	r6, r9, r9, ror #8
    29bc:	5f002930 	svcpl	0x00002930
    29c0:	544c465f 	strbpl	r4, [ip], #-1631	; 0xfffff9a1
    29c4:	4e494d5f 	mcrmi	13, 2, r4, cr9, cr15, {2}
    29c8:	31205f5f 			; <UNDEFINED> instruction: 0x31205f5f
    29cc:	3537312e 	ldrcc	r3, [r7, #-302]!	; 0xfffffed2
    29d0:	33343934 	teqcc	r4, #52, 18	; 0xd0000
    29d4:	32383035 	eorscc	r3, r8, #53	; 0x35
    29d8:	37383232 			; <UNDEFINED> instruction: 0x37383232
    29dc:	332d6535 			; <UNDEFINED> instruction: 0x332d6535
    29e0:	5f004638 	svcpl	0x00004638
    29e4:	65656e5f 	strbvs	r6, [r5, #-3679]!	; 0xfffff1a1
    29e8:	69735f64 	ldmdbvs	r3!, {r2, r5, r6, r8, r9, sl, fp, ip, lr}^
    29ec:	745f657a 	ldrbvc	r6, [pc], #-1402	; 29f4 <_Min_Stack_Size+0x25f4>
    29f0:	5f5f0020 	svcpl	0x005f0020
    29f4:	465f4148 	ldrbmi	r4, [pc], -r8, asr #2
    29f8:	5f544942 	svcpl	0x00544942
    29fc:	0037205f 	eorseq	r2, r7, pc, asr r0
    2a00:	334d5453 	movtcc	r5, #54355	; 0xd453
    2a04:	30314632 	eorscc	r4, r1, r2, lsr r6
    2a08:	5f364333 	svcpl	0x00364333
    2a0c:	49545845 	ldmdbmi	r4, {r0, r2, r6, fp, ip, lr}^
    2a10:	4952445f 	ldmdbmi	r2, {r0, r1, r2, r3, r4, r6, sl, lr}^
    2a14:	5f524556 	svcpl	0x00524556
    2a18:	00205f48 	eoreq	r5, r0, r8, asr #30
    2a1c:	4545525f 	strbmi	r5, [r5, #-607]	; 0xfffffda1
    2a20:	4d5f544e 	cfldrdmi	mvd5, [pc, #-312]	; 28f0 <_Min_Stack_Size+0x24f0>
    2a24:	4e454c42 	cdpmi	12, 4, cr4, cr5, cr2, {2}
    2a28:	4154535f 	cmpmi	r4, pc, asr r3
    2a2c:	70284554 	eorvc	r4, r8, r4, asr r5
    2a30:	20297274 	eorcs	r7, r9, r4, ror r2
    2a34:	74702828 	ldrbtvc	r2, [r0], #-2088	; 0xfffff7d8
    2a38:	3e2d2972 			; <UNDEFINED> instruction: 0x3e2d2972
    2a3c:	73696d5f 	cmnvc	r9, #6080	; 0x17c0
    2a40:	5f3e2d63 	svcpl	0x003e2d63
    2a44:	656c626d 	strbvs	r6, [ip, #-621]!	; 0xfffffd93
    2a48:	74735f6e 	ldrbtvc	r5, [r3], #-3950	; 0xfffff092
    2a4c:	29657461 	stmdbcs	r5!, {r0, r5, r6, sl, ip, sp, lr}^
    2a50:	555f5f00 	ldrbpl	r5, [pc, #-3840]	; 1b58 <_Min_Stack_Size+0x1758>
    2a54:	43415246 	movtmi	r5, #4678	; 0x1246
    2a58:	494d5f54 	stmdbmi	sp, {r2, r4, r6, r8, r9, sl, fp, ip, lr}^
    2a5c:	205f5f4e 	subscs	r5, pc, lr, asr #30
    2a60:	55302e30 	ldrpl	r2, [r0, #-3632]!	; 0xfffff1d0
    2a64:	49530052 	ldmdbmi	r3, {r1, r4, r6}^
    2a68:	54415f47 	strbpl	r5, [r1], #-3911	; 0xfffff0b9
    2a6c:	43494d4f 	movtmi	r4, #40271	; 0x9d4f
    2a70:	58414d5f 	stmdapl	r1, {r0, r1, r2, r3, r4, r6, r8, sl, fp, lr}^
    2a74:	5f5f2820 	svcpl	0x005f2820
    2a78:	49445453 	stmdbmi	r4, {r0, r1, r4, r6, sl, ip, lr}^
    2a7c:	455f544e 	ldrbmi	r5, [pc, #-1102]	; 2636 <_Min_Stack_Size+0x2236>
    2a80:	49285058 	stmdbmi	r8!, {r3, r4, r6, ip, lr}
    2a84:	4d5f544e 	cfldrdmi	mvd5, [pc, #-312]	; 2954 <_Min_Stack_Size+0x2554>
    2a88:	29295841 	stmdbcs	r9!, {r0, r6, fp, ip, lr}
    2a8c:	6e5f5f00 	cdpvs	15, 5, cr5, cr15, cr0, {0}
    2a90:	6c6e696f 			; <UNDEFINED> instruction: 0x6c6e696f
    2a94:	20656e69 	rsbcs	r6, r5, r9, ror #28
    2a98:	74615f5f 	strbtvc	r5, [r1], #-3935	; 0xfffff0a1
    2a9c:	62697274 	rsbvs	r7, r9, #116, 4	; 0x40000007
    2aa0:	5f657475 	svcpl	0x00657475
    2aa4:	2828205f 	stmdacs	r8!, {r0, r1, r2, r3, r4, r6, sp}
    2aa8:	6f6e5f5f 	svcvs	0x006e5f5f
    2aac:	696c6e69 	stmdbvs	ip!, {r0, r3, r5, r6, r9, sl, fp, sp, lr}^
    2ab0:	5f5f656e 	svcpl	0x005f656e
    2ab4:	55002929 	strpl	r2, [r0, #-2345]	; 0xfffff6d7
    2ab8:	36544e49 	ldrbcc	r4, [r4], -r9, asr #28
    2abc:	414d5f34 	cmpmi	sp, r4, lsr pc
    2ac0:	5f282058 	svcpl	0x00282058
    2ac4:	4e49555f 	mcrmi	5, 2, r5, cr9, cr15, {2}
    2ac8:	5f343654 	svcpl	0x00343654
    2acc:	5f58414d 	svcpl	0x0058414d
    2ad0:	4e00295f 			; <UNDEFINED> instruction: 0x4e00295f
    2ad4:	5f434956 	svcpl	0x00434956
    2ad8:	34515249 	ldrbcc	r5, [r1], #-585	; 0xfffffdb7
    2adc:	58455f30 	stmdapl	r5, {r4, r5, r8, r9, sl, fp, ip, lr}^
    2ae0:	5f394954 	svcpl	0x00394954
    2ae4:	445f3531 	ldrbmi	r3, [pc], #-1329	; 2aec <_Min_Stack_Size+0x26ec>
    2ae8:	62617369 	rsbvs	r7, r1, #-1543503871	; 0xa4000001
    2aec:	2928656c 	stmdbcs	r8!, {r2, r3, r5, r6, r8, sl, sp, lr}
    2af0:	564e2820 	strbpl	r2, [lr], -r0, lsr #16
    2af4:	495f4349 	ldmdbmi	pc, {r0, r3, r6, r8, r9, lr}^	; <UNPREDICTABLE>
    2af8:	31524543 	cmpcc	r2, r3, asr #10
    2afc:	203d7c20 	eorscs	r7, sp, r0, lsr #24
    2b00:	3c3c3128 	ldfccs	f3, [ip], #-160	; 0xffffff60
    2b04:	00292938 	eoreq	r2, r9, r8, lsr r9
    2b08:	49545845 	ldmdbmi	r4, {r0, r2, r6, fp, ip, lr}^
    2b0c:	4e494c5f 	mcrmi	12, 2, r4, cr9, cr15, {2}
    2b10:	505f3545 	subspl	r3, pc, r5, asr #10
    2b14:	28203544 	stmdacs	r0!, {r2, r6, r8, sl, ip, sp}
    2b18:	49545845 	ldmdbmi	r4, {r0, r2, r6, fp, ip, lr}^
    2b1c:	4950475f 	ldmdbmi	r0, {r0, r1, r2, r3, r4, r6, r8, r9, sl, lr}^
    2b20:	614d5f4f 	cmpvs	sp, pc, asr #30
    2b24:	6e697070 	mcrvs	0, 3, r7, cr9, cr0, {3}
    2b28:	29745f67 	ldmdbcs	r4!, {r0, r1, r2, r5, r6, r8, r9, sl, fp, ip, lr}^
    2b2c:	5458457b 	ldrbpl	r4, [r8], #-1403	; 0xfffffa85
    2b30:	202c3549 	eorcs	r3, ip, r9, asr #10
    2b34:	4f495047 	svcmi	0x00495047
    2b38:	47202c44 	strmi	r2, [r0, -r4, asr #24]!
    2b3c:	5f4f4950 	svcpl	0x004f4950
    2b40:	5f4e4950 	svcpl	0x004e4950
    2b44:	45202c35 	strmi	r2, [r0, #-3125]!	; 0xfffff3cb
    2b48:	35495458 	strbcc	r5, [r9, #-1112]	; 0xfffffba8
    2b4c:	5152495f 	cmppl	r2, pc, asr r9
    2b50:	5f5f007d 	svcpl	0x005f007d
    2b54:	33434544 	movtcc	r4, #13636	; 0x3544
    2b58:	494d5f32 	stmdbmi	sp, {r1, r4, r5, r8, r9, sl, fp, ip, lr}^
    2b5c:	58455f4e 	stmdapl	r5, {r1, r2, r3, r6, r8, r9, sl, fp, ip, lr}^
    2b60:	205f5f50 	subscs	r5, pc, r0, asr pc	; <UNPREDICTABLE>
    2b64:	34392d28 	ldrtcc	r2, [r9], #-3368	; 0xfffff2d8
    2b68:	58450029 	stmdapl	r5, {r0, r3, r5}^
    2b6c:	33314954 	teqcc	r1, #84, 18	; 0x150000
    2b70:	5152495f 	cmppl	r2, pc, asr r9
    2b74:	00303420 	eorseq	r3, r0, r0, lsr #8
    2b78:	53555f5f 	cmppl	r5, #380	; 0x17c
    2b7c:	43415246 	movtmi	r5, #4678	; 0x1246
    2b80:	42495f54 	submi	r5, r9, #84, 30	; 0x150
    2b84:	5f5f5449 	svcpl	0x005f5449
    2b88:	5f003020 	svcpl	0x00003020
    2b8c:	544e495f 	strbpl	r4, [lr], #-2399	; 0xfffff6a1
    2b90:	435f3233 	cmpmi	pc, #805306371	; 0x30000003
    2b94:	20296328 	eorcs	r6, r9, r8, lsr #6
    2b98:	23232063 			; <UNDEFINED> instruction: 0x23232063
    2b9c:	5f004c20 	svcpl	0x00004c20
    2ba0:	6e69755f 	mcrvs	5, 3, r7, cr9, cr15, {2}
    2ba4:	5f363174 	svcpl	0x00363174
    2ba8:	525f0074 	subspl	r0, pc, #116	; 0x74
    2bac:	544e4545 	strbpl	r4, [lr], #-1349	; 0xfffffabb
    2bb0:	4749535f 	smlsldmi	r5, r9, pc, r3	; <UNPREDICTABLE>
    2bb4:	5f4c414e 	svcpl	0x004c414e
    2bb8:	28465542 	stmdacs	r6, {r1, r6, r8, sl, ip, lr}^
    2bbc:	29727470 	ldmdbcs	r2!, {r4, r5, r6, sl, ip, sp, lr}^
    2bc0:	70282820 	eorvc	r2, r8, r0, lsr #16
    2bc4:	2d297274 	sfmcs	f7, 4, [r9, #-464]!	; 0xfffffe30
    2bc8:	69735f3e 	ldmdbvs	r3!, {r1, r2, r3, r4, r5, r8, r9, sl, fp, ip, lr}^
    2bcc:	6c616e67 	stclvs	14, cr6, [r1], #-412	; 0xfffffe64
    2bd0:	6675625f 			; <UNDEFINED> instruction: 0x6675625f
    2bd4:	50470029 	subpl	r0, r7, r9, lsr #32
    2bd8:	505f4f49 	subspl	r4, pc, r9, asr #30
    2bdc:	6f436e69 	svcvs	0x00436e69
    2be0:	6769666e 	strbvs	r6, [r9, -lr, ror #12]!
    2be4:	5f00745f 	svcpl	0x0000745f
    2be8:	4653555f 			; <UNDEFINED> instruction: 0x4653555f
    2bec:	54434152 	strbpl	r4, [r3], #-338	; 0xfffffeae
    2bf0:	4e494d5f 	mcrmi	13, 2, r4, cr9, cr15, {2}
    2bf4:	30205f5f 	eorcc	r5, r0, pc, asr pc
    2bf8:	4855302e 	ldmdami	r5, {r1, r2, r3, r5, ip, sp}^
    2bfc:	5f5f0052 	svcpl	0x005f0052
    2c00:	64657375 	strbtvs	r7, [r5], #-885	; 0xfffffc8b
    2c04:	615f5f20 	cmpvs	pc, r0, lsr #30
    2c08:	69727474 	ldmdbvs	r2!, {r2, r4, r5, r6, sl, ip, sp, lr}^
    2c0c:	65747562 	ldrbvs	r7, [r4, #-1378]!	; 0xfffffa9e
    2c10:	28285f5f 	stmdacs	r8!, {r0, r1, r2, r3, r4, r6, r8, r9, sl, fp, ip, lr}
    2c14:	73755f5f 	cmnvc	r5, #380	; 0x17c
    2c18:	5f5f6465 	svcpl	0x005f6465
    2c1c:	5f002929 	svcpl	0x00002929
    2c20:	6e65675f 	mcrvs	7, 3, r6, cr5, cr15, {2}
    2c24:	63697265 	cmnvs	r9, #1342177286	; 0x50000006
    2c28:	70786528 	rsbsvc	r6, r8, r8, lsr #10
    2c2c:	2c742c72 	ldclcs	12, cr2, [r4], #-456	; 0xfffffe38
    2c30:	2c736579 	cfldr64cs	mvdx6, [r3], #-484	; 0xfffffe1c
    2c34:	20296f6e 	eorcs	r6, r9, lr, ror #30
    2c38:	6e65475f 	mcrvs	7, 3, r4, cr5, cr15, {2}
    2c3c:	63697265 	cmnvs	r9, #1342177286	; 0x50000006
    2c40:	70786528 	rsbsvc	r6, r8, r8, lsr #10
    2c44:	74202c72 	strtvc	r2, [r0], #-3186	; 0xfffff38e
    2c48:	6579203a 	ldrbvs	r2, [r9, #-58]!	; 0xffffffc6
    2c4c:	64202c73 	strtvs	r2, [r0], #-3187	; 0xfffff38d
    2c50:	75616665 	strbvc	r6, [r1, #-1637]!	; 0xfffff99b
    2c54:	203a746c 	eorscs	r7, sl, ip, ror #8
    2c58:	00296f6e 	eoreq	r6, r9, lr, ror #30
    2c5c:	52415f5f 	subpl	r5, r1, #380	; 0x17c
    2c60:	454e5f4d 	strbmi	r5, [lr, #-3917]	; 0xfffff0b3
    2c64:	5f004e4f 	svcpl	0x00004e4f
    2c68:	4e454552 	mcrmi	5, 2, r4, cr5, cr2, {2}
    2c6c:	4d455f54 	stclmi	15, cr5, [r5, #-336]	; 0xfffffeb0
    2c70:	45475245 	strbmi	r5, [r7, #-581]	; 0xfffffdbb
    2c74:	2859434e 	ldmdacs	r9, {r1, r2, r3, r6, r8, r9, lr}^
    2c78:	29727470 	ldmdbcs	r2!, {r4, r5, r6, sl, ip, sp, lr}^
    2c7c:	70282820 	eorvc	r2, r8, r0, lsr #16
    2c80:	2d297274 	sfmcs	f7, 4, [r9, #-464]!	; 0xfffffe30
    2c84:	6d655f3e 	stclvs	15, cr5, [r5, #-248]!	; 0xffffff08
    2c88:	65677265 	strbvs	r7, [r7, #-613]!	; 0xfffffd9b
    2c8c:	2979636e 	ldmdbcs	r9!, {r1, r2, r3, r5, r6, r8, r9, sp, lr}^
    2c90:	475f5f00 	ldrbmi	r5, [pc, -r0, lsl #30]
    2c94:	4c43554e 	cfstr64mi	mvdx5, [r3], {78}	; 0x4e
    2c98:	5f454b49 	svcpl	0x00454b49
    2c9c:	524f5443 	subpl	r5, pc, #1124073472	; 0x43000000
    2ca0:	4345535f 	movtmi	r5, #21343	; 0x535f
    2ca4:	4e4f4954 			; <UNDEFINED> instruction: 0x4e4f4954
    2ca8:	4e41485f 	mcrmi	8, 2, r4, cr1, cr15, {2}
    2cac:	4e494c44 	cdpmi	12, 4, cr4, cr9, cr4, {2}
    2cb0:	00312047 	eorseq	r2, r1, r7, asr #32
    2cb4:	49555f5f 	ldmdbmi	r5, {r0, r1, r2, r3, r4, r6, r8, r9, sl, fp, ip, lr}^
    2cb8:	5f38544e 	svcpl	0x0038544e
    2cbc:	5f58414d 	svcpl	0x0058414d
    2cc0:	7830205f 	ldmdavc	r0!, {r0, r1, r2, r3, r4, r6, sp}
    2cc4:	5f006666 	svcpl	0x00006666
    2cc8:	6e695f5f 	mcrvs	15, 3, r5, cr9, cr15, {2}
    2ccc:	5f363174 	svcpl	0x00363174
    2cd0:	65645f74 	strbvs	r5, [r4, #-3956]!	; 0xfffff08c
    2cd4:	656e6966 	strbvs	r6, [lr, #-2406]!	; 0xfffff69a
    2cd8:	00312064 	eorseq	r2, r1, r4, rrx
    2cdc:	4545525f 	strbmi	r5, [r5, #-607]	; 0xfffffda1
    2ce0:	5f20544e 	svcpl	0x0020544e
    2ce4:	75706d69 	ldrbvc	r6, [r0, #-3433]!	; 0xfffff297
    2ce8:	705f6572 	subsvc	r6, pc, r2, ror r5	; <UNPREDICTABLE>
    2cec:	5f007274 	svcpl	0x00007274
    2cf0:	42444c5f 	submi	r4, r4, #24320	; 0x5f00
    2cf4:	414d5f4c 	cmpmi	sp, ip, asr #30
    2cf8:	58455f58 	stmdapl	r5, {r3, r4, r6, r8, r9, sl, fp, ip, lr}^
    2cfc:	205f5f50 	subscs	r5, pc, r0, asr pc	; <UNPREDICTABLE>
    2d00:	34323031 	ldrtcc	r3, [r2], #-49	; 0xffffffcf
    2d04:	655f5f00 	ldrbvs	r5, [pc, #-3840]	; 1e0c <_Min_Stack_Size+0x1a0c>
    2d08:	726f7078 	rsbvc	r7, pc, #120	; 0x78
    2d0c:	20646574 	rsbcs	r6, r4, r4, ror r5
    2d10:	74615f5f 	strbtvc	r5, [r1], #-3935	; 0xfffff0a1
    2d14:	62697274 	rsbvs	r7, r9, #116, 4	; 0x40000007
    2d18:	5f657475 	svcpl	0x00657475
    2d1c:	5f28285f 	svcpl	0x0028285f
    2d20:	7369765f 	cmnvc	r9, #99614720	; 0x5f00000
    2d24:	6c696269 	sfmvs	f6, 2, [r9], #-420	; 0xfffffe5c
    2d28:	5f797469 	svcpl	0x00797469
    2d2c:	6422285f 	strtvs	r2, [r2], #-2143	; 0xfffff7a1
    2d30:	75616665 	strbvc	r6, [r1, #-1637]!	; 0xfffff99b
    2d34:	2922746c 	stmdbcs	r2!, {r2, r3, r5, r6, sl, ip, sp, lr}
    2d38:	5f002929 	svcpl	0x00002929
    2d3c:	4c42445f 	cfstrdmi	mvd4, [r2], {95}	; 0x5f
    2d40:	5341485f 	movtpl	r4, #6239	; 0x185f
    2d44:	4e45445f 	mcrmi	4, 2, r4, cr5, cr15, {2}
    2d48:	5f4d524f 	svcpl	0x004d524f
    2d4c:	0031205f 	eorseq	r2, r1, pc, asr r0
    2d50:	43435f5f 	movtmi	r5, #16223	; 0x3f5f
    2d54:	5055535f 	subspl	r5, r5, pc, asr r3
    2d58:	54524f50 	ldrbpl	r4, [r2], #-3920	; 0xfffff0b0
    2d5c:	5f5f5f53 	svcpl	0x005f5f53
    2d60:	494c4e49 	stmdbmi	ip, {r0, r3, r6, r9, sl, fp, lr}^
    2d64:	3120454e 			; <UNDEFINED> instruction: 0x3120454e
    2d68:	424d5f00 	submi	r5, sp, #0, 30
    2d6c:	4e454c5f 	mcrmi	12, 2, r4, cr5, cr15, {2}
    2d70:	58414d5f 	stmdapl	r1, {r0, r1, r2, r3, r4, r6, r8, sl, fp, lr}^
    2d74:	5f003120 	svcpl	0x00003120
    2d78:	626f696e 	rsbvs	r6, pc, #1802240	; 0x1b8000
    2d7c:	4e490073 	mcrmi	0, 2, r0, cr9, cr3, {3}
    2d80:	5f323354 	svcpl	0x00323354
    2d84:	2058414d 	subscs	r4, r8, sp, asr #2
    2d88:	495f5f28 	ldmdbmi	pc, {r3, r5, r8, r9, sl, fp, ip, lr}^	; <UNPREDICTABLE>
    2d8c:	3233544e 	eorscc	r5, r3, #1308622848	; 0x4e000000
    2d90:	58414d5f 	stmdapl	r1, {r0, r1, r2, r3, r4, r6, r8, sl, fp, lr}^
    2d94:	00295f5f 	eoreq	r5, r9, pc, asr pc
    2d98:	58475f5f 	stmdapl	r7, {r0, r1, r2, r3, r4, r6, r8, r9, sl, fp, ip, lr}^
    2d9c:	42415f58 	submi	r5, r1, #88, 30	; 0x160
    2da0:	45565f49 	ldrbmi	r5, [r6, #-3913]	; 0xfffff0b7
    2da4:	4f495352 	svcmi	0x00495352
    2da8:	3031204e 	eorscc	r2, r1, lr, asr #32
    2dac:	5f003131 	svcpl	0x00003131
    2db0:	5f41445f 	svcpl	0x0041445f
    2db4:	54494246 	strbpl	r4, [r9], #-582	; 0xfffffdba
    2db8:	33205f5f 			; <UNDEFINED> instruction: 0x33205f5f
    2dbc:	5f5f0031 	svcpl	0x005f0031
    2dc0:	5f544e49 	svcpl	0x00544e49
    2dc4:	5341454c 	movtpl	r4, #5452	; 0x154c
    2dc8:	5f363154 	svcpl	0x00363154
    2dcc:	5f58414d 	svcpl	0x0058414d
    2dd0:	7830205f 	ldmdavc	r0!, {r0, r1, r2, r3, r4, r6, sp}
    2dd4:	66666637 			; <UNDEFINED> instruction: 0x66666637
    2dd8:	465f5f00 	ldrbmi	r5, [pc], -r0, lsl #30
    2ddc:	445f544c 	ldrbmi	r5, [pc], #-1100	; 2de4 <_Min_Stack_Size+0x29e4>
    2de0:	524f4e45 	subpl	r4, pc, #1104	; 0x450
    2de4:	494d5f4d 	stmdbmi	sp, {r0, r2, r3, r6, r8, r9, sl, fp, ip, lr}^
    2de8:	205f5f4e 	subscs	r5, pc, lr, asr #30
    2dec:	30342e31 	eorscc	r2, r4, r1, lsr lr
    2df0:	38393231 	ldmdacc	r9!, {r0, r4, r5, r9, ip, sp}
    2df4:	33343634 	teqcc	r4, #52, 12	; 0x3400000
    2df8:	31383432 	teqcc	r8, r2, lsr r4
    2dfc:	2d653137 	stfcse	f3, [r5, #-220]!	; 0xffffff24
    2e00:	00463534 	subeq	r3, r6, r4, lsr r5
    2e04:	51545f5f 	cmppl	r4, pc, asr pc
    2e08:	4942465f 	stmdbmi	r2, {r0, r1, r2, r3, r4, r6, r9, sl, lr}^
    2e0c:	205f5f54 	subscs	r5, pc, r4, asr pc	; <UNPREDICTABLE>
    2e10:	00373231 	eorseq	r3, r7, r1, lsr r2
    2e14:	544e4955 	strbpl	r4, [lr], #-2389	; 0xfffff6ab
    2e18:	5341465f 	movtpl	r4, #5727	; 0x165f
    2e1c:	5f363154 	svcpl	0x00363154
    2e20:	2058414d 	subscs	r4, r8, sp, asr #2
    2e24:	555f5f28 	ldrbpl	r5, [pc, #-3880]	; 1f04 <_Min_Stack_Size+0x1b04>
    2e28:	5f544e49 	svcpl	0x00544e49
    2e2c:	54534146 	ldrbpl	r4, [r3], #-326	; 0xfffffeba
    2e30:	4d5f3631 	ldclmi	6, cr3, [pc, #-196]	; 2d74 <_Min_Stack_Size+0x2974>
    2e34:	5f5f5841 	svcpl	0x005f5841
    2e38:	6f5f0029 	svcvs	0x005f0029
    2e3c:	78655f6e 	stmdavc	r5!, {r1, r2, r3, r5, r6, r8, r9, sl, fp, ip, lr}^
    2e40:	615f7469 	cmpvs	pc, r9, ror #8
    2e44:	5f736772 	svcpl	0x00736772
    2e48:	00727470 	rsbseq	r7, r2, r0, ror r4
    2e4c:	65725f5f 	ldrbvs	r5, [r2, #-3935]!	; 0xfffff0a1
    2e50:	72697571 	rsbvc	r7, r9, #473956352	; 0x1c400000
    2e54:	735f7365 	cmpvc	pc, #-1811939327	; 0x94000001
    2e58:	65726168 	ldrbvs	r6, [r2, #-360]!	; 0xfffffe98
    2e5c:	2e2e2864 	cdpcs	8, 2, cr2, cr14, cr4, {3}
    2e60:	5f20292e 	svcpl	0x0020292e
    2e64:	636f6c5f 	cmnvs	pc, #24320	; 0x5f00
    2e68:	6e615f6b 	cdpvs	15, 6, cr5, cr1, cr11, {3}
    2e6c:	61746f6e 	cmnvs	r4, lr, ror #30
    2e70:	73286574 			; <UNDEFINED> instruction: 0x73286574
    2e74:	65726168 	ldrbvs	r6, [r2, #-360]!	; 0xfffffe98
    2e78:	6f6c5f64 	svcvs	0x006c5f64
    2e7c:	5f736b63 	svcpl	0x00736b63
    2e80:	75716572 	ldrbvc	r6, [r1, #-1394]!	; 0xfffffa8e
    2e84:	64657269 	strbtvs	r7, [r5], #-617	; 0xfffffd97
    2e88:	565f5f28 	ldrbpl	r5, [pc], -r8, lsr #30
    2e8c:	52415f41 	subpl	r5, r1, #260	; 0x104
    2e90:	5f5f5347 	svcpl	0x005f5347
    2e94:	5f002929 	svcpl	0x00002929
    2e98:	5f444e45 	svcpl	0x00444e45
    2e9c:	5f445453 	svcpl	0x00445453
    2ea0:	47002043 	strmi	r2, [r0, -r3, asr #32]
    2ea4:	5f4f4950 	svcpl	0x004f4950
    2ea8:	55544552 	ldrbpl	r4, [r4, #-1362]	; 0xfffffaae
    2eac:	555f4e52 	ldrbpl	r4, [pc, #-3666]	; 2062 <_Min_Stack_Size+0x1c62>
    2eb0:	434f4c4e 	movtmi	r4, #64590	; 0xfc4e
    2eb4:	2044454b 	subcs	r4, r4, fp, asr #10
    2eb8:	5f5f0030 	svcpl	0x005f0030
    2ebc:	4f524854 	svcmi	0x00524854
    2ec0:	5f002057 	svcpl	0x00002057
    2ec4:	7361685f 	cmnvc	r1, #6225920	; 0x5f0000
    2ec8:	636e695f 	cmnvs	lr, #1556480	; 0x17c000
    2ecc:	6564756c 	strbvs	r7, [r4, #-1388]!	; 0xfffffa94
    2ed0:	78656e5f 	stmdavc	r5!, {r0, r1, r2, r3, r4, r6, r9, sl, fp, sp, lr}^
    2ed4:	54532874 	ldrbpl	r2, [r3], #-2164	; 0xfffff78c
    2ed8:	5f202952 	svcpl	0x00202952
    2edc:	7361685f 	cmnvc	r1, #6225920	; 0x5f0000
    2ee0:	636e695f 	cmnvs	lr, #1556480	; 0x17c000
    2ee4:	6564756c 	strbvs	r7, [r4, #-1388]!	; 0xfffffa94
    2ee8:	78656e5f 	stmdavc	r5!, {r0, r1, r2, r3, r4, r6, r9, sl, fp, sp, lr}^
    2eec:	285f5f74 	ldmdacs	pc, {r2, r4, r5, r6, r8, r9, sl, fp, ip, lr}^	; <UNPREDICTABLE>
    2ef0:	29525453 	ldmdbcs	r2, {r0, r1, r4, r6, sl, ip, lr}^
    2ef4:	4e495500 	cdpmi	5, 4, cr5, cr9, cr0, {0}
    2ef8:	454c5f54 	strbmi	r5, [ip, #-3924]	; 0xfffff0ac
    2efc:	31545341 	cmpcc	r4, r1, asr #6
    2f00:	414d5f36 	cmpmi	sp, r6, lsr pc
    2f04:	5f282058 	svcpl	0x00282058
    2f08:	4e49555f 	mcrmi	5, 2, r5, cr9, cr15, {2}
    2f0c:	454c5f54 	strbmi	r5, [ip, #-3924]	; 0xfffff0ac
    2f10:	31545341 	cmpcc	r4, r1, asr #6
    2f14:	414d5f36 	cmpmi	sp, r6, lsr pc
    2f18:	295f5f58 	ldmdbcs	pc, {r3, r4, r6, r8, r9, sl, fp, ip, lr}^	; <UNPREDICTABLE>
    2f1c:	555f5f00 	ldrbpl	r5, [pc, #-3840]	; 2024 <_Min_Stack_Size+0x1c24>
    2f20:	33544e49 	cmpcc	r4, #1168	; 0x490
    2f24:	28435f32 	stmdacs	r3, {r1, r4, r5, r8, r9, sl, fp, ip, lr}^
    2f28:	63202963 			; <UNDEFINED> instruction: 0x63202963
    2f2c:	20232320 	eorcs	r2, r3, r0, lsr #6
    2f30:	45004c55 	strmi	r4, [r0, #-3157]	; 0xfffff3ab
    2f34:	5f495458 	svcpl	0x00495458
    2f38:	454e494c 	strbmi	r4, [lr, #-2380]	; 0xfffff6b4
    2f3c:	505f3331 	subspl	r3, pc, r1, lsr r3	; <UNPREDICTABLE>
    2f40:	20333144 	eorscs	r3, r3, r4, asr #2
    2f44:	54584528 	ldrbpl	r4, [r8], #-1320	; 0xfffffad8
    2f48:	50475f49 	subpl	r5, r7, r9, asr #30
    2f4c:	4d5f4f49 	ldclmi	15, cr4, [pc, #-292]	; 2e30 <_Min_Stack_Size+0x2a30>
    2f50:	69707061 	ldmdbvs	r0!, {r0, r5, r6, ip, sp, lr}^
    2f54:	745f676e 	ldrbvc	r6, [pc], #-1902	; 2f5c <_Min_Stack_Size+0x2b5c>
    2f58:	58457b29 	stmdapl	r5, {r0, r3, r5, r8, r9, fp, ip, sp, lr}^
    2f5c:	33314954 	teqcc	r1, #84, 18	; 0x150000
    2f60:	5047202c 	subpl	r2, r7, ip, lsr #32
    2f64:	2c444f49 	mcrrcs	15, 4, r4, r4, cr9
    2f68:	49504720 	ldmdbmi	r0, {r5, r8, r9, sl, lr}^
    2f6c:	49505f4f 	ldmdbmi	r0, {r0, r1, r2, r3, r6, r8, r9, sl, fp, ip, lr}^
    2f70:	33315f4e 	teqcc	r1, #312	; 0x138
    2f74:	5845202c 	stmdapl	r5, {r2, r3, r5, sp}^
    2f78:	33314954 	teqcc	r1, #84, 18	; 0x150000
    2f7c:	5152495f 	cmppl	r2, pc, asr r9
    2f80:	4e49007d 	mcrmi	0, 2, r0, cr9, cr13, {3}
    2f84:	54535f43 	ldrbpl	r5, [r3], #-3907	; 0xfffff0bd
    2f88:	4632334d 	ldrtmi	r3, [r2], -sp, asr #6
    2f8c:	58333031 	ldmdapl	r3!, {r0, r4, r5, ip, sp}
    2f90:	5f485f36 	svcpl	0x00485f36
    2f94:	5f5f0020 	svcpl	0x005f0020
    2f98:	43434155 	movtmi	r4, #12629	; 0x3155
    2f9c:	4d5f4d55 	ldclmi	13, cr4, [pc, #-340]	; 2e50 <_Min_Stack_Size+0x2a50>
    2fa0:	5f5f4e49 	svcpl	0x005f4e49
    2fa4:	302e3020 	eorcc	r3, lr, r0, lsr #32
    2fa8:	5f004b55 	svcpl	0x00004b55
    2fac:	4e454552 	mcrmi	5, 2, r4, cr5, cr2, {2}
    2fb0:	424d5f54 	submi	r5, sp, #84, 30	; 0x150
    2fb4:	43574f54 	cmpmi	r7, #84, 30	; 0x150
    2fb8:	4154535f 	cmpmi	r4, pc, asr r3
    2fbc:	70284554 	eorvc	r4, r8, r4, asr r5
    2fc0:	20297274 	eorcs	r7, r9, r4, ror r2
    2fc4:	74702828 	ldrbtvc	r2, [r0], #-2088	; 0xfffff7d8
    2fc8:	3e2d2972 			; <UNDEFINED> instruction: 0x3e2d2972
    2fcc:	73696d5f 	cmnvc	r9, #6080	; 0x17c0
    2fd0:	5f3e2d63 	svcpl	0x003e2d63
    2fd4:	6f74626d 	svcvs	0x0074626d
    2fd8:	735f6377 	cmpvc	pc, #-603979775	; 0xdc000001
    2fdc:	65746174 	ldrbvs	r6, [r4, #-372]!	; 0xfffffe8c
    2fe0:	4e5f0029 	cdpmi	0, 5, cr0, cr15, cr9, {1}
    2fe4:	5f6c6c75 	svcpl	0x006c6c75
    2fe8:	70736e75 	rsbsvc	r6, r3, r5, ror lr
    2fec:	66696365 	strbtvs	r6, [r9], -r5, ror #6
    2ff0:	20646569 	rsbcs	r6, r4, r9, ror #10
    2ff4:	465f5f00 	ldrbmi	r5, [pc], -r0, lsl #30
    2ff8:	455f544c 	ldrbmi	r5, [pc, #-1100]	; 2bb4 <_Min_Stack_Size+0x27b4>
    2ffc:	4c495350 	mcrrmi	3, 5, r5, r9, cr0
    3000:	5f5f4e4f 	svcpl	0x005f4e4f
    3004:	312e3120 			; <UNDEFINED> instruction: 0x312e3120
    3008:	39303239 	ldmdbcc	r0!, {r0, r3, r4, r5, r9, ip, sp}
    300c:	35393832 	ldrcc	r3, [r9, #-2098]!	; 0xfffff7ce
    3010:	38373035 	ldmdacc	r7!, {r0, r2, r4, r5, ip, sp}
    3014:	65353231 	ldrvs	r3, [r5, #-561]!	; 0xfffffdcf
    3018:	0046372d 	subeq	r3, r6, sp, lsr #14
    301c:	53585f5f 	cmppl	r8, #380	; 0x17c
    3020:	4e495254 	mcrmi	2, 2, r5, cr9, cr4, {2}
    3024:	29782847 	ldmdbcs	r8!, {r0, r1, r2, r6, fp, sp}^
    3028:	535f5f20 	cmppl	pc, #32, 30	; 0x80
    302c:	4e495254 	mcrmi	2, 2, r5, cr9, cr4, {2}
    3030:	29782847 	ldmdbcs	r8!, {r0, r1, r2, r6, fp, sp}^
    3034:	615f5f00 	cmpvs	pc, r0, lsl #30
    3038:	69727474 	ldmdbvs	r2!, {r2, r4, r5, r6, sl, ip, sp, lr}^
    303c:	65747562 	ldrbvs	r7, [r4, #-1378]!	; 0xfffffa9e
    3040:	7275705f 	rsbsvc	r7, r5, #95	; 0x5f
    3044:	205f5f65 	subscs	r5, pc, r5, ror #30
    3048:	475f5f00 	ldrbmi	r5, [pc, -r0, lsl #30]
    304c:	415f4343 	cmpmi	pc, r3, asr #6
    3050:	494d4f54 	stmdbmi	sp, {r2, r4, r6, r8, r9, sl, fp, lr}^
    3054:	48535f43 	ldmdami	r3, {r0, r1, r6, r8, r9, sl, fp, ip, lr}^
    3058:	5f54524f 	svcpl	0x0054524f
    305c:	4b434f4c 	blmi	10d6d94 <_Min_Stack_Size+0x10d6994>
    3060:	4552465f 	ldrbmi	r4, [r2, #-1631]	; 0xfffff9a1
    3064:	00322045 	eorseq	r2, r2, r5, asr #32
    3068:	532f2e2e 			; <UNDEFINED> instruction: 0x532f2e2e
    306c:	532f6372 			; <UNDEFINED> instruction: 0x532f6372
    3070:	32334d54 	eorscc	r4, r3, #84, 26	; 0x1500
    3074:	33303146 	teqcc	r0, #-2147483631	; 0x80000011
    3078:	455f3643 	ldrbmi	r3, [pc, #-1603]	; 2a3d <_Min_Stack_Size+0x263d>
    307c:	5f495458 	svcpl	0x00495458
    3080:	76697244 	strbtvc	r7, [r9], -r4, asr #4
    3084:	632e7265 			; <UNDEFINED> instruction: 0x632e7265
    3088:	505f5f00 	subspl	r5, pc, r0, lsl #30
    308c:	49445254 	stmdbmi	r4, {r2, r4, r6, r9, ip, lr}^
    3090:	545f4646 	ldrbpl	r4, [pc], #-1606	; 3098 <_Min_Stack_Size+0x2c98>
    3094:	5f455059 	svcpl	0x00455059
    3098:	6e69205f 	mcrvs	0, 3, r2, cr9, cr15, {2}
    309c:	58450074 	stmdapl	r5, {r2, r4, r5, r6}^
    30a0:	4c5f4954 	mrrcmi	9, 5, r4, pc, cr4	; <UNPREDICTABLE>
    30a4:	35454e49 	strbcc	r4, [r5, #-3657]	; 0xfffff1b7
    30a8:	3542505f 	strbcc	r5, [r2, #-95]	; 0xffffffa1
    30ac:	58452820 	stmdapl	r5, {r5, fp, sp}^
    30b0:	475f4954 			; <UNDEFINED> instruction: 0x475f4954
    30b4:	5f4f4950 	svcpl	0x004f4950
    30b8:	7070614d 	rsbsvc	r6, r0, sp, asr #2
    30bc:	5f676e69 	svcpl	0x00676e69
    30c0:	457b2974 	ldrbmi	r2, [fp, #-2420]!	; 0xfffff68c
    30c4:	35495458 	strbcc	r5, [r9, #-1112]	; 0xfffffba8
    30c8:	5047202c 	subpl	r2, r7, ip, lsr #32
    30cc:	2c424f49 	mcrrcs	15, 4, r4, r2, cr9
    30d0:	49504720 	ldmdbmi	r0, {r5, r8, r9, sl, lr}^
    30d4:	49505f4f 	ldmdbmi	r0, {r0, r1, r2, r3, r6, r8, r9, sl, fp, ip, lr}^
    30d8:	2c355f4e 	ldccs	15, cr5, [r5], #-312	; 0xfffffec8
    30dc:	54584520 	ldrbpl	r4, [r8], #-1312	; 0xfffffae0
    30e0:	495f3549 	ldmdbmi	pc, {r0, r3, r6, r8, sl, ip, sp}^	; <UNPREDICTABLE>
    30e4:	007d5152 	rsbseq	r5, sp, r2, asr r1
    30e8:	4e475f5f 	mcrmi	15, 2, r5, cr7, cr15, {2}
    30ec:	494c4355 	stmdbmi	ip, {r0, r2, r4, r6, r8, r9, lr}^
    30f0:	425f454b 	subsmi	r4, pc, #314572800	; 0x12c00000
    30f4:	544c4955 	strbpl	r4, [ip], #-2389	; 0xfffff6ab
    30f8:	565f4e49 	ldrbpl	r4, [pc], -r9, asr #28
    30fc:	52415241 	subpl	r5, r1, #268435460	; 0x10000004
    3100:	31205347 			; <UNDEFINED> instruction: 0x31205347
    3104:	555f5f00 	ldrbpl	r5, [pc, #-3840]	; 220c <_Min_Stack_Size+0x1e0c>
    3108:	55434341 	strbpl	r4, [r3, #-833]	; 0xfffffcbf
    310c:	50455f4d 	subpl	r5, r5, sp, asr #30
    3110:	4f4c4953 	svcmi	0x004c4953
    3114:	205f5f4e 	subscs	r5, pc, lr, asr #30
    3118:	50317830 	eorspl	r7, r1, r0, lsr r8
    311c:	5536312d 	ldrpl	r3, [r6, #-301]!	; 0xfffffed3
    3120:	5845004b 	stmdapl	r5, {r0, r1, r3, r6}^
    3124:	4c5f4954 	mrrcmi	9, 5, r4, pc, cr4	; <UNPREDICTABLE>
    3128:	37454e49 	strbcc	r4, [r5, -r9, asr #28]
    312c:	3741505f 	smlsldcc	r5, r1, pc, r0	; <UNPREDICTABLE>
    3130:	58452820 	stmdapl	r5, {r5, fp, sp}^
    3134:	475f4954 			; <UNDEFINED> instruction: 0x475f4954
    3138:	5f4f4950 	svcpl	0x004f4950
    313c:	7070614d 	rsbsvc	r6, r0, sp, asr #2
    3140:	5f676e69 	svcpl	0x00676e69
    3144:	457b2974 	ldrbmi	r2, [fp, #-2420]!	; 0xfffff68c
    3148:	37495458 	smlsldcc	r5, r9, r8, r4
    314c:	5047202c 	subpl	r2, r7, ip, lsr #32
    3150:	2c414f49 	mcrrcs	15, 4, r4, r1, cr9
    3154:	49504720 	ldmdbmi	r0, {r5, r8, r9, sl, lr}^
    3158:	49505f4f 	ldmdbmi	r0, {r0, r1, r2, r3, r6, r8, r9, sl, fp, ip, lr}^
    315c:	2c375f4e 	ldccs	15, cr5, [r7], #-312	; 0xfffffec8
    3160:	54584520 	ldrbpl	r4, [r8], #-1312	; 0xfffffae0
    3164:	495f3749 	ldmdbmi	pc, {r0, r3, r6, r8, r9, sl, ip, sp}^	; <UNPREDICTABLE>
    3168:	007d5152 	rsbseq	r5, sp, r2, asr r1
    316c:	49555f5f 	ldmdbmi	r5, {r0, r1, r2, r3, r4, r6, r8, r9, sl, fp, ip, lr}^
    3170:	5f38544e 	svcpl	0x0038544e
    3174:	45505954 	ldrbmi	r5, [r0, #-2388]	; 0xfffff6ac
    3178:	75205f5f 	strvc	r5, [r0, #-3935]!	; 0xfffff0a1
    317c:	6769736e 	strbvs	r7, [r9, -lr, ror #6]!
    3180:	2064656e 	rsbcs	r6, r4, lr, ror #10
    3184:	72616863 	rsbvc	r6, r1, #6488064	; 0x630000
    3188:	6f6c5f00 	svcvs	0x006c5f00
    318c:	656c6163 	strbvs	r6, [ip, #-355]!	; 0xfffffe9d
    3190:	544e4900 	strbpl	r4, [lr], #-2304	; 0xfffff700
    3194:	41454c5f 	cmpmi	r5, pc, asr ip
    3198:	32335453 	eorscc	r5, r3, #1392508928	; 0x53000000
    319c:	4e494d5f 	mcrmi	13, 2, r4, cr9, cr15, {2}
    31a0:	5f2d2820 	svcpl	0x002d2820
    31a4:	544e495f 	strbpl	r4, [lr], #-2399	; 0xfffff6a1
    31a8:	41454c5f 	cmpmi	r5, pc, asr ip
    31ac:	32335453 	eorscc	r5, r3, #1392508928	; 0x53000000
    31b0:	58414d5f 	stmdapl	r1, {r0, r1, r2, r3, r4, r6, r8, sl, fp, lr}^
    31b4:	2d205f5f 	stccs	15, cr5, [r0, #-380]!	; 0xfffffe84
    31b8:	00293120 	eoreq	r3, r9, r0, lsr #2
    31bc:	4c41434d 	mcrrmi	3, 4, r4, r1, cr13
    31c0:	5458455f 	ldrbpl	r4, [r8], #-1375	; 0xfffffaa1
    31c4:	50475f49 	subpl	r5, r7, r9, asr #30
    31c8:	445f4f49 	ldrbmi	r4, [pc], #-3913	; 31d0 <_Min_Stack_Size+0x2dd0>
    31cc:	696e4965 	stmdbvs	lr!, {r0, r2, r5, r6, r8, fp, lr}^
    31d0:	43520074 	cmpmi	r2, #116	; 0x74
    31d4:	41425f43 	cmpmi	r2, r3, asr #30
    31d8:	30204553 	eorcc	r4, r0, r3, asr r5
    31dc:	30303478 	eorscc	r3, r0, r8, ror r4
    31e0:	30303132 	eorscc	r3, r0, r2, lsr r1
    31e4:	004c5530 	subeq	r5, ip, r0, lsr r5
    31e8:	53555f5f 	cmppl	r5, #380	; 0x17c
    31ec:	55434341 	strbpl	r4, [r3, #-833]	; 0xfffffcbf
    31f0:	42465f4d 	submi	r5, r6, #308	; 0x134
    31f4:	5f5f5449 	svcpl	0x005f5449
    31f8:	5f003820 	svcpl	0x00003820
    31fc:	44494c45 	strbmi	r4, [r9], #-3141	; 0xfffff3bb
    3200:	454c4241 	strbmi	r4, [ip, #-577]	; 0xfffffdbf
    3204:	4c4e495f 	mcrrmi	9, 5, r4, lr, cr15	; <UNPREDICTABLE>
    3208:	20454e49 	subcs	r4, r5, r9, asr #28
    320c:	74617473 	strbtvc	r7, [r1], #-1139	; 0xfffffb8d
    3210:	5f206369 	svcpl	0x00206369
    3214:	6c6e695f 			; <UNDEFINED> instruction: 0x6c6e695f
    3218:	5f656e69 	svcpl	0x00656e69
    321c:	5f5f005f 	svcpl	0x005f005f
    3220:	4c4c554e 	cfstr64mi	mvdx5, [ip], {78}	; 0x4e
    3224:	4c494241 	sfmmi	f4, 2, [r9], {65}	; 0x41
    3228:	5f595449 	svcpl	0x00595449
    322c:	47415250 	smlsldmi	r5, r1, r0, r2
    3230:	505f414d 	subspl	r4, pc, sp, asr #2
    3234:	0020504f 	eoreq	r5, r0, pc, asr #32
    3238:	414c5f5f 	cmpmi	ip, pc, asr pc
    323c:	4d554343 	ldclmi	3, cr4, [r5, #-268]	; 0xfffffef4
    3240:	4942465f 	stmdbmi	r2, {r0, r1, r2, r3, r4, r6, r9, sl, lr}^
    3244:	205f5f54 	subscs	r5, pc, r4, asr pc	; <UNPREDICTABLE>
    3248:	54003133 	strpl	r3, [r0], #-307	; 0xfffffecd
    324c:	67676972 			; <UNDEFINED> instruction: 0x67676972
    3250:	435f7265 	cmpmi	pc, #1342177286	; 0x50000006
    3254:	00657361 	rsbeq	r7, r5, r1, ror #6
    3258:	53414c46 	movtpl	r4, #7238	; 0x1c46
    325c:	654d5f48 	strbvs	r5, [sp, #-3912]	; 0xfffff0b8
    3260:	79726f6d 	ldmdbvc	r2!, {r0, r2, r3, r5, r6, r8, r9, sl, fp, sp, lr}^
    3264:	5341425f 	movtpl	r4, #4703	; 0x125f
    3268:	78302045 	ldmdavc	r0!, {r0, r2, r6, sp}
    326c:	30303830 	eorscc	r3, r0, r0, lsr r8
    3270:	30303030 	eorscc	r3, r0, r0, lsr r0
    3274:	5f004c55 	svcpl	0x00004c55
    3278:	544c465f 	strbpl	r4, [ip], #-1631	; 0xfffff9a1
    327c:	485f3233 	ldmdami	pc, {r0, r1, r4, r5, r9, ip, sp}^	; <UNPREDICTABLE>
    3280:	515f5341 	cmppl	pc, r1, asr #6
    3284:	54454955 	strbpl	r4, [r5], #-2389	; 0xfffff6ab
    3288:	4e414e5f 	mcrmi	14, 2, r4, cr1, cr15, {2}
    328c:	31205f5f 			; <UNDEFINED> instruction: 0x31205f5f
    3290:	54584500 	ldrbpl	r4, [r8], #-1280	; 0xfffffb00
    3294:	494c5f49 	stmdbmi	ip, {r0, r3, r6, r8, r9, sl, fp, ip, lr}^
    3298:	5f34454e 	svcpl	0x0034454e
    329c:	20344450 	eorscs	r4, r4, r0, asr r4
    32a0:	54584528 	ldrbpl	r4, [r8], #-1320	; 0xfffffad8
    32a4:	50475f49 	subpl	r5, r7, r9, asr #30
    32a8:	4d5f4f49 	ldclmi	15, cr4, [pc, #-292]	; 318c <_Min_Stack_Size+0x2d8c>
    32ac:	69707061 	ldmdbvs	r0!, {r0, r5, r6, ip, sp, lr}^
    32b0:	745f676e 	ldrbvc	r6, [pc], #-1902	; 32b8 <_Min_Stack_Size+0x2eb8>
    32b4:	58457b29 	stmdapl	r5, {r0, r3, r5, r8, r9, fp, ip, sp, lr}^
    32b8:	2c344954 			; <UNDEFINED> instruction: 0x2c344954
    32bc:	49504720 	ldmdbmi	r0, {r5, r8, r9, sl, lr}^
    32c0:	202c444f 	eorcs	r4, ip, pc, asr #8
    32c4:	4f495047 	svcmi	0x00495047
    32c8:	4e49505f 	mcrmi	0, 2, r5, cr9, cr15, {2}
    32cc:	202c345f 	eorcs	r3, ip, pc, asr r4
    32d0:	49545845 	ldmdbmi	r4, {r0, r2, r6, fp, ip, lr}^
    32d4:	52495f34 	subpl	r5, r9, #52, 30	; 0xd0
    32d8:	5f007d51 	svcpl	0x00007d51
    32dc:	53424f5f 	movtpl	r4, #12127	; 0x2f5f
    32e0:	54454c4f 	strbpl	r4, [r5], #-3151	; 0xfffff3b1
    32e4:	414d5f45 	cmpmi	sp, r5, asr #30
    32e8:	5f204854 	svcpl	0x00204854
    32ec:	53424f5f 	movtpl	r4, #12127	; 0x2f5f
    32f0:	54454c4f 	strbpl	r4, [r5], #-3151	; 0xfffff3b1
    32f4:	414d5f45 	cmpmi	sp, r5, asr #30
    32f8:	445f4854 	ldrbmi	r4, [pc], #-2132	; 3300 <_Min_Stack_Size+0x2f00>
    32fc:	55414645 	strbpl	r4, [r1, #-1605]	; 0xfffff9bb
    3300:	5f00544c 	svcpl	0x0000544c
    3304:	42444c5f 	submi	r4, r4, #24320	; 0x5f00
    3308:	41485f4c 	cmpmi	r8, ip, asr #30
    330c:	4e495f53 	mcrmi	15, 2, r5, cr9, cr3, {2}
    3310:	494e4946 	stmdbmi	lr, {r1, r2, r6, r8, fp, lr}^
    3314:	5f5f5954 	svcpl	0x005f5954
    3318:	55003120 	strpl	r3, [r0, #-288]	; 0xfffffee0
    331c:	5f544e49 	svcpl	0x00544e49
    3320:	54534146 	ldrbpl	r4, [r3], #-326	; 0xfffffeba
    3324:	4d5f3436 	cfldrdmi	mvd3, [pc, #-216]	; 3254 <_Min_Stack_Size+0x2e54>
    3328:	28205841 	stmdacs	r0!, {r0, r6, fp, ip, lr}
    332c:	49555f5f 	ldmdbmi	r5, {r0, r1, r2, r3, r4, r6, r8, r9, sl, fp, ip, lr}^
    3330:	465f544e 	ldrbmi	r5, [pc], -lr, asr #8
    3334:	36545341 	ldrbcc	r5, [r4], -r1, asr #6
    3338:	414d5f34 	cmpmi	sp, r4, lsr pc
    333c:	295f5f58 	ldmdbcs	pc, {r3, r4, r6, r8, r9, sl, fp, ip, lr}^	; <UNPREDICTABLE>
    3340:	445f5f00 	ldrbmi	r5, [pc], #-3840	; 3348 <_Min_Stack_Size+0x2f48>
    3344:	32334345 	eorscc	r4, r3, #335544321	; 0x14000001
    3348:	58414d5f 	stmdapl	r1, {r0, r1, r2, r3, r4, r6, r8, sl, fp, lr}^
    334c:	39205f5f 	stmdbcc	r0!, {r0, r1, r2, r3, r4, r6, r8, r9, sl, fp, ip, lr}
    3350:	3939392e 	ldmdbcc	r9!, {r1, r2, r3, r5, r8, fp, ip, sp}
    3354:	45393939 	ldrmi	r3, [r9, #-2361]!	; 0xfffff6c7
    3358:	46443639 			; <UNDEFINED> instruction: 0x46443639
    335c:	54584500 	ldrbpl	r4, [r8], #-1280	; 0xfffffb00
    3360:	30203049 	eorcc	r3, r0, r9, asr #32
    3364:	54584500 	ldrbpl	r4, [r8], #-1280	; 0xfffffb00
    3368:	495f3349 	ldmdbmi	pc, {r0, r3, r6, r8, r9, ip, sp}^	; <UNPREDICTABLE>
    336c:	39205152 	stmdbcc	r0!, {r1, r4, r6, r8, ip, lr}
    3370:	465f5f00 	ldrbmi	r5, [pc], -r0, lsl #30
    3374:	3233544c 	eorscc	r5, r3, #76, 8	; 0x4c000000
    3378:	414d5f58 	cmpmi	sp, r8, asr pc
    337c:	30315f58 	eorscc	r5, r1, r8, asr pc
    3380:	5058455f 	subspl	r4, r8, pc, asr r5
    3384:	33205f5f 			; <UNDEFINED> instruction: 0x33205f5f
    3388:	5f003830 	svcpl	0x00003830
    338c:	4d52415f 	ldfmie	f4, [r2, #-380]	; 0xfffffe84
    3390:	4352415f 	cmpmi	r2, #-1073741801	; 0xc0000017
    3394:	58455f48 	stmdapl	r5, {r3, r6, r8, r9, sl, fp, ip, lr}^
    3398:	44495f54 	strbmi	r5, [r9], #-3924	; 0xfffff0ac
    339c:	5f5f5649 	svcpl	0x005f5649
    33a0:	5f003120 	svcpl	0x00003120
    33a4:	4d52415f 	ldfmie	f4, [r2, #-380]	; 0xfffffe84
    33a8:	5343505f 	movtpl	r5, #12383	; 0x305f
    33ac:	4e003120 	adfmisp	f3, f0, f0
    33b0:	5f434956 	svcpl	0x00434956
    33b4:	36515249 	ldrbcc	r5, [r1], -r9, asr #4
    33b8:	5458455f 	ldrbpl	r4, [r8], #-1375	; 0xfffffaa1
    33bc:	455f3049 	ldrbmi	r3, [pc, #-73]	; 337b <_Min_Stack_Size+0x2f7b>
    33c0:	6c62616e 	stfvse	f6, [r2], #-440	; 0xfffffe48
    33c4:	20292865 	eorcs	r2, r9, r5, ror #16
    33c8:	49564e28 	ldmdbmi	r6, {r3, r5, r9, sl, fp, lr}^
    33cc:	53495f43 	movtpl	r5, #40771	; 0x9f43
    33d0:	20305245 	eorscs	r5, r0, r5, asr #4
    33d4:	28203d7c 	stmdacs	r0!, {r2, r3, r4, r5, r6, r8, sl, fp, ip, sp}
    33d8:	363c3c31 			; <UNDEFINED> instruction: 0x363c3c31
    33dc:	5f002929 	svcpl	0x00002929
    33e0:	544e495f 	strbpl	r4, [lr], #-2399	; 0xfffff6a1
    33e4:	4449575f 	strbmi	r5, [r9], #-1887	; 0xfffff8a1
    33e8:	5f5f4854 	svcpl	0x005f4854
    33ec:	00323320 	eorseq	r3, r2, r0, lsr #6
    33f0:	75705f5f 	ldrbvc	r5, [r0, #-3935]!	; 0xfffff0a1
    33f4:	5f206572 	svcpl	0x00206572
    33f8:	7474615f 	ldrbtvc	r6, [r4], #-351	; 0xfffffea1
    33fc:	75626972 	strbvc	r6, [r2, #-2418]!	; 0xfffff68e
    3400:	5f5f6574 	svcpl	0x005f6574
    3404:	5f5f2828 	svcpl	0x005f2828
    3408:	65727570 	ldrbvs	r7, [r2, #-1392]!	; 0xfffffa90
    340c:	29295f5f 	stmdbcs	r9!, {r0, r1, r2, r3, r4, r6, r8, r9, sl, fp, ip, lr}
    3410:	45525f00 	ldrbmi	r5, [r2, #-3840]	; 0xfffff100
    3414:	5f544e45 	svcpl	0x00544e45
    3418:	43454843 	movtmi	r4, #22595	; 0x5843
    341c:	504d5f4b 	subpl	r5, sp, fp, asr #30
    3420:	72617628 	rsbvc	r7, r1, #40, 12	; 0x2800000
    3424:	525f2029 	subspl	r2, pc, #41	; 0x29
    3428:	544e4545 	strbpl	r4, [lr], #-1349	; 0xfffffabb
    342c:	4548435f 	strbmi	r4, [r8, #-863]	; 0xfffffca1
    3430:	76284b43 	strtvc	r4, [r8], -r3, asr #22
    3434:	202c7261 	eorcs	r7, ip, r1, ror #4
    3438:	2c706d5f 	ldclcs	13, cr6, [r0], #-380	; 0xfffffe84
    343c:	72747320 	rsbsvc	r7, r4, #32, 6	; 0x80000000
    3440:	20746375 	rsbscs	r6, r4, r5, ror r3
    3444:	72706d5f 	rsbsvc	r6, r0, #6080	; 0x17c0
    3448:	2a206365 	bcs	81c1e4 <_Min_Stack_Size+0x81bde4>
    344c:	6973202c 	ldmdbvs	r3!, {r2, r3, r5, sp}^
    3450:	666f657a 			; <UNDEFINED> instruction: 0x666f657a
    3454:	28282a20 	stmdacs	r8!, {r5, r9, fp, sp}
    3458:	29726176 	ldmdbcs	r2!, {r1, r2, r4, r5, r6, r8, sp, lr}^
    345c:	6d5f3e2d 	ldclvs	14, cr3, [pc, #-180]	; 33b0 <_Min_Stack_Size+0x2fb0>
    3460:	202c2970 	eorcs	r2, ip, r0, ror r9
    3464:	4545525f 	strbmi	r5, [r5, #-607]	; 0xfffffda1
    3468:	495f544e 	ldmdbmi	pc, {r1, r2, r3, r6, sl, ip, lr}^	; <UNPREDICTABLE>
    346c:	5f54494e 	svcpl	0x0054494e
    3470:	7628504d 	strtvc	r5, [r8], -sp, asr #32
    3474:	29297261 	stmdbcs	r9!, {r0, r5, r6, r9, ip, sp, lr}
    3478:	535f5f00 	cmppl	pc, #0, 30
    347c:	415f4749 	cmpmi	pc, r9, asr #14
    3480:	494d4f54 	stmdbmi	sp, {r2, r4, r6, r8, r9, sl, fp, lr}^
    3484:	494d5f43 	stmdbmi	sp, {r0, r1, r6, r8, r9, sl, fp, ip, lr}^
    3488:	205f5f4e 	subscs	r5, pc, lr, asr #30
    348c:	5f5f2d28 	svcpl	0x005f2d28
    3490:	5f474953 	svcpl	0x00474953
    3494:	4d4f5441 	cfstrdmi	mvd5, [pc, #-260]	; 3398 <_Min_Stack_Size+0x2f98>
    3498:	4d5f4349 	ldclmi	3, cr4, [pc, #-292]	; 337c <_Min_Stack_Size+0x2f7c>
    349c:	5f5f5841 	svcpl	0x005f5841
    34a0:	31202d20 			; <UNDEFINED> instruction: 0x31202d20
    34a4:	58450029 	stmdapl	r5, {r0, r3, r5}^
    34a8:	20354954 	eorscs	r4, r5, r4, asr r9
    34ac:	5f5f0035 	svcpl	0x005f0035
    34b0:	544e4955 	strbpl	r4, [lr], #-2389	; 0xfffff6ab
    34b4:	41454c5f 	cmpmi	r5, pc, asr ip
    34b8:	5f385453 	svcpl	0x00385453
    34bc:	5f58414d 	svcpl	0x0058414d
    34c0:	7830205f 	ldmdavc	r0!, {r0, r1, r2, r3, r4, r6, sp}
    34c4:	5f006666 	svcpl	0x00006666
    34c8:	5f445342 	svcpl	0x00445342
    34cc:	41484357 	cmpmi	r8, r7, asr r3
    34d0:	5f545f52 	svcpl	0x00545f52
    34d4:	58450020 	stmdapl	r5, {r5}^
    34d8:	4c5f4954 	mrrcmi	9, 5, r4, pc, cr4	; <UNPREDICTABLE>
    34dc:	36454e49 	strbcc	r4, [r5], -r9, asr #28
    34e0:	3644505f 			; <UNDEFINED> instruction: 0x3644505f
    34e4:	58452820 	stmdapl	r5, {r5, fp, sp}^
    34e8:	475f4954 			; <UNDEFINED> instruction: 0x475f4954
    34ec:	5f4f4950 	svcpl	0x004f4950
    34f0:	7070614d 	rsbsvc	r6, r0, sp, asr #2
    34f4:	5f676e69 	svcpl	0x00676e69
    34f8:	457b2974 	ldrbmi	r2, [fp, #-2420]!	; 0xfffff68c
    34fc:	36495458 			; <UNDEFINED> instruction: 0x36495458
    3500:	5047202c 	subpl	r2, r7, ip, lsr #32
    3504:	2c444f49 	mcrrcs	15, 4, r4, r4, cr9
    3508:	49504720 	ldmdbmi	r0, {r5, r8, r9, sl, lr}^
    350c:	49505f4f 	ldmdbmi	r0, {r0, r1, r2, r3, r6, r8, r9, sl, fp, ip, lr}^
    3510:	2c365f4e 	ldccs	15, cr5, [r6], #-312	; 0xfffffec8
    3514:	54584520 	ldrbpl	r4, [r8], #-1312	; 0xfffffae0
    3518:	495f3649 	ldmdbmi	pc, {r0, r3, r6, r9, sl, ip, sp}^	; <UNPREDICTABLE>
    351c:	007d5152 	rsbseq	r5, sp, r2, asr r1
    3520:	4545525f 	strbmi	r5, [r5, #-607]	; 0xfffffda1
    3524:	4d5f544e 	cfldrdmi	mvd5, [pc, #-312]	; 33f4 <_Min_Stack_Size+0x2ff4>
    3528:	35505f50 	ldrbcc	r5, [r0, #-3920]	; 0xfffff0b0
    352c:	74702853 	ldrbtvc	r2, [r0], #-2131	; 0xfffff7ad
    3530:	28202972 	stmdacs	r0!, {r1, r4, r5, r6, r8, fp, sp}
    3534:	72747028 	rsbsvc	r7, r4, #40	; 0x28
    3538:	5f3e2d29 	svcpl	0x003e2d29
    353c:	3e2d706d 	cdpcc	0, 2, cr7, cr13, cr13, {3}
    3540:	7335705f 	teqvc	r5, #95	; 0x5f
    3544:	49530029 	ldmdbmi	r3, {r0, r3, r5}^
    3548:	54415f47 	strbpl	r5, [r1], #-3911	; 0xfffff0b9
    354c:	43494d4f 	movtmi	r4, #40271	; 0x9d4f
    3550:	4e494d5f 	mcrmi	13, 2, r4, cr9, cr15, {2}
    3554:	5f2d2820 	svcpl	0x002d2820
    3558:	4454535f 	ldrbmi	r5, [r4], #-863	; 0xfffffca1
    355c:	5f544e49 	svcpl	0x00544e49
    3560:	28505845 	ldmdacs	r0, {r0, r2, r6, fp, ip, lr}^
    3564:	5f544e49 	svcpl	0x00544e49
    3568:	2958414d 	ldmdbcs	r8, {r0, r2, r3, r6, r8, lr}^
    356c:	31202d20 			; <UNDEFINED> instruction: 0x31202d20
    3570:	635f0029 	cmpvs	pc, #41	; 0x29
    3574:	696b6f6f 	stmdbvs	fp!, {r0, r1, r2, r3, r5, r6, r8, r9, sl, fp, sp, lr}^
    3578:	495f0065 	ldmdbmi	pc, {r0, r2, r5, r6}^	; <UNPREDICTABLE>
    357c:	3631544e 	ldrtcc	r5, [r1], -lr, asr #8
    3580:	445f545f 	ldrbmi	r5, [pc], #-1119	; 3588 <_Min_Stack_Size+0x3188>
    3584:	414c4345 	cmpmi	ip, r5, asr #6
    3588:	20444552 	subcs	r4, r4, r2, asr r5
    358c:	35705f00 	ldrbcc	r5, [r0, #-3840]!	; 0xfffff100
    3590:	5f5f0073 	svcpl	0x005f0073
    3594:	28544d50 	ldmdacs	r4, {r4, r6, r8, sl, fp, lr}^
    3598:	73677261 	cmnvc	r7, #268435462	; 0x10000006
    359c:	72612029 	rsbvc	r2, r1, #41	; 0x29
    35a0:	45007367 	strmi	r7, [r0, #-871]	; 0xfffffc99
    35a4:	5f495458 	svcpl	0x00495458
    35a8:	454e494c 	strbmi	r4, [lr, #-2380]	; 0xfffff6b4
    35ac:	505f3331 	subspl	r3, pc, r1, lsr r3	; <UNPREDICTABLE>
    35b0:	20333141 	eorscs	r3, r3, r1, asr #2
    35b4:	54584528 	ldrbpl	r4, [r8], #-1320	; 0xfffffad8
    35b8:	50475f49 	subpl	r5, r7, r9, asr #30
    35bc:	4d5f4f49 	ldclmi	15, cr4, [pc, #-292]	; 34a0 <_Min_Stack_Size+0x30a0>
    35c0:	69707061 	ldmdbvs	r0!, {r0, r5, r6, ip, sp, lr}^
    35c4:	745f676e 	ldrbvc	r6, [pc], #-1902	; 35cc <_Min_Stack_Size+0x31cc>
    35c8:	58457b29 	stmdapl	r5, {r0, r3, r5, r8, r9, fp, ip, sp, lr}^
    35cc:	33314954 	teqcc	r1, #84, 18	; 0x150000
    35d0:	5047202c 	subpl	r2, r7, ip, lsr #32
    35d4:	2c414f49 	mcrrcs	15, 4, r4, r1, cr9
    35d8:	49504720 	ldmdbmi	r0, {r5, r8, r9, sl, lr}^
    35dc:	49505f4f 	ldmdbmi	r0, {r0, r1, r2, r3, r6, r8, r9, sl, fp, ip, lr}^
    35e0:	33315f4e 	teqcc	r1, #312	; 0x138
    35e4:	5845202c 	stmdapl	r5, {r2, r3, r5, sp}^
    35e8:	33314954 	teqcc	r1, #84, 18	; 0x150000
    35ec:	5152495f 	cmppl	r2, pc, asr r9
    35f0:	5f5f007d 	svcpl	0x005f007d
    35f4:	4c494673 	mcrrmi	6, 7, r4, r9, cr3
    35f8:	61665f45 	cmnvs	r6, r5, asr #30
    35fc:	5f00656b 	svcpl	0x0000656b
    3600:	58455441 	stmdapl	r5, {r0, r6, sl, ip, lr}^
    3604:	495f5449 	ldmdbmi	pc, {r0, r3, r6, sl, ip, lr}^	; <UNPREDICTABLE>
    3608:	2054494e 	subscs	r4, r4, lr, asr #18
    360c:	554e5f7b 	strbpl	r5, [lr, #-3963]	; 0xfffff085
    3610:	202c4c4c 	eorcs	r4, ip, ip, asr #24
    3614:	7b202c30 	blvc	80e6dc <_Min_Stack_Size+0x80e2dc>
    3618:	4c554e5f 	mrrcmi	14, 5, r4, r5, cr15
    361c:	202c7d4c 	eorcs	r7, ip, ip, asr #26
    3620:	4c554e5f 	mrrcmi	14, 5, r4, r5, cr15
    3624:	5f007d4c 	svcpl	0x00007d4c
    3628:	00736477 	rsbseq	r6, r3, r7, ror r4
    362c:	4e495f5f 	mcrmi	15, 2, r5, cr9, cr15, {2}
    3630:	454c5f54 	strbmi	r5, [ip, #-3924]	; 0xfffff0ac
    3634:	31545341 	cmpcc	r4, r1, asr #6
    3638:	49575f36 	ldmdbmi	r7, {r1, r2, r4, r5, r8, r9, sl, fp, ip, lr}^
    363c:	5f485444 	svcpl	0x00485444
    3640:	3631205f 			; <UNDEFINED> instruction: 0x3631205f
    3644:	43435200 	movtmi	r5, #12800	; 0x3200
    3648:	4153555f 	cmpmi	r3, pc, asr r5
    364c:	5f315452 	svcpl	0x00315452
    3650:	5f4b4c43 	svcpl	0x004b4c43
    3654:	29284e45 	stmdbcs	r8!, {r0, r2, r6, r9, sl, fp, lr}
    3658:	43522820 	cmpmi	r2, #32, 16	; 0x200000
    365c:	413e2d43 	teqmi	lr, r3, asr #26
    3660:	45324250 	ldrmi	r4, [r2, #-592]!	; 0xfffffdb0
    3664:	7c20524e 	sfmvc	f5, 4, [r0], #-312	; 0xfffffec8
    3668:	3128203d 			; <UNDEFINED> instruction: 0x3128203d
    366c:	34313c3c 	ldrtcc	r3, [r1], #-3132	; 0xfffff3c4
    3670:	5f002929 	svcpl	0x00002929
    3674:	4345445f 	movtmi	r4, #21599	; 0x545f
    3678:	4156455f 	cmpmi	r6, pc, asr r5
    367c:	454d5f4c 	strbmi	r5, [sp, #-3916]	; 0xfffff0b4
    3680:	444f4854 	strbmi	r4, [pc], #-2132	; 3688 <_Min_Stack_Size+0x3288>
    3684:	32205f5f 	eorcc	r5, r0, #380	; 0x17c
    3688:	45525f00 	ldrbmi	r5, [r2, #-3840]	; 0xfffff100
    368c:	5f544e45 	svcpl	0x00544e45
    3690:	43454843 	movtmi	r4, #22595	; 0x5843
    3694:	49535f4b 	ldmdbmi	r3, {r0, r1, r3, r6, r8, r9, sl, fp, ip, lr}^
    3698:	4c414e47 	mcrrmi	14, 4, r4, r1, cr7
    369c:	4655425f 			; <UNDEFINED> instruction: 0x4655425f
    36a0:	72617628 	rsbvc	r7, r1, #40, 12	; 0x2800000
    36a4:	525f2029 	subspl	r2, pc, #41	; 0x29
    36a8:	544e4545 	strbpl	r4, [lr], #-1349	; 0xfffffabb
    36ac:	4548435f 	strbmi	r4, [r8, #-863]	; 0xfffffca1
    36b0:	76284b43 	strtvc	r4, [r8], -r3, asr #22
    36b4:	202c7261 	eorcs	r7, ip, r1, ror #4
    36b8:	6769735f 			; <UNDEFINED> instruction: 0x6769735f
    36bc:	5f6c616e 	svcpl	0x006c616e
    36c0:	2c667562 	cfstr64cs	mvdx7, [r6], #-392	; 0xfffffe78
    36c4:	61686320 	cmnvs	r8, r0, lsr #6
    36c8:	2c2a2072 	stccs	0, cr2, [sl], #-456	; 0xfffffe38
    36cc:	45525f20 	ldrbmi	r5, [r2, #-3872]	; 0xfffff0e0
    36d0:	5f544e45 	svcpl	0x00544e45
    36d4:	4e474953 			; <UNDEFINED> instruction: 0x4e474953
    36d8:	535f4c41 	cmppl	pc, #16640	; 0x4100
    36dc:	2c455a49 	mcrrcs	10, 4, r5, r5, cr9
    36e0:	5f002920 	svcpl	0x00002920
    36e4:	4c57454e 	cfldr64mi	mvdx4, [r7], {78}	; 0x4e
    36e8:	565f4249 	ldrbpl	r4, [pc], -r9, asr #4
    36ec:	49535245 	ldmdbmi	r3, {r0, r2, r6, r9, ip, lr}^
    36f0:	22204e4f 	eorcs	r4, r0, #1264	; 0x4f0
    36f4:	2e302e33 	mrccs	14, 1, r2, cr0, cr3, {1}
    36f8:	55002230 	strpl	r2, [r0, #-560]	; 0xfffffdd0
    36fc:	33544e49 	cmpcc	r4, #1168	; 0x490
    3700:	414d5f32 	cmpmi	sp, r2, lsr pc
    3704:	5f282058 	svcpl	0x00282058
    3708:	4e49555f 	mcrmi	5, 2, r5, cr9, cr15, {2}
    370c:	5f323354 	svcpl	0x00323354
    3710:	5f58414d 	svcpl	0x0058414d
    3714:	5f00295f 	svcpl	0x0000295f
    3718:	5f676973 	svcpl	0x00676973
    371c:	636e7566 	cmnvs	lr, #427819008	; 0x19800000
    3720:	445f5f00 	ldrbmi	r5, [pc], #-3840	; 3728 <_Min_Stack_Size+0x3328>
    3724:	34364345 	ldrtcc	r4, [r6], #-837	; 0xfffffcbb
    3728:	4255535f 	subsmi	r5, r5, #2080374785	; 0x7c000001
    372c:	4d524f4e 	ldclmi	15, cr4, [r2, #-312]	; 0xfffffec8
    3730:	4d5f4c41 	ldclmi	12, cr4, [pc, #-260]	; 3634 <_Min_Stack_Size+0x3234>
    3734:	5f5f4e49 	svcpl	0x005f4e49
    3738:	302e3020 	eorcc	r3, lr, r0, lsr #32
    373c:	30303030 	eorscc	r3, r0, r0, lsr r0
    3740:	30303030 	eorscc	r3, r0, r0, lsr r0
    3744:	30303030 	eorscc	r3, r0, r0, lsr r0
    3748:	2d453130 	stfcse	f3, [r5, #-192]	; 0xffffff40
    374c:	44333833 	ldrtmi	r3, [r3], #-2099	; 0xfffff7cd
    3750:	5f5f0044 	svcpl	0x005f0044
    3754:	52465355 	subpl	r5, r6, #1409286145	; 0x54000001
    3758:	5f544341 	svcpl	0x00544341
    375c:	49535045 	ldmdbmi	r3, {r0, r2, r6, ip, lr}^
    3760:	5f4e4f4c 	svcpl	0x004e4f4c
    3764:	7830205f 	ldmdavc	r0!, {r0, r1, r2, r3, r4, r6, sp}
    3768:	382d5031 	stmdacc	sp!, {r0, r4, r5, ip, lr}
    376c:	00524855 	subseq	r4, r2, r5, asr r8
    3770:	4c4c554e 	cfstr64mi	mvdx5, [ip], {78}	; 0x4e
    3774:	76282820 	strtvc	r2, [r8], -r0, lsr #16
    3778:	2064696f 	rsbcs	r6, r4, pc, ror #18
    377c:	2930292a 	ldmdbcs	r0!, {r1, r3, r5, r8, fp, sp}
    3780:	554e4700 	strbpl	r4, [lr, #-1792]	; 0xfffff900
    3784:	31314320 	teqcc	r1, r0, lsr #6
    3788:	332e3720 			; <UNDEFINED> instruction: 0x332e3720
    378c:	3220312e 	eorcc	r3, r0, #-2147483637	; 0x8000000b
    3790:	30383130 	eorscc	r3, r8, r0, lsr r1
    3794:	20323236 	eorscs	r3, r2, r6, lsr r2
    3798:	6c657228 	sfmvs	f7, 2, [r5], #-160	; 0xffffff60
    379c:	65736165 	ldrbvs	r6, [r3, #-357]!	; 0xfffffe9b
    37a0:	415b2029 	cmpmi	fp, r9, lsr #32
    37a4:	652f4d52 	strvs	r4, [pc, #-3410]!	; 2a5a <_Min_Stack_Size+0x265a>
    37a8:	6465626d 	strbtvs	r6, [r5], #-621	; 0xfffffd93
    37ac:	2d646564 	cfstr64cs	mvdx6, [r4, #-400]!	; 0xfffffe70
    37b0:	72622d37 	rsbvc	r2, r2, #3520	; 0xdc0
    37b4:	68636e61 	stmdavs	r3!, {r0, r5, r6, r9, sl, fp, sp, lr}^
    37b8:	76657220 	strbtvc	r7, [r5], -r0, lsr #4
    37bc:	6f697369 	svcvs	0x00697369
    37c0:	3632206e 	ldrtcc	r2, [r2], -lr, rrx
    37c4:	37303931 			; <UNDEFINED> instruction: 0x37303931
    37c8:	6d2d205d 	stcvs	0, cr2, [sp, #-372]!	; 0xfffffe8c
    37cc:	3d757063 	ldclcc	0, cr7, [r5, #-396]!	; 0xfffffe74
    37d0:	74726f63 	ldrbtvc	r6, [r2], #-3939	; 0xfffff09d
    37d4:	6d2d7865 	stcvs	8, cr7, [sp, #-404]!	; 0xfffffe6c
    37d8:	6d2d2033 	stcvs	0, cr2, [sp, #-204]!	; 0xffffff34
    37dc:	616f6c66 	cmnvs	pc, r6, ror #24
    37e0:	62612d74 	rsbvs	r2, r1, #116, 26	; 0x1d00
    37e4:	6f733d69 	svcvs	0x00733d69
    37e8:	2d207466 	cfstrscs	mvf7, [r0, #-408]!	; 0xfffffe68
    37ec:	7568746d 	strbvc	r7, [r8, #-1133]!	; 0xfffffb93
    37f0:	2d20626d 	sfmcs	f6, 4, [r0, #-436]!	; 0xfffffe4c
    37f4:	2d203367 	stccs	3, cr3, [r0, #-412]!	; 0xfffffe64
    37f8:	2d20304f 	stccs	0, cr3, [r0, #-316]!	; 0xfffffec4
    37fc:	3d647473 	cfstrdcc	mvd7, [r4, #-460]!	; 0xfffffe34
    3800:	31756e67 	cmncc	r5, r7, ror #28
    3804:	662d2031 			; <UNDEFINED> instruction: 0x662d2031
    3808:	636e7566 	cmnvs	lr, #427819008	; 0x19800000
    380c:	6e6f6974 			; <UNDEFINED> instruction: 0x6e6f6974
    3810:	6365732d 	cmnvs	r5, #-1275068416	; 0xb4000000
    3814:	6e6f6974 			; <UNDEFINED> instruction: 0x6e6f6974
    3818:	662d2073 			; <UNDEFINED> instruction: 0x662d2073
    381c:	61746164 	cmnvs	r4, r4, ror #2
    3820:	6365732d 	cmnvs	r5, #-1275068416	; 0xb4000000
    3824:	6e6f6974 			; <UNDEFINED> instruction: 0x6e6f6974
    3828:	662d2073 			; <UNDEFINED> instruction: 0x662d2073
    382c:	63617473 	cmnvs	r1, #1929379840	; 0x73000000
    3830:	73752d6b 	cmnvc	r5, #6848	; 0x1ac0
    3834:	00656761 	rsbeq	r6, r5, r1, ror #14
    3838:	73615f5f 	cmnvc	r1, #380	; 0x17c
    383c:	74726573 	ldrbtvc	r6, [r2], #-1395	; 0xfffffa8d
    3840:	78655f73 	stmdavc	r5!, {r0, r1, r4, r5, r6, r8, r9, sl, fp, ip, lr}^
    3844:	73756c63 	cmnvc	r5, #25344	; 0x6300
    3848:	28657669 	stmdacs	r5!, {r0, r3, r5, r6, r9, sl, ip, sp, lr}^
    384c:	292e2e2e 	stmdbcs	lr!, {r1, r2, r3, r5, r9, sl, fp, sp}
    3850:	6c5f5f20 	mrrcvs	15, 2, r5, pc, cr0	; <UNPREDICTABLE>
    3854:	5f6b636f 	svcpl	0x006b636f
    3858:	6f6e6e61 	svcvs	0x006e6e61
    385c:	65746174 	ldrbvs	r6, [r4, #-372]!	; 0xfffffe8c
    3860:	73736128 	cmnvc	r3, #40, 2
    3864:	5f747265 	svcpl	0x00747265
    3868:	6c637865 	stclvs	8, cr7, [r3], #-404	; 0xfffffe6c
    386c:	76697375 			; <UNDEFINED> instruction: 0x76697375
    3870:	6f6c5f65 	svcvs	0x006c5f65
    3874:	5f286b63 	svcpl	0x00286b63
    3878:	5f41565f 	svcpl	0x0041565f
    387c:	53475241 	movtpl	r5, #29249	; 0x7241
    3880:	29295f5f 	stmdbcs	r9!, {r0, r1, r2, r3, r4, r6, r8, r9, sl, fp, ip, lr}
    3884:	49564e00 	ldmdbmi	r6, {r9, sl, fp, lr}^
    3888:	43495f43 	movtmi	r5, #40771	; 0x9f43
    388c:	20305245 	eorscs	r5, r0, r5, asr #4
    3890:	7628282a 	strtvc	r2, [r8], -sl, lsr #16
    3894:	74616c6f 	strbtvc	r6, [r1], #-3183	; 0xfffff391
    3898:	20656c69 	rsbcs	r6, r5, r9, ror #24
    389c:	746e6975 	strbtvc	r6, [lr], #-2421	; 0xfffff68b
    38a0:	745f3233 	ldrbvc	r3, [pc], #-563	; 38a8 <_Min_Stack_Size+0x34a8>
    38a4:	20292a20 	eorcs	r2, r9, r0, lsr #20
    38a8:	4349564e 	movtmi	r5, #38478	; 0x964e
    38ac:	5341425f 	movtpl	r4, #4703	; 0x125f
    38b0:	202b2045 	eorcs	r2, fp, r5, asr #32
    38b4:	30387830 	eorscc	r7, r8, r0, lsr r8
    38b8:	5f5f0029 	svcpl	0x005f0029
    38bc:	52465355 	subpl	r5, r6, #1409286145	; 0x54000001
    38c0:	5f544341 	svcpl	0x00544341
    38c4:	54494246 	strbpl	r4, [r9], #-582	; 0xfffffdba
    38c8:	38205f5f 	stmdacc	r0!, {r0, r1, r2, r3, r4, r6, r8, r9, sl, fp, ip, lr}
    38cc:	4c5f5f00 	mrrcmi	15, 0, r5, pc, cr0	; <UNPREDICTABLE>
    38d0:	4343414c 	movtmi	r4, #12620	; 0x314c
    38d4:	4d5f4d55 	ldclmi	13, cr4, [pc, #-340]	; 3788 <_Min_Stack_Size+0x3388>
    38d8:	5f5f5841 	svcpl	0x005f5841
    38dc:	37583020 	ldrbcc	r3, [r8, -r0, lsr #32]
    38e0:	46464646 	strbmi	r4, [r6], -r6, asr #12
    38e4:	46464646 	strbmi	r4, [r6], -r6, asr #12
    38e8:	46464646 	strbmi	r4, [r6], -r6, asr #12
    38ec:	50464646 	subpl	r4, r6, r6, asr #12
    38f0:	4c31332d 	ldcmi	3, cr3, [r1], #-180	; 0xffffff4c
    38f4:	5f004b4c 	svcpl	0x00004b4c
    38f8:	7366666f 	cmnvc	r6, #116391936	; 0x6f00000
    38fc:	5f007465 	svcpl	0x00007465
    3900:	62747663 	rsbsvs	r7, r4, #103809024	; 0x6300000
    3904:	45006675 	strmi	r6, [r0, #-1653]	; 0xfffff98b
    3908:	5f495458 	svcpl	0x00495458
    390c:	454e494c 	strbmi	r4, [lr, #-2380]	; 0xfffff6b4
    3910:	42505f39 	subsmi	r5, r0, #57, 30	; 0xe4
    3914:	45282039 	strmi	r2, [r8, #-57]!	; 0xffffffc7
    3918:	5f495458 	svcpl	0x00495458
    391c:	4f495047 	svcmi	0x00495047
    3920:	70614d5f 	rsbvc	r4, r1, pc, asr sp
    3924:	676e6970 			; <UNDEFINED> instruction: 0x676e6970
    3928:	7b29745f 	blvc	a60aac <_Min_Stack_Size+0xa606ac>
    392c:	49545845 	ldmdbmi	r4, {r0, r2, r6, fp, ip, lr}^
    3930:	47202c39 			; <UNDEFINED> instruction: 0x47202c39
    3934:	424f4950 	submi	r4, pc, #80, 18	; 0x140000
    3938:	5047202c 	subpl	r2, r7, ip, lsr #32
    393c:	505f4f49 	subspl	r4, pc, r9, asr #30
    3940:	395f4e49 	ldmdbcc	pc, {r0, r3, r6, r9, sl, fp, lr}^	; <UNPREDICTABLE>
    3944:	5845202c 	stmdapl	r5, {r2, r3, r5, sp}^
    3948:	5f394954 	svcpl	0x00394954
    394c:	7d515249 	lfmvc	f5, 2, [r1, #-292]	; 0xfffffedc
    3950:	555f5f00 	ldrbpl	r5, [pc, #-3840]	; 2a58 <_Min_Stack_Size+0x2658>
    3954:	5f524553 	svcpl	0x00524553
    3958:	4542414c 	strbmi	r4, [r2, #-332]	; 0xfffffeb4
    395c:	52505f4c 	subspl	r5, r0, #76, 30	; 0x130
    3960:	58494645 	stmdapl	r9, {r0, r2, r6, r9, sl, lr}^
    3964:	00205f5f 	eoreq	r5, r0, pc, asr pc
    3968:	49555f5f 	ldmdbmi	r5, {r0, r1, r2, r3, r4, r6, r8, r9, sl, fp, ip, lr}^
    396c:	3436544e 	ldrtcc	r5, [r6], #-1102	; 0xfffffbb2
    3970:	58414d5f 	stmdapl	r1, {r0, r1, r2, r3, r4, r6, r8, sl, fp, lr}^
    3974:	30205f5f 	eorcc	r5, r0, pc, asr pc
    3978:	66666678 			; <UNDEFINED> instruction: 0x66666678
    397c:	66666666 	strbtvs	r6, [r6], -r6, ror #12
    3980:	66666666 	strbtvs	r6, [r6], -r6, ror #12
    3984:	66666666 	strbtvs	r6, [r6], -r6, ror #12
    3988:	4c4c5566 	cfstr64mi	mvdx5, [ip], {102}	; 0x66
    398c:	45525f00 	ldrbmi	r5, [r2, #-3840]	; 0xfffff100
    3990:	5f544e45 	svcpl	0x00544e45
    3994:	54525453 	ldrbpl	r5, [r2], #-1107	; 0xfffffbad
    3998:	4c5f4b4f 	mrrcmi	11, 4, r4, pc, cr15	; <UNPREDICTABLE>
    399c:	28545341 	ldmdacs	r4, {r0, r6, r8, r9, ip, lr}^
    39a0:	29727470 	ldmdbcs	r2!, {r4, r5, r6, sl, ip, sp, lr}^
    39a4:	70282820 	eorvc	r2, r8, r0, lsr #16
    39a8:	2d297274 	sfmcs	f7, 4, [r9, #-464]!	; 0xfffffe30
    39ac:	696d5f3e 	stmdbvs	sp!, {r1, r2, r3, r4, r5, r8, r9, sl, fp, ip, lr}^
    39b0:	3e2d6373 	mcrcc	3, 1, r6, cr13, cr3, {3}
    39b4:	7274735f 	rsbsvc	r7, r4, #2080374785	; 0x7c000001
    39b8:	5f6b6f74 	svcpl	0x006b6f74
    39bc:	7473616c 	ldrbtvc	r6, [r3], #-364	; 0xfffffe94
    39c0:	5f5f0029 	svcpl	0x005f0029
    39c4:	544e4955 	strbpl	r4, [lr], #-2389	; 0xfffff6ab
    39c8:	4d5f3233 	lfmmi	f3, 2, [pc, #-204]	; 3904 <_Min_Stack_Size+0x3504>
    39cc:	5f5f5841 	svcpl	0x005f5841
    39d0:	66783020 	ldrbtvs	r3, [r8], -r0, lsr #32
    39d4:	66666666 	strbtvs	r6, [r6], -r6, ror #12
    39d8:	55666666 	strbpl	r6, [r6, #-1638]!	; 0xfffff99a
    39dc:	525f004c 	subspl	r0, pc, #76	; 0x4c
    39e0:	544e4545 	strbpl	r4, [lr], #-1349	; 0xfffffabb
    39e4:	494e495f 	stmdbmi	lr, {r0, r1, r2, r3, r4, r6, r8, fp, lr}^
    39e8:	494d5f54 	stmdbmi	sp, {r2, r4, r6, r8, r9, sl, fp, ip, lr}^
    39ec:	76284353 			; <UNDEFINED> instruction: 0x76284353
    39f0:	20297261 	eorcs	r7, r9, r1, ror #4
    39f4:	7b206f64 	blvc	81f78c <_Min_Stack_Size+0x81f38c>
    39f8:	72747320 	rsbsvc	r7, r4, #32, 6	; 0x80000000
    39fc:	20746375 	rsbscs	r6, r4, r5, ror r3
    3a00:	6565725f 	strbvs	r7, [r5, #-607]!	; 0xfffffda1
    3a04:	2a20746e 	bcs	820bc4 <_Min_Stack_Size+0x8207c4>
    3a08:	3d20725f 	sfmcc	f7, 4, [r0, #-380]!	; 0xfffffe84
    3a0c:	61762820 	cmnvs	r6, r0, lsr #16
    3a10:	203b2972 	eorscs	r2, fp, r2, ror r9
    3a14:	3e2d725f 	mcrcc	2, 1, r7, cr13, cr15, {2}
    3a18:	73696d5f 	cmnvc	r9, #6080	; 0x17c0
    3a1c:	5f3e2d63 	svcpl	0x003e2d63
    3a20:	74727473 	ldrbtvc	r7, [r2], #-1139	; 0xfffffb8d
    3a24:	6c5f6b6f 	mrrcvs	11, 6, r6, pc, cr15	; <UNPREDICTABLE>
    3a28:	20747361 	rsbscs	r7, r4, r1, ror #6
    3a2c:	4e5f203d 	mrcmi	0, 2, r2, cr15, cr13, {1}
    3a30:	3b4c4c55 	blcc	1316b8c <_Min_Stack_Size+0x131678c>
    3a34:	2d725f20 	ldclcs	15, cr5, [r2, #-128]!	; 0xffffff80
    3a38:	696d5f3e 	stmdbvs	sp!, {r1, r2, r3, r4, r5, r8, r9, sl, fp, ip, lr}^
    3a3c:	3e2d6373 	mcrcc	3, 1, r6, cr13, cr3, {3}
    3a40:	6c626d5f 	stclvs	13, cr6, [r2], #-380	; 0xfffffe84
    3a44:	735f6e65 	cmpvc	pc, #1616	; 0x650
    3a48:	65746174 	ldrbvs	r6, [r4, #-372]!	; 0xfffffe8c
    3a4c:	635f5f2e 	cmpvs	pc, #46, 30	; 0xb8
    3a50:	746e756f 	strbtvc	r7, [lr], #-1391	; 0xfffffa91
    3a54:	30203d20 	eorcc	r3, r0, r0, lsr #26
    3a58:	725f203b 	subsvc	r2, pc, #59	; 0x3b
    3a5c:	6d5f3e2d 	ldclvs	14, cr3, [pc, #-180]	; 39b0 <_Min_Stack_Size+0x35b0>
    3a60:	2d637369 	stclcs	3, cr7, [r3, #-420]!	; 0xfffffe5c
    3a64:	626d5f3e 	rsbvs	r5, sp, #62, 30	; 0xf8
    3a68:	5f6e656c 	svcpl	0x006e656c
    3a6c:	74617473 	strbtvc	r7, [r1], #-1139	; 0xfffffb8d
    3a70:	5f5f2e65 	svcpl	0x005f2e65
    3a74:	756c6176 	strbvc	r6, [ip, #-374]!	; 0xfffffe8a
    3a78:	5f5f2e65 	svcpl	0x005f2e65
    3a7c:	20686377 	rsbcs	r6, r8, r7, ror r3
    3a80:	3b30203d 	blcc	c0bb7c <_Min_Stack_Size+0xc0b77c>
    3a84:	2d725f20 	ldclcs	15, cr5, [r2, #-128]!	; 0xffffff80
    3a88:	696d5f3e 	stmdbvs	sp!, {r1, r2, r3, r4, r5, r8, r9, sl, fp, ip, lr}^
    3a8c:	3e2d6373 	mcrcc	3, 1, r6, cr13, cr3, {3}
    3a90:	7463775f 	strbtvc	r7, [r3], #-1887	; 0xfffff8a1
    3a94:	5f626d6f 	svcpl	0x00626d6f
    3a98:	74617473 	strbtvc	r7, [r1], #-1139	; 0xfffffb8d
    3a9c:	5f5f2e65 	svcpl	0x005f2e65
    3aa0:	6e756f63 	cdpvs	15, 7, cr6, cr5, cr3, {3}
    3aa4:	203d2074 	eorscs	r2, sp, r4, ror r0
    3aa8:	5f203b30 	svcpl	0x00203b30
    3aac:	5f3e2d72 	svcpl	0x003e2d72
    3ab0:	6373696d 	cmnvs	r3, #1785856	; 0x1b4000
    3ab4:	775f3e2d 	ldrbvc	r3, [pc, -sp, lsr #28]
    3ab8:	6d6f7463 	cfstrdvs	mvd7, [pc, #-396]!	; 3934 <_Min_Stack_Size+0x3534>
    3abc:	74735f62 	ldrbtvc	r5, [r3], #-3938	; 0xfffff09e
    3ac0:	2e657461 	cdpcs	4, 6, cr7, cr5, cr1, {3}
    3ac4:	61765f5f 	cmnvs	r6, pc, asr pc
    3ac8:	2e65756c 	cdpcs	5, 6, cr7, cr5, cr12, {3}
    3acc:	63775f5f 	cmnvs	r7, #380	; 0x17c
    3ad0:	203d2068 	eorscs	r2, sp, r8, rrx
    3ad4:	5f203b30 	svcpl	0x00203b30
    3ad8:	5f3e2d72 	svcpl	0x003e2d72
    3adc:	6373696d 	cmnvs	r3, #1785856	; 0x1b4000
    3ae0:	6d5f3e2d 	ldclvs	14, cr3, [pc, #-180]	; 3a34 <_Min_Stack_Size+0x3634>
    3ae4:	776f7462 	strbvc	r7, [pc, -r2, ror #8]!
    3ae8:	74735f63 	ldrbtvc	r5, [r3], #-3939	; 0xfffff09d
    3aec:	2e657461 	cdpcs	4, 6, cr7, cr5, cr1, {3}
    3af0:	6f635f5f 	svcvs	0x00635f5f
    3af4:	20746e75 	rsbscs	r6, r4, r5, ror lr
    3af8:	3b30203d 	blcc	c0bbf4 <_Min_Stack_Size+0xc0b7f4>
    3afc:	2d725f20 	ldclcs	15, cr5, [r2, #-128]!	; 0xffffff80
    3b00:	696d5f3e 	stmdbvs	sp!, {r1, r2, r3, r4, r5, r8, r9, sl, fp, ip, lr}^
    3b04:	3e2d6373 	mcrcc	3, 1, r6, cr13, cr3, {3}
    3b08:	74626d5f 	strbtvc	r6, [r2], #-3423	; 0xfffff2a1
    3b0c:	5f63776f 	svcpl	0x0063776f
    3b10:	74617473 	strbtvc	r7, [r1], #-1139	; 0xfffffb8d
    3b14:	5f5f2e65 	svcpl	0x005f2e65
    3b18:	756c6176 	strbvc	r6, [ip, #-374]!	; 0xfffffe8a
    3b1c:	5f5f2e65 	svcpl	0x005f2e65
    3b20:	20686377 	rsbcs	r6, r8, r7, ror r3
    3b24:	3b30203d 	blcc	c0bc20 <_Min_Stack_Size+0xc0b820>
    3b28:	2d725f20 	ldclcs	15, cr5, [r2, #-128]!	; 0xffffff80
    3b2c:	696d5f3e 	stmdbvs	sp!, {r1, r2, r3, r4, r5, r8, r9, sl, fp, ip, lr}^
    3b30:	3e2d6373 	mcrcc	3, 1, r6, cr13, cr3, {3}
    3b34:	72626d5f 	rsbvc	r6, r2, #6080	; 0x17c0
    3b38:	5f6e656c 	svcpl	0x006e656c
    3b3c:	74617473 	strbtvc	r7, [r1], #-1139	; 0xfffffb8d
    3b40:	5f5f2e65 	svcpl	0x005f2e65
    3b44:	6e756f63 	cdpvs	15, 7, cr6, cr5, cr3, {3}
    3b48:	203d2074 	eorscs	r2, sp, r4, ror r0
    3b4c:	5f203b30 	svcpl	0x00203b30
    3b50:	5f3e2d72 	svcpl	0x003e2d72
    3b54:	6373696d 	cmnvs	r3, #1785856	; 0x1b4000
    3b58:	6d5f3e2d 	ldclvs	14, cr3, [pc, #-180]	; 3aac <_Min_Stack_Size+0x36ac>
    3b5c:	656c7262 	strbvs	r7, [ip, #-610]!	; 0xfffffd9e
    3b60:	74735f6e 	ldrbtvc	r5, [r3], #-3950	; 0xfffff092
    3b64:	2e657461 	cdpcs	4, 6, cr7, cr5, cr1, {3}
    3b68:	61765f5f 	cmnvs	r6, pc, asr pc
    3b6c:	2e65756c 	cdpcs	5, 6, cr7, cr5, cr12, {3}
    3b70:	63775f5f 	cmnvs	r7, #380	; 0x17c
    3b74:	203d2068 	eorscs	r2, sp, r8, rrx
    3b78:	5f203b30 	svcpl	0x00203b30
    3b7c:	5f3e2d72 	svcpl	0x003e2d72
    3b80:	6373696d 	cmnvs	r3, #1785856	; 0x1b4000
    3b84:	6d5f3e2d 	ldclvs	14, cr3, [pc, #-180]	; 3ad8 <_Min_Stack_Size+0x36d8>
    3b88:	6f747262 	svcvs	0x00747262
    3b8c:	735f6377 	cmpvc	pc, #-603979775	; 0xdc000001
    3b90:	65746174 	ldrbvs	r6, [r4, #-372]!	; 0xfffffe8c
    3b94:	635f5f2e 	cmpvs	pc, #46, 30	; 0xb8
    3b98:	746e756f 	strbtvc	r7, [lr], #-1391	; 0xfffffa91
    3b9c:	30203d20 	eorcc	r3, r0, r0, lsr #26
    3ba0:	725f203b 	subsvc	r2, pc, #59	; 0x3b
    3ba4:	6d5f3e2d 	ldclvs	14, cr3, [pc, #-180]	; 3af8 <_Min_Stack_Size+0x36f8>
    3ba8:	2d637369 	stclcs	3, cr7, [r3, #-420]!	; 0xfffffe5c
    3bac:	626d5f3e 	rsbvs	r5, sp, #62, 30	; 0xf8
    3bb0:	776f7472 			; <UNDEFINED> instruction: 0x776f7472
    3bb4:	74735f63 	ldrbtvc	r5, [r3], #-3939	; 0xfffff09d
    3bb8:	2e657461 	cdpcs	4, 6, cr7, cr5, cr1, {3}
    3bbc:	61765f5f 	cmnvs	r6, pc, asr pc
    3bc0:	2e65756c 	cdpcs	5, 6, cr7, cr5, cr12, {3}
    3bc4:	63775f5f 	cmnvs	r7, #380	; 0x17c
    3bc8:	203d2068 	eorscs	r2, sp, r8, rrx
    3bcc:	5f203b30 	svcpl	0x00203b30
    3bd0:	5f3e2d72 	svcpl	0x003e2d72
    3bd4:	6373696d 	cmnvs	r3, #1785856	; 0x1b4000
    3bd8:	6d5f3e2d 	ldclvs	14, cr3, [pc, #-180]	; 3b2c <_Min_Stack_Size+0x372c>
    3bdc:	74727362 	ldrbtvc	r7, [r2], #-866	; 0xfffffc9e
    3be0:	7363776f 	cmnvc	r3, #29097984	; 0x1bc0000
    3be4:	6174735f 	cmnvs	r4, pc, asr r3
    3be8:	5f2e6574 	svcpl	0x002e6574
    3bec:	756f635f 	strbvc	r6, [pc, #-863]!	; 3895 <_Min_Stack_Size+0x3495>
    3bf0:	3d20746e 	cfstrscc	mvf7, [r0, #-440]!	; 0xfffffe48
    3bf4:	203b3020 	eorscs	r3, fp, r0, lsr #32
    3bf8:	3e2d725f 	mcrcc	2, 1, r7, cr13, cr15, {2}
    3bfc:	73696d5f 	cmnvc	r9, #6080	; 0x17c0
    3c00:	5f3e2d63 	svcpl	0x003e2d63
    3c04:	7273626d 	rsbsvc	r6, r3, #-805306362	; 0xd0000006
    3c08:	63776f74 	cmnvs	r7, #116, 30	; 0x1d0
    3c0c:	74735f73 	ldrbtvc	r5, [r3], #-3955	; 0xfffff08d
    3c10:	2e657461 	cdpcs	4, 6, cr7, cr5, cr1, {3}
    3c14:	61765f5f 	cmnvs	r6, pc, asr pc
    3c18:	2e65756c 	cdpcs	5, 6, cr7, cr5, cr12, {3}
    3c1c:	63775f5f 	cmnvs	r7, #380	; 0x17c
    3c20:	203d2068 	eorscs	r2, sp, r8, rrx
    3c24:	5f203b30 	svcpl	0x00203b30
    3c28:	5f3e2d72 	svcpl	0x003e2d72
    3c2c:	6373696d 	cmnvs	r3, #1785856	; 0x1b4000
    3c30:	775f3e2d 	ldrbvc	r3, [pc, -sp, lsr #28]
    3c34:	6f747263 	svcvs	0x00747263
    3c38:	735f626d 	cmpvc	pc, #-805306362	; 0xd0000006
    3c3c:	65746174 	ldrbvs	r6, [r4, #-372]!	; 0xfffffe8c
    3c40:	635f5f2e 	cmpvs	pc, #46, 30	; 0xb8
    3c44:	746e756f 	strbtvc	r7, [lr], #-1391	; 0xfffffa91
    3c48:	30203d20 	eorcc	r3, r0, r0, lsr #26
    3c4c:	725f203b 	subsvc	r2, pc, #59	; 0x3b
    3c50:	6d5f3e2d 	ldclvs	14, cr3, [pc, #-180]	; 3ba4 <_Min_Stack_Size+0x37a4>
    3c54:	2d637369 	stclcs	3, cr7, [r3, #-420]!	; 0xfffffe5c
    3c58:	63775f3e 	cmnvs	r7, #62, 30	; 0xf8
    3c5c:	6d6f7472 	cfstrdvs	mvd7, [pc, #-456]!	; 3a9c <_Min_Stack_Size+0x369c>
    3c60:	74735f62 	ldrbtvc	r5, [r3], #-3938	; 0xfffff09e
    3c64:	2e657461 	cdpcs	4, 6, cr7, cr5, cr1, {3}
    3c68:	61765f5f 	cmnvs	r6, pc, asr pc
    3c6c:	2e65756c 	cdpcs	5, 6, cr7, cr5, cr12, {3}
    3c70:	63775f5f 	cmnvs	r7, #380	; 0x17c
    3c74:	203d2068 	eorscs	r2, sp, r8, rrx
    3c78:	5f203b30 	svcpl	0x00203b30
    3c7c:	5f3e2d72 	svcpl	0x003e2d72
    3c80:	6373696d 	cmnvs	r3, #1785856	; 0x1b4000
    3c84:	775f3e2d 	ldrbvc	r3, [pc, -sp, lsr #28]
    3c88:	74727363 	ldrbtvc	r7, [r2], #-867	; 0xfffffc9d
    3c8c:	73626d6f 	cmnvc	r2, #7104	; 0x1bc0
    3c90:	6174735f 	cmnvs	r4, pc, asr r3
    3c94:	5f2e6574 	svcpl	0x002e6574
    3c98:	756f635f 	strbvc	r6, [pc, #-863]!	; 3941 <_Min_Stack_Size+0x3541>
    3c9c:	3d20746e 	cfstrscc	mvf7, [r0, #-440]!	; 0xfffffe48
    3ca0:	203b3020 	eorscs	r3, fp, r0, lsr #32
    3ca4:	3e2d725f 	mcrcc	2, 1, r7, cr13, cr15, {2}
    3ca8:	73696d5f 	cmnvc	r9, #6080	; 0x17c0
    3cac:	5f3e2d63 	svcpl	0x003e2d63
    3cb0:	72736377 	rsbsvc	r6, r3, #-603979775	; 0xdc000001
    3cb4:	626d6f74 	rsbvs	r6, sp, #116, 30	; 0x1d0
    3cb8:	74735f73 	ldrbtvc	r5, [r3], #-3955	; 0xfffff08d
    3cbc:	2e657461 	cdpcs	4, 6, cr7, cr5, cr1, {3}
    3cc0:	61765f5f 	cmnvs	r6, pc, asr pc
    3cc4:	2e65756c 	cdpcs	5, 6, cr7, cr5, cr12, {3}
    3cc8:	63775f5f 	cmnvs	r7, #380	; 0x17c
    3ccc:	203d2068 	eorscs	r2, sp, r8, rrx
    3cd0:	5f203b30 	svcpl	0x00203b30
    3cd4:	5f3e2d72 	svcpl	0x003e2d72
    3cd8:	6373696d 	cmnvs	r3, #1785856	; 0x1b4000
    3cdc:	6c5f3e2d 	mrrcvs	14, 2, r3, pc, cr13	; <UNPREDICTABLE>
    3ce0:	5f613436 	svcpl	0x00613436
    3ce4:	5b667562 	blpl	19a1274 <_Min_Stack_Size+0x19a0e74>
    3ce8:	3d205d30 	stccc	13, cr5, [r0, #-192]!	; 0xffffff40
    3cec:	305c2720 	subscc	r2, ip, r0, lsr #14
    3cf0:	5f203b27 	svcpl	0x00203b27
    3cf4:	5f3e2d72 	svcpl	0x003e2d72
    3cf8:	6373696d 	cmnvs	r3, #1785856	; 0x1b4000
    3cfc:	675f3e2d 	ldrbvs	r3, [pc, -sp, lsr #28]
    3d00:	61647465 	cmnvs	r4, r5, ror #8
    3d04:	655f6574 	ldrbvs	r6, [pc, #-1396]	; 3798 <_Min_Stack_Size+0x3398>
    3d08:	3d207272 	sfmcc	f7, 4, [r0, #-456]!	; 0xfffffe38
    3d0c:	203b3020 	eorscs	r3, fp, r0, lsr #32
    3d10:	6877207d 	ldmdavs	r7!, {r0, r2, r3, r4, r5, r6, sp}^
    3d14:	20656c69 	rsbcs	r6, r5, r9, ror #24
    3d18:	00293028 	eoreq	r3, r9, r8, lsr #32
    3d1c:	4654415f 			; <UNDEFINED> instruction: 0x4654415f
    3d20:	5f454c49 	svcpl	0x00454c49
    3d24:	52554f53 	subspl	r4, r5, #332	; 0x14c
    3d28:	49004543 	stmdbmi	r0, {r0, r1, r6, r8, sl, lr}
    3d2c:	465f544e 	ldrbmi	r5, [pc], -lr, asr #8
    3d30:	31545341 	cmpcc	r4, r1, asr #6
    3d34:	494d5f36 	stmdbmi	sp, {r1, r2, r4, r5, r8, r9, sl, fp, ip, lr}^
    3d38:	2d28204e 	stccs	0, cr2, [r8, #-312]!	; 0xfffffec8
    3d3c:	4e495f5f 	mcrmi	15, 2, r5, cr9, cr15, {2}
    3d40:	41465f54 	cmpmi	r6, r4, asr pc
    3d44:	36315453 			; <UNDEFINED> instruction: 0x36315453
    3d48:	58414d5f 	stmdapl	r1, {r0, r1, r2, r3, r4, r6, r8, sl, fp, lr}^
    3d4c:	2d205f5f 	stccs	15, cr5, [r0, #-380]!	; 0xfffffe84
    3d50:	00293120 	eoreq	r3, r9, r0, lsr #2
    3d54:	54535f5f 	ldrbpl	r5, [r3], #-3935	; 0xfffff0a1
    3d58:	565f4344 	ldrbpl	r4, [pc], -r4, asr #6
    3d5c:	49535245 	ldmdbmi	r3, {r0, r2, r6, r9, ip, lr}^
    3d60:	5f5f4e4f 	svcpl	0x005f4e4f
    3d64:	31303220 	teqcc	r0, r0, lsr #4
    3d68:	4c323131 	ldfmis	f3, [r2], #-196	; 0xffffff3c
    3d6c:	6d5f5f00 	ldclvs	15, cr5, [pc, #-0]	; 3d74 <_Min_Stack_Size+0x3974>
    3d70:	6f6c6c61 	svcvs	0x006c6c61
    3d74:	696c5f63 	stmdbvs	ip!, {r0, r1, r5, r6, r8, r9, sl, fp, ip, lr}^
    3d78:	5f20656b 	svcpl	0x0020656b
    3d7c:	7474615f 	ldrbtvc	r6, [r4], #-351	; 0xfffffea1
    3d80:	75626972 	strbvc	r6, [r2, #-2418]!	; 0xfffff68e
    3d84:	5f5f6574 	svcpl	0x005f6574
    3d88:	5f5f2828 	svcpl	0x005f2828
    3d8c:	6c6c616d 	stfvse	f6, [ip], #-436	; 0xfffffe4c
    3d90:	5f5f636f 	svcpl	0x005f636f
    3d94:	5f002929 	svcpl	0x00002929
    3d98:	7972745f 	ldmdbvc	r2!, {r0, r1, r2, r3, r4, r6, sl, ip, sp, lr}^
    3d9c:	6b636f6c 	blvs	18dfb54 <_Min_Stack_Size+0x18df754>
    3da0:	68735f73 	ldmdavs	r3!, {r0, r1, r4, r5, r6, r8, r9, sl, fp, ip, lr}^
    3da4:	64657261 	strbtvs	r7, [r5], #-609	; 0xfffffd9f
    3da8:	2e2e2e28 	cdpcs	14, 2, cr2, cr14, cr8, {1}
    3dac:	5f5f2029 	svcpl	0x005f2029
    3db0:	6b636f6c 	blvs	18dfb68 <_Min_Stack_Size+0x18df768>
    3db4:	6e6e615f 	mcrvs	1, 3, r6, cr14, cr15, {2}
    3db8:	7461746f 	strbtvc	r7, [r1], #-1135	; 0xfffffb91
    3dbc:	68732865 	ldmdavs	r3!, {r0, r2, r5, r6, fp, sp}^
    3dc0:	64657261 	strbtvs	r7, [r5], #-609	; 0xfffffd9f
    3dc4:	7972745f 	ldmdbvc	r2!, {r0, r1, r2, r3, r4, r6, sl, ip, sp, lr}^
    3dc8:	6b636f6c 	blvs	18dfb80 <_Min_Stack_Size+0x18df780>
    3dcc:	6e75665f 	mrcvs	6, 3, r6, cr5, cr15, {2}
    3dd0:	6f697463 	svcvs	0x00697463
    3dd4:	5f5f286e 	svcpl	0x005f286e
    3dd8:	415f4156 	cmpmi	pc, r6, asr r1	; <UNPREDICTABLE>
    3ddc:	5f534752 	svcpl	0x00534752
    3de0:	0029295f 	eoreq	r2, r9, pc, asr r9
    3de4:	4e495f5f 	mcrmi	15, 2, r5, cr9, cr15, {2}
    3de8:	454c5f54 	strbmi	r5, [ip, #-3924]	; 0xfffff0ac
    3dec:	38545341 	ldmdacc	r4, {r0, r6, r8, r9, ip, lr}^
    3df0:	58414d5f 	stmdapl	r1, {r0, r1, r2, r3, r4, r6, r8, sl, fp, lr}^
    3df4:	30205f5f 	eorcc	r5, r0, pc, asr pc
    3df8:	00663778 	rsbeq	r3, r6, r8, ror r7
    3dfc:	4349564e 	movtmi	r5, #38478	; 0x964e
    3e00:	5152495f 	cmppl	r2, pc, asr r9
    3e04:	455f3332 	ldrbmi	r3, [pc, #-818]	; 3ada <_Min_Stack_Size+0x36da>
    3e08:	35495458 	strbcc	r5, [r9, #-1112]	; 0xfffffba8
    3e0c:	455f395f 	ldrbmi	r3, [pc, #-2399]	; 34b5 <_Min_Stack_Size+0x30b5>
    3e10:	6c62616e 	stfvse	f6, [r2], #-440	; 0xfffffe48
    3e14:	20292865 	eorcs	r2, r9, r5, ror #16
    3e18:	49564e28 	ldmdbmi	r6, {r3, r5, r9, sl, fp, lr}^
    3e1c:	53495f43 	movtpl	r5, #40771	; 0x9f43
    3e20:	20305245 	eorscs	r5, r0, r5, asr #4
    3e24:	28203d7c 	stmdacs	r0!, {r2, r3, r4, r5, r6, r8, sl, fp, ip, sp}
    3e28:	323c3c31 	eorscc	r3, ip, #12544	; 0x3100
    3e2c:	00292933 	eoreq	r2, r9, r3, lsr r9
    3e30:	43475f5f 	movtmi	r5, #32607	; 0x7f5f
    3e34:	54415f43 	strbpl	r5, [r1], #-3907	; 0xfffff0bd
    3e38:	43494d4f 	movtmi	r4, #40271	; 0x9d4f
    3e3c:	494f505f 	stmdbmi	pc, {r0, r1, r2, r3, r4, r6, ip, lr}^	; <UNPREDICTABLE>
    3e40:	5245544e 	subpl	r5, r5, #1308622848	; 0x4e000000
    3e44:	434f4c5f 	movtmi	r4, #64607	; 0xfc5f
    3e48:	52465f4b 	subpl	r5, r6, #300	; 0x12c
    3e4c:	32204545 	eorcc	r4, r0, #289406976	; 0x11400000
    3e50:	415f5f00 	cmpmi	pc, r0, lsl #30
    3e54:	465f4d52 			; <UNDEFINED> instruction: 0x465f4d52
    3e58:	55544145 	ldrbpl	r4, [r4, #-325]	; 0xfffffebb
    3e5c:	515f4552 	cmppl	pc, r2, asr r5	; <UNPREDICTABLE>
    3e60:	20544942 	subscs	r4, r4, r2, asr #18
    3e64:	5f5f0031 	svcpl	0x005f0031
    3e68:	5f4d5241 	svcpl	0x004d5241
    3e6c:	54414546 	strbpl	r4, [r1], #-1350	; 0xfffffaba
    3e70:	5f455255 	svcpl	0x00455255
    3e74:	205a4c43 	subscs	r4, sl, r3, asr #24
    3e78:	5f5f0031 	svcpl	0x005f0031
    3e7c:	535f4343 	cmppl	pc, #201326593	; 0xc000001
    3e80:	4f505055 	svcmi	0x00505055
    3e84:	5f535452 	svcpl	0x00535452
    3e88:	4e524157 	mrcmi	1, 2, r4, cr2, cr7, {2}
    3e8c:	20474e49 	subcs	r4, r7, r9, asr #28
    3e90:	5f5f0031 	svcpl	0x005f0031
    3e94:	4d4f5441 	cfstrdmi	mvd5, [pc, #-260]	; 3d98 <_Min_Stack_Size+0x3998>
    3e98:	415f4349 	cmpmi	pc, r9, asr #6
    3e9c:	49555143 	ldmdbmi	r5, {r0, r1, r6, r8, ip, lr}^
    3ea0:	32204552 	eorcc	r4, r0, #343932928	; 0x14800000
    3ea4:	49504700 	ldmdbmi	r0, {r8, r9, sl, lr}^
    3ea8:	2820434f 	stmdacs	r0!, {r0, r1, r2, r3, r6, r8, r9, lr}
    3eac:	49504728 	ldmdbmi	r0, {r3, r5, r8, r9, sl, lr}^
    3eb0:	79545f4f 	ldmdbvc	r4, {r0, r1, r2, r3, r6, r8, r9, sl, fp, ip, lr}^
    3eb4:	65446570 	strbvs	r6, [r4, #-1392]	; 0xfffffa90
    3eb8:	292a2066 	stmdbcs	sl!, {r1, r2, r5, r6, sp}
    3ebc:	4f495047 	svcmi	0x00495047
    3ec0:	41425f43 	cmpmi	r2, r3, asr #30
    3ec4:	00294553 	eoreq	r4, r9, r3, asr r5
    3ec8:	6f6c5f5f 	svcvs	0x006c5f5f
    3ecc:	5f736b63 	svcpl	0x00736b63
    3ed0:	72616873 	rsbvc	r6, r1, #7536640	; 0x730000
    3ed4:	2e286465 	cdpcs	4, 2, cr6, cr8, cr5, {3}
    3ed8:	20292e2e 	eorcs	r2, r9, lr, lsr #28
    3edc:	6f6c5f5f 	svcvs	0x006c5f5f
    3ee0:	615f6b63 	cmpvs	pc, r3, ror #22
    3ee4:	746f6e6e 	strbtvc	r6, [pc], #-3694	; 3eec <_Min_Stack_Size+0x3aec>
    3ee8:	28657461 	stmdacs	r5!, {r0, r5, r6, sl, ip, sp, lr}^
    3eec:	72616873 	rsbvc	r6, r1, #7536640	; 0x730000
    3ef0:	6c5f6465 	cfldrdvs	mvd6, [pc], {101}	; 0x65
    3ef4:	5f6b636f 	svcpl	0x006b636f
    3ef8:	636e7566 	cmnvs	lr, #427819008	; 0x19800000
    3efc:	6e6f6974 			; <UNDEFINED> instruction: 0x6e6f6974
    3f00:	565f5f28 	ldrbpl	r5, [pc], -r8, lsr #30
    3f04:	52415f41 	subpl	r5, r1, #260	; 0x104
    3f08:	5f5f5347 	svcpl	0x005f5347
    3f0c:	5f002929 	svcpl	0x00002929
    3f10:	544e495f 	strbpl	r4, [lr], #-2399	; 0xfffff6a1
    3f14:	22203631 	eorcs	r3, r0, #51380224	; 0x3100000
    3f18:	75002268 	strvc	r2, [r0, #-616]	; 0xfffffd98
    3f1c:	6769736e 	strbvs	r7, [r9, -lr, ror #6]!
    3f20:	2064656e 	rsbcs	r6, r4, lr, ror #10
    3f24:	6e676973 			; <UNDEFINED> instruction: 0x6e676973
    3f28:	45006465 	strmi	r6, [r0, #-1125]	; 0xfffffb9b
    3f2c:	5f495458 	svcpl	0x00495458
    3f30:	454e494c 	strbmi	r4, [lr, #-2380]	; 0xfffff6b4
    3f34:	44505f39 	ldrbmi	r5, [r0], #-3897	; 0xfffff0c7
    3f38:	45282039 	strmi	r2, [r8, #-57]!	; 0xffffffc7
    3f3c:	5f495458 	svcpl	0x00495458
    3f40:	4f495047 	svcmi	0x00495047
    3f44:	70614d5f 	rsbvc	r4, r1, pc, asr sp
    3f48:	676e6970 			; <UNDEFINED> instruction: 0x676e6970
    3f4c:	7b29745f 	blvc	a610d0 <_Min_Stack_Size+0xa60cd0>
    3f50:	49545845 	ldmdbmi	r4, {r0, r2, r6, fp, ip, lr}^
    3f54:	47202c39 			; <UNDEFINED> instruction: 0x47202c39
    3f58:	444f4950 	strbmi	r4, [pc], #-2384	; 3f60 <_Min_Stack_Size+0x3b60>
    3f5c:	5047202c 	subpl	r2, r7, ip, lsr #32
    3f60:	505f4f49 	subspl	r4, pc, r9, asr #30
    3f64:	395f4e49 	ldmdbcc	pc, {r0, r3, r6, r9, sl, fp, lr}^	; <UNPREDICTABLE>
    3f68:	5845202c 	stmdapl	r5, {r2, r3, r5, sp}^
    3f6c:	5f394954 	svcpl	0x00394954
    3f70:	7d515249 	lfmvc	f5, 2, [r1, #-292]	; 0xfffffedc
    3f74:	4e495f00 	cdpmi	15, 4, cr5, cr9, cr0, {0}
    3f78:	52545054 	subspl	r5, r4, #84	; 0x54
    3f7c:	5f51455f 	svcpl	0x0051455f
    3f80:	20544e49 	subscs	r4, r4, r9, asr #28
    3f84:	415f5f00 	cmpmi	pc, r0, lsl #30
    3f88:	535f4d52 	cmppl	pc, #5248	; 0x1480
    3f8c:	4f455a49 	svcmi	0x00455a49
    3f90:	43575f46 	cmpmi	r7, #280	; 0x118
    3f94:	5f524148 	svcpl	0x00524148
    3f98:	00342054 	eorseq	r2, r4, r4, asr r0
    3f9c:	4c465f5f 	mcrrmi	15, 5, r5, r6, cr15
    3fa0:	58323354 	ldmdapl	r2!, {r2, r4, r6, r8, r9, ip, sp}
    3fa4:	58414d5f 	stmdapl	r1, {r0, r1, r2, r3, r4, r6, r8, sl, fp, lr}^
    3fa8:	5058455f 	subspl	r4, r8, pc, asr r5
    3fac:	31205f5f 			; <UNDEFINED> instruction: 0x31205f5f
    3fb0:	00343230 	eorseq	r3, r4, r0, lsr r2
    3fb4:	61685f5f 	cmnvs	r8, pc, asr pc
    3fb8:	6e695f73 	mcrvs	15, 3, r5, cr9, cr3, {3}
    3fbc:	64756c63 	ldrbtvs	r6, [r5], #-3171	; 0xfffff39d
    3fc0:	54532865 	ldrbpl	r2, [r3], #-2149	; 0xfffff79b
    3fc4:	5f202952 	svcpl	0x00202952
    3fc8:	7361685f 	cmnvc	r1, #6225920	; 0x5f0000
    3fcc:	636e695f 	cmnvs	lr, #1556480	; 0x17c000
    3fd0:	6564756c 	strbvs	r7, [r4, #-1388]!	; 0xfffffa94
    3fd4:	53285f5f 			; <UNDEFINED> instruction: 0x53285f5f
    3fd8:	00295254 	eoreq	r5, r9, r4, asr r2
    3fdc:	4349564e 	movtmi	r5, #38478	; 0x964e
    3fe0:	5152495f 	cmppl	r2, pc, asr r9
    3fe4:	455f3332 	ldrbmi	r3, [pc, #-818]	; 3cba <_Min_Stack_Size+0x38ba>
    3fe8:	35495458 	strbcc	r5, [r9, #-1112]	; 0xfffffba8
    3fec:	445f395f 	ldrbmi	r3, [pc], #-2399	; 3ff4 <_Min_Stack_Size+0x3bf4>
    3ff0:	62617369 	rsbvs	r7, r1, #-1543503871	; 0xa4000001
    3ff4:	2928656c 	stmdbcs	r8!, {r2, r3, r5, r6, r8, sl, sp, lr}
    3ff8:	564e2820 	strbpl	r2, [lr], -r0, lsr #16
    3ffc:	495f4349 	ldmdbmi	pc, {r0, r3, r6, r8, r9, lr}^	; <UNPREDICTABLE>
    4000:	30524543 	subscc	r4, r2, r3, asr #10
    4004:	203d7c20 	eorscs	r7, sp, r0, lsr #24
    4008:	3c3c3128 	ldfccs	f3, [ip], #-160	; 0xffffff60
    400c:	29293332 	stmdbcs	r9!, {r1, r4, r5, r8, r9, ip, sp}
    4010:	49504700 	ldmdbmi	r0, {r8, r9, sl, lr}^
    4014:	4f4d5f4f 	svcmi	0x004d5f4f
    4018:	415f4544 	cmpmi	pc, r4, asr #10
    401c:	6f6c616e 	svcvs	0x006c616e
    4020:	78302067 	ldmdavc	r0!, {r0, r1, r2, r5, r6, sp}
    4024:	30303030 	eorscc	r3, r0, r0, lsr r0
    4028:	30303030 	eorscc	r3, r0, r0, lsr r0
    402c:	50470075 	subpl	r0, r7, r5, ror r0
    4030:	20424f49 	subcs	r4, r2, r9, asr #30
    4034:	50472828 	subpl	r2, r7, r8, lsr #16
    4038:	545f4f49 	ldrbpl	r4, [pc], #-3913	; 4040 <_Min_Stack_Size+0x3c40>
    403c:	44657079 	strbtmi	r7, [r5], #-121	; 0xffffff87
    4040:	2a206665 	bcs	81d9dc <_Min_Stack_Size+0x81d5dc>
    4044:	49504729 	ldmdbmi	r0, {r0, r3, r5, r8, r9, sl, lr}^
    4048:	425f424f 	subsmi	r4, pc, #-268435452	; 0xf0000004
    404c:	29455341 	stmdbcs	r5, {r0, r6, r8, r9, ip, lr}^
    4050:	555f5f00 	ldrbpl	r5, [pc, #-3840]	; 3158 <_Min_Stack_Size+0x2d58>
    4054:	5f544e49 	svcpl	0x00544e49
    4058:	5341454c 	movtpl	r4, #5452	; 0x154c
    405c:	5f323354 	svcpl	0x00323354
    4060:	5f58414d 	svcpl	0x0058414d
    4064:	7830205f 	ldmdavc	r0!, {r0, r1, r2, r3, r4, r6, sp}
    4068:	66666666 	strbtvs	r6, [r6], -r6, ror #12
    406c:	66666666 	strbtvs	r6, [r6], -r6, ror #12
    4070:	5f004c55 	svcpl	0x00004c55
    4074:	4c42445f 	cfstrdmi	mvd4, [r2], {95}	; 0x5f
    4078:	5350455f 	cmppl	r0, #398458880	; 0x17c00000
    407c:	4e4f4c49 	cdpmi	12, 4, cr4, cr15, cr9, {2}
    4080:	28205f5f 	stmdacs	r0!, {r0, r1, r2, r3, r4, r6, r8, r9, sl, fp, ip, lr}
    4084:	756f6428 	strbvc	r6, [pc, #-1064]!	; 3c64 <_Min_Stack_Size+0x3864>
    4088:	29656c62 	stmdbcs	r5!, {r1, r5, r6, sl, fp, sp, lr}^
    408c:	32322e32 	eorscc	r2, r2, #800	; 0x320
    4090:	36343430 			; <UNDEFINED> instruction: 0x36343430
    4094:	32393430 	eorscc	r3, r9, #48, 8	; 0x30000000
    4098:	31333035 	teqcc	r3, r5, lsr r0
    409c:	2d653133 	stfcse	f3, [r5, #-204]!	; 0xffffff34
    40a0:	294c3631 	stmdbcs	ip, {r0, r4, r5, r9, sl, ip, sp}^
    40a4:	6c5f5f00 	mrrcvs	15, 0, r5, pc, cr0	; <UNPREDICTABLE>
    40a8:	5f6b636f 	svcpl	0x006b636f
    40ac:	75716361 	ldrbvc	r6, [r1, #-865]!	; 0xfffffc9f
    40b0:	28657269 	stmdacs	r5!, {r0, r3, r5, r6, r9, ip, sp, lr}^
    40b4:	6b636f6c 	blvs	18dfe6c <_Min_Stack_Size+0x18dfa6c>
    40b8:	28282029 	stmdacs	r8!, {r0, r3, r5, sp}
    40bc:	64696f76 	strbtvs	r6, [r9], #-3958	; 0xfffff08a
    40c0:	29302029 	ldmdbcs	r0!, {r0, r3, r5, sp}
    40c4:	4c5f5f00 	mrrcmi	15, 0, r5, pc, cr0	; <UNPREDICTABLE>
    40c8:	43415246 	movtmi	r5, #4678	; 0x1246
    40cc:	494d5f54 	stmdbmi	sp, {r2, r4, r6, r8, r9, sl, fp, ip, lr}^
    40d0:	205f5f4e 	subscs	r5, pc, lr, asr #30
    40d4:	2e302d28 	cdpcs	13, 3, cr2, cr0, cr8, {1}
    40d8:	2d524c35 	ldclcs	12, cr4, [r2, #-212]	; 0xffffff2c
    40dc:	4c352e30 	ldcmi	14, cr2, [r5], #-192	; 0xffffff40
    40e0:	47002952 	smlsdmi	r0, r2, r9, r2
    40e4:	5f4f4950 	svcpl	0x004f4950
    40e8:	45455053 	strbmi	r5, [r5, #-83]	; 0xffffffad
    40ec:	30355f44 	eorscc	r5, r5, r4, asr #30
    40f0:	7830204d 	ldmdavc	r0!, {r0, r2, r3, r6, sp}
    40f4:	30303030 	eorscc	r3, r0, r0, lsr r0
    40f8:	33303030 	teqcc	r0, #48	; 0x30
    40fc:	525f0075 	subspl	r0, pc, #117	; 0x75
    4100:	544e4545 	strbpl	r4, [lr], #-1349	; 0xfffffabb
    4104:	5343575f 	movtpl	r5, #14175	; 0x375f
    4108:	4d4f5452 	cfstrdmi	mvd5, [pc, #-328]	; 3fc8 <_Min_Stack_Size+0x3bc8>
    410c:	535f5342 	cmppl	pc, #134217729	; 0x8000001
    4110:	45544154 	ldrbmi	r4, [r4, #-340]	; 0xfffffeac
    4114:	72747028 	rsbsvc	r7, r4, #40	; 0x28
    4118:	28282029 	stmdacs	r8!, {r0, r3, r5, sp}
    411c:	29727470 	ldmdbcs	r2!, {r4, r5, r6, sl, ip, sp, lr}^
    4120:	6d5f3e2d 	ldclvs	14, cr3, [pc, #-180]	; 4074 <_Min_Stack_Size+0x3c74>
    4124:	2d637369 	stclcs	3, cr7, [r3, #-420]!	; 0xfffffe5c
    4128:	63775f3e 	cmnvs	r7, #62, 30	; 0xf8
    412c:	6f747273 	svcvs	0x00747273
    4130:	5f73626d 	svcpl	0x0073626d
    4134:	74617473 	strbtvc	r7, [r1], #-1139	; 0xfffffb8d
    4138:	5f002965 	svcpl	0x00002965
    413c:	544e495f 	strbpl	r4, [lr], #-2399	; 0xfffff6a1
    4140:	41454c5f 	cmpmi	r5, pc, asr ip
    4144:	34365453 	ldrtcc	r5, [r6], #-1107	; 0xfffffbad
    4148:	4449575f 	strbmi	r5, [r9], #-1887	; 0xfffff8a1
    414c:	5f5f4854 	svcpl	0x005f4854
    4150:	00343620 	eorseq	r3, r4, r0, lsr #12
    4154:	4c465f5f 	mcrrmi	15, 5, r5, r6, cr15
    4158:	41485f54 	cmpmi	r8, r4, asr pc
    415c:	4e495f53 	mcrmi	15, 2, r5, cr9, cr3, {2}
    4160:	494e4946 	stmdbmi	lr, {r1, r2, r6, r8, fp, lr}^
    4164:	5f5f5954 	svcpl	0x005f5954
    4168:	5f003120 	svcpl	0x00003120
    416c:	4e454552 	mcrmi	5, 2, r4, cr5, cr2, {2}
    4170:	4c475f54 	mcrrmi	15, 5, r5, r7, cr4
    4174:	4c41424f 	sfmmi	f4, 2, [r1], {79}	; 0x4f
    4178:	4554415f 	ldrbmi	r4, [r4, #-351]	; 0xfffffea1
    417c:	20544958 	subscs	r4, r4, r8, asr r9
    4180:	5f5f0031 	svcpl	0x005f0031
    4184:	55434341 	strbpl	r4, [r3, #-833]	; 0xfffffcbf
    4188:	414d5f4d 	cmpmi	sp, sp, asr #30
    418c:	205f5f58 	subscs	r5, pc, r8, asr pc	; <UNPREDICTABLE>
    4190:	46375830 			; <UNDEFINED> instruction: 0x46375830
    4194:	46464646 	strbmi	r4, [r6], -r6, asr #12
    4198:	2d504646 	ldclcs	6, cr4, [r0, #-280]	; 0xfffffee8
    419c:	004b3531 	subeq	r3, fp, r1, lsr r5
    41a0:	4f495047 	svcmi	0x00495047
    41a4:	28282041 	stmdacs	r8!, {r0, r6, sp}
    41a8:	4f495047 	svcmi	0x00495047
    41ac:	7079545f 	rsbsvc	r5, r9, pc, asr r4
    41b0:	66654465 	strbtvs	r4, [r5], -r5, ror #8
    41b4:	47292a20 	strmi	r2, [r9, -r0, lsr #20]!
    41b8:	414f4950 	cmpmi	pc, r0, asr r9	; <UNPREDICTABLE>
    41bc:	5341425f 	movtpl	r4, #4703	; 0x125f
    41c0:	5f002945 	svcpl	0x00002945
    41c4:	544e495f 	strbpl	r4, [lr], #-2399	; 0xfffff6a1
    41c8:	414d5f38 	cmpmi	sp, r8, lsr pc
    41cc:	205f5f58 	subscs	r5, pc, r8, asr pc	; <UNPREDICTABLE>
    41d0:	66377830 			; <UNDEFINED> instruction: 0x66377830
    41d4:	54584500 	ldrbpl	r4, [r8], #-1280	; 0xfffffb00
    41d8:	494c5f49 	stmdbmi	ip, {r0, r3, r6, r8, r9, sl, fp, ip, lr}^
    41dc:	3431454e 	ldrtcc	r4, [r1], #-1358	; 0xfffffab2
    41e0:	3141505f 	qdaddcc	r5, pc, r1	; <UNPREDICTABLE>
    41e4:	45282034 	strmi	r2, [r8, #-52]!	; 0xffffffcc
    41e8:	5f495458 	svcpl	0x00495458
    41ec:	4f495047 	svcmi	0x00495047
    41f0:	70614d5f 	rsbvc	r4, r1, pc, asr sp
    41f4:	676e6970 			; <UNDEFINED> instruction: 0x676e6970
    41f8:	7b29745f 	blvc	a6137c <_Min_Stack_Size+0xa60f7c>
    41fc:	49545845 	ldmdbmi	r4, {r0, r2, r6, fp, ip, lr}^
    4200:	202c3431 	eorcs	r3, ip, r1, lsr r4
    4204:	4f495047 	svcmi	0x00495047
    4208:	47202c41 	strmi	r2, [r0, -r1, asr #24]!
    420c:	5f4f4950 	svcpl	0x004f4950
    4210:	5f4e4950 	svcpl	0x004e4950
    4214:	202c3431 	eorcs	r3, ip, r1, lsr r4
    4218:	49545845 	ldmdbmi	r4, {r0, r2, r6, fp, ip, lr}^
    421c:	495f3431 	ldmdbmi	pc, {r0, r4, r5, sl, ip, sp}^	; <UNPREDICTABLE>
    4220:	007d5152 	rsbseq	r5, sp, r2, asr r1
    4224:	4f495047 	svcmi	0x00495047
    4228:	28282044 	stmdacs	r8!, {r2, r6, sp}
    422c:	4f495047 	svcmi	0x00495047
    4230:	7079545f 	rsbsvc	r5, r9, pc, asr r4
    4234:	66654465 	strbtvs	r4, [r5], -r5, ror #8
    4238:	47292a20 	strmi	r2, [r9, -r0, lsr #20]!
    423c:	444f4950 	strbmi	r4, [pc], #-2384	; 4244 <_Min_Stack_Size+0x3e44>
    4240:	5341425f 	movtpl	r4, #4703	; 0x125f
    4244:	5f002945 	svcpl	0x00002945
    4248:	4343475f 	movtmi	r4, #14175	; 0x375f
    424c:	5641485f 			; <UNDEFINED> instruction: 0x5641485f
    4250:	57445f45 	strbpl	r5, [r4, -r5, asr #30]
    4254:	32465241 	subcc	r5, r6, #268435460	; 0x10000004
    4258:	4946435f 	stmdbmi	r6, {r0, r1, r2, r3, r4, r6, r8, r9, lr}^
    425c:	4d53415f 	ldfmie	f4, [r3, #-380]	; 0xfffffe84
    4260:	5f003120 	svcpl	0x00003120
    4264:	6e695f5f 	mcrvs	15, 3, r5, cr9, cr15, {2}
    4268:	745f3874 	ldrbvc	r3, [pc], #-2164	; 4270 <_Min_Stack_Size+0x3e70>
    426c:	6665645f 			; <UNDEFINED> instruction: 0x6665645f
    4270:	64656e69 	strbtvs	r6, [r5], #-3689	; 0xfffff197
    4274:	5f003120 	svcpl	0x00003120
    4278:	5246535f 	subpl	r5, r6, #2080374785	; 0x7c000001
    427c:	5f544341 	svcpl	0x00544341
    4280:	5f4e494d 	svcpl	0x004e494d
    4284:	2d28205f 	stccs	0, cr2, [r8, #-380]!	; 0xfffffe84
    4288:	48352e30 	ldmdami	r5!, {r4, r5, r9, sl, fp, sp}
    428c:	2e302d52 	mrccs	13, 1, r2, cr0, cr2, {2}
    4290:	29524835 	ldmdbcs	r2, {r0, r2, r4, r5, fp, lr}^
    4294:	535f5f00 	cmppl	pc, #0, 30
    4298:	42495f41 	submi	r5, r9, #260	; 0x104
    429c:	5f5f5449 	svcpl	0x005f5449
    42a0:	00363120 	eorseq	r3, r6, r0, lsr #2
    42a4:	666f5f5f 	uqsaxvs	r5, pc, pc	; <UNPREDICTABLE>
    42a8:	74657366 	strbtvc	r7, [r5], #-870	; 0xfffffc9a
    42ac:	7428666f 	strtvc	r6, [r8], #-1647	; 0xfffff991
    42b0:	2c657079 	stclcs	0, cr7, [r5], #-484	; 0xfffffe1c
    42b4:	6c656966 			; <UNDEFINED> instruction: 0x6c656966
    42b8:	6f202964 	svcvs	0x00202964
    42bc:	65736666 	ldrbvs	r6, [r3, #-1638]!	; 0xfffff99a
    42c0:	28666f74 	stmdacs	r6!, {r2, r4, r5, r6, r8, r9, sl, fp, sp, lr}^
    42c4:	65707974 	ldrbvs	r7, [r0, #-2420]!	; 0xfffff68c
    42c8:	6966202c 	stmdbvs	r6!, {r2, r3, r5, sp}^
    42cc:	29646c65 	stmdbcs	r4!, {r0, r2, r5, r6, sl, fp, sp, lr}^
    42d0:	475f5f00 	ldrbmi	r5, [pc, -r0, lsl #30]
    42d4:	495f4343 	ldmdbmi	pc, {r0, r1, r6, r8, r9, lr}^	; <UNPREDICTABLE>
    42d8:	355f4345 	ldrbcc	r4, [pc, #-837]	; 3f9b <_Min_Stack_Size+0x3b9b>
    42dc:	435f3935 	cmpmi	pc, #868352	; 0xd4000
    42e0:	4c504d4f 	mrrcmi	13, 4, r4, r0, cr15
    42e4:	30205845 	eorcc	r5, r0, r5, asr #16
    42e8:	72655000 	rsbvc	r5, r5, #0
    42ec:	65687069 	strbvs	r7, [r8, #-105]!	; 0xffffff97
    42f0:	736c6172 	cmnvc	ip, #-2147483620	; 0x8000001c
    42f4:	5341425f 	movtpl	r4, #4703	; 0x125f
    42f8:	78302045 	ldmdavc	r0!, {r0, r2, r6, sp}
    42fc:	30303034 	eorscc	r3, r0, r4, lsr r0
    4300:	30303030 	eorscc	r3, r0, r0, lsr r0
    4304:	5f004c55 	svcpl	0x00004c55
    4308:	6e6f6e5f 	mcrvs	14, 3, r6, cr15, cr15, {2}
    430c:	6c6c756e 	cfstr64vs	mvdx7, [ip], #-440	; 0xfffffe48
    4310:	6c6c615f 	stfvse	f6, [ip], #-380	; 0xfffffe84
    4314:	615f5f20 	cmpvs	pc, r0, lsr #30
    4318:	69727474 	ldmdbvs	r2!, {r2, r4, r5, r6, sl, ip, sp, lr}^
    431c:	65747562 	ldrbvs	r7, [r4, #-1378]!	; 0xfffffa9e
    4320:	28285f5f 	stmdacs	r8!, {r0, r1, r2, r3, r4, r6, r8, r9, sl, fp, ip, lr}
    4324:	6f6e5f5f 	svcvs	0x006e5f5f
    4328:	6c756e6e 	ldclvs	14, cr6, [r5], #-440	; 0xfffffe48
    432c:	295f5f6c 	ldmdbcs	pc, {r2, r3, r5, r6, r8, r9, sl, fp, ip, lr}^	; <UNPREDICTABLE>
    4330:	5f5f0029 	svcpl	0x005f0029
    4334:	43554e47 	cmpmi	r5, #1136	; 0x470
    4338:	37205f5f 			; <UNDEFINED> instruction: 0x37205f5f
    433c:	415f5f00 	cmpmi	pc, r0, lsl #30
    4340:	465f4d52 			; <UNDEFINED> instruction: 0x465f4d52
    4344:	5f363150 	svcpl	0x00363150
    4348:	4d524f46 	ldclmi	15, cr4, [r2, #-280]	; 0xfffffee8
    434c:	495f5441 	ldmdbmi	pc, {r0, r6, sl, ip, lr}^	; <UNPREDICTABLE>
    4350:	00454545 	subeq	r4, r5, r5, asr #10
    4354:	49555f5f 	ldmdbmi	r5, {r0, r1, r2, r3, r4, r6, r8, r9, sl, fp, ip, lr}^
    4358:	3631544e 	ldrtcc	r5, [r1], -lr, asr #8
    435c:	5059545f 	subspl	r5, r9, pc, asr r4
    4360:	205f5f45 	subscs	r5, pc, r5, asr #30
    4364:	726f6873 	rsbvc	r6, pc, #7536640	; 0x730000
    4368:	6e752074 	mrcvs	0, 3, r2, cr5, cr4, {3}
    436c:	6e676973 			; <UNDEFINED> instruction: 0x6e676973
    4370:	69206465 	stmdbvs	r0!, {r0, r2, r5, r6, sl, sp, lr}
    4374:	5f00746e 	svcpl	0x0000746e
    4378:	49534f50 	ldmdbmi	r3, {r4, r6, r8, r9, sl, fp, lr}^
    437c:	4f535f58 	svcmi	0x00535f58
    4380:	45435255 	strbmi	r5, [r3, #-597]	; 0xfffffdab
    4384:	4e415200 	cdpmi	2, 4, cr5, cr1, cr0, {0}
    4388:	414d5f44 	cmpmi	sp, r4, asr #30
    438c:	5f5f2058 	svcpl	0x005f2058
    4390:	444e4152 	strbmi	r4, [lr], #-338	; 0xfffffeae
    4394:	58414d5f 	stmdapl	r1, {r0, r1, r2, r3, r4, r6, r8, sl, fp, lr}^
    4398:	755f5f00 	ldrbvc	r5, [pc, #-3840]	; 34a0 <_Min_Stack_Size+0x30a0>
    439c:	33746e69 	cmncc	r4, #1680	; 0x690
    43a0:	00745f32 	rsbseq	r5, r4, r2, lsr pc
    43a4:	4f535f5f 	svcmi	0x00535f5f
    43a8:	50465446 	subpl	r5, r6, r6, asr #8
    43ac:	31205f5f 			; <UNDEFINED> instruction: 0x31205f5f
    43b0:	45525f00 	ldrbmi	r5, [r2, #-3840]	; 0xfffff100
    43b4:	5f544e45 	svcpl	0x00544e45
    43b8:	70284d54 	eorvc	r4, r8, r4, asr sp
    43bc:	20297274 	eorcs	r7, r9, r4, ror r2
    43c0:	74702828 	ldrbtvc	r2, [r0], #-2088	; 0xfffff7d8
    43c4:	3e2d2972 			; <UNDEFINED> instruction: 0x3e2d2972
    43c8:	636f6c5f 	cmnvs	pc, #24320	; 0x5f00
    43cc:	69746c61 	ldmdbvs	r4!, {r0, r5, r6, sl, fp, sp, lr}^
    43d0:	625f656d 	subsvs	r6, pc, #457179136	; 0x1b400000
    43d4:	00296675 	eoreq	r6, r9, r5, ror r6
    43d8:	46735f5f 	uhsaxmi	r5, r3, pc	; <UNPREDICTABLE>
    43dc:	00454c49 	subeq	r4, r5, r9, asr #24
    43e0:	64735f5f 	ldrbtvs	r5, [r3], #-3935	; 0xfffff0a1
    43e4:	6e696469 	cdpvs	4, 6, cr6, cr9, cr9, {3}
    43e8:	5f007469 	svcpl	0x00007469
    43ec:	4345445f 	movtmi	r4, #21599	; 0x545f
    43f0:	4d5f3233 	lfmmi	f3, 2, [pc, #-204]	; 432c <_Min_Stack_Size+0x3f2c>
    43f4:	455f5841 	ldrbmi	r5, [pc, #-2113]	; 3bbb <_Min_Stack_Size+0x37bb>
    43f8:	5f5f5058 	svcpl	0x005f5058
    43fc:	00373920 	eorseq	r3, r7, r0, lsr #18
    4400:	535f545f 	cmppl	pc, #1593835520	; 0x5f000000
    4404:	5f455a49 	svcpl	0x00455a49
    4408:	5f5f0020 	svcpl	0x005f0020
    440c:	5f544c46 	svcpl	0x00544c46
    4410:	4c415645 	mcrrmi	6, 4, r5, r1, cr5
    4414:	54454d5f 	strbpl	r4, [r5], #-3423	; 0xfffff2a1
    4418:	5f444f48 	svcpl	0x00444f48
    441c:	315f5354 	cmpcc	pc, r4, asr r3	; <UNPREDICTABLE>
    4420:	31363638 	teqcc	r6, r8, lsr r6
    4424:	5f5f335f 	svcpl	0x005f335f
    4428:	5f003020 	svcpl	0x00003020
    442c:	7474615f 	ldrbtvc	r6, [r4], #-351	; 0xfffffea1
    4430:	75626972 	strbvc	r6, [r2, #-2418]!	; 0xfffff68e
    4434:	6d5f6574 	cfldr64vs	mvdx6, [pc, #-464]	; 426c <_Min_Stack_Size+0x3e6c>
    4438:	6f6c6c61 	svcvs	0x006c6c61
    443c:	205f5f63 	subscs	r5, pc, r3, ror #30
    4440:	535f5f00 	cmppl	pc, #0, 30
    4444:	52414843 	subpl	r4, r1, #4390912	; 0x430000
    4448:	4449575f 	strbmi	r5, [r9], #-1887	; 0xfffff8a1
    444c:	5f5f4854 	svcpl	0x005f4854
    4450:	45003820 	strmi	r3, [r0, #-2080]	; 0xfffff7e0
    4454:	5f495458 	svcpl	0x00495458
    4458:	454e494c 	strbmi	r4, [lr, #-2380]	; 0xfffff6b4
    445c:	44505f33 	ldrbmi	r5, [r0], #-3891	; 0xfffff0cd
    4460:	45282033 	strmi	r2, [r8, #-51]!	; 0xffffffcd
    4464:	5f495458 	svcpl	0x00495458
    4468:	4f495047 	svcmi	0x00495047
    446c:	70614d5f 	rsbvc	r4, r1, pc, asr sp
    4470:	676e6970 			; <UNDEFINED> instruction: 0x676e6970
    4474:	7b29745f 	blvc	a615f8 <_Min_Stack_Size+0xa611f8>
    4478:	49545845 	ldmdbmi	r4, {r0, r2, r6, fp, ip, lr}^
    447c:	47202c33 			; <UNDEFINED> instruction: 0x47202c33
    4480:	444f4950 	strbmi	r4, [pc], #-2384	; 4488 <_Min_Stack_Size+0x4088>
    4484:	5047202c 	subpl	r2, r7, ip, lsr #32
    4488:	505f4f49 	subspl	r4, pc, r9, asr #30
    448c:	335f4e49 	cmpcc	pc, #1168	; 0x490
    4490:	5845202c 	stmdapl	r5, {r2, r3, r5, sp}^
    4494:	5f334954 	svcpl	0x00334954
    4498:	7d515249 	lfmvc	f5, 2, [r1, #-292]	; 0xfffffedc
    449c:	49564e00 	ldmdbmi	r6, {r9, sl, fp, lr}^
    44a0:	43495f43 	movtmi	r5, #40771	; 0x9f43
    44a4:	20315245 	eorscs	r5, r1, r5, asr #4
    44a8:	7628282a 	strtvc	r2, [r8], -sl, lsr #16
    44ac:	74616c6f 	strbtvc	r6, [r1], #-3183	; 0xfffff391
    44b0:	20656c69 	rsbcs	r6, r5, r9, ror #24
    44b4:	746e6975 	strbtvc	r6, [lr], #-2421	; 0xfffff68b
    44b8:	745f3233 	ldrbvc	r3, [pc], #-563	; 44c0 <_Min_Stack_Size+0x40c0>
    44bc:	20292a20 	eorcs	r2, r9, r0, lsr #20
    44c0:	4349564e 	movtmi	r5, #38478	; 0x964e
    44c4:	5341425f 	movtpl	r4, #4703	; 0x125f
    44c8:	202b2045 	eorcs	r2, fp, r5, asr #32
    44cc:	34387830 	ldrtcc	r7, [r8], #-2096	; 0xfffff7d0
    44d0:	5f5f0029 	svcpl	0x005f0029
    44d4:	6b636f6c 	blvs	18e028c <_Min_Stack_Size+0x18dfe8c>
    44d8:	7163615f 	cmnvc	r3, pc, asr r1
    44dc:	65726975 	ldrbvs	r6, [r2, #-2421]!	; 0xfffff68b
    44e0:	6365725f 	cmnvs	r5, #-268435451	; 0xf0000005
    44e4:	69737275 	ldmdbvs	r3!, {r0, r2, r4, r5, r6, r9, ip, sp, lr}^
    44e8:	6c286576 	cfstr32vs	mvfx6, [r8], #-472	; 0xfffffe28
    44ec:	296b636f 	stmdbcs	fp!, {r0, r1, r2, r3, r5, r6, r8, r9, sp, lr}^
    44f0:	76282820 	strtvc	r2, [r8], -r0, lsr #16
    44f4:	2964696f 	stmdbcs	r4!, {r0, r1, r2, r3, r5, r6, r8, fp, sp, lr}^
    44f8:	00293020 	eoreq	r3, r9, r0, lsr #32
    44fc:	65725f5f 	ldrbvs	r5, [r2, #-3935]!	; 0xfffff0a1
    4500:	69727473 	ldmdbvs	r2!, {r0, r1, r4, r5, r6, sl, ip, sp, lr}^
    4504:	72207463 	eorvc	r7, r0, #1660944384	; 0x63000000
    4508:	72747365 	rsbsvc	r7, r4, #-1811939327	; 0x94000001
    450c:	00746369 	rsbseq	r6, r4, r9, ror #6
    4510:	49555f5f 	ldmdbmi	r5, {r0, r1, r2, r3, r4, r6, r8, r9, sl, fp, ip, lr}^
    4514:	465f544e 	ldrbmi	r5, [pc], -lr, asr #8
    4518:	38545341 	ldmdacc	r4, {r0, r6, r8, r9, ip, lr}^
    451c:	5059545f 	subspl	r5, r9, pc, asr r4
    4520:	205f5f45 	subscs	r5, pc, r5, asr #30
    4524:	69736e75 	ldmdbvs	r3!, {r0, r2, r4, r5, r6, r9, sl, fp, sp, lr}^
    4528:	64656e67 	strbtvs	r6, [r5], #-3687	; 0xfffff199
    452c:	746e6920 	strbtvc	r6, [lr], #-2336	; 0xfffff6e0
    4530:	4c5f5f00 	mrrcmi	15, 0, r5, pc, cr0	; <UNPREDICTABLE>
    4534:	4343414c 	movtmi	r4, #12620	; 0x314c
    4538:	495f4d55 	ldmdbmi	pc, {r0, r2, r4, r6, r8, sl, fp, lr}^	; <UNPREDICTABLE>
    453c:	5f544942 	svcpl	0x00544942
    4540:	3233205f 	eorscc	r2, r3, #95	; 0x5f
    4544:	465f5f00 	ldrbmi	r5, [pc], -r0, lsl #30
    4548:	54434152 	strbpl	r4, [r3], #-338	; 0xfffffeae
    454c:	5350455f 	cmppl	r0, #398458880	; 0x17c00000
    4550:	4e4f4c49 	cdpmi	12, 4, cr4, cr15, cr9, {2}
    4554:	30205f5f 	eorcc	r5, r0, pc, asr pc
    4558:	2d503178 	ldfcse	f3, [r0, #-480]	; 0xfffffe20
    455c:	00523531 	subseq	r3, r2, r1, lsr r5
    4560:	65725f5f 	ldrbvs	r5, [r2, #-3935]!	; 0xfffff0a1
    4564:	72697571 	rsbvc	r7, r9, #473956352	; 0x1c400000
    4568:	755f7365 	ldrbvc	r7, [pc, #-869]	; 420b <_Min_Stack_Size+0x3e0b>
    456c:	636f6c6e 	cmnvs	pc, #28160	; 0x6e00
    4570:	2864656b 	stmdacs	r4!, {r0, r1, r3, r5, r6, r8, sl, sp, lr}^
    4574:	292e2e2e 	stmdbcs	lr!, {r1, r2, r3, r5, r9, sl, fp, sp}
    4578:	6c5f5f20 	mrrcvs	15, 2, r5, pc, cr0	; <UNPREDICTABLE>
    457c:	5f6b636f 	svcpl	0x006b636f
    4580:	6f6e6e61 	svcvs	0x006e6e61
    4584:	65746174 	ldrbvs	r6, [r4, #-372]!	; 0xfffffe8c
    4588:	636f6c28 	cmnvs	pc, #40, 24	; 0x2800
    458c:	655f736b 	ldrbvs	r7, [pc, #-875]	; 4229 <_Min_Stack_Size+0x3e29>
    4590:	756c6378 	strbvc	r6, [ip, #-888]!	; 0xfffffc88
    4594:	28646564 	stmdacs	r4!, {r2, r5, r6, r8, sl, sp, lr}^
    4598:	41565f5f 	cmpmi	r6, pc, asr pc
    459c:	4752415f 			; <UNDEFINED> instruction: 0x4752415f
    45a0:	295f5f53 	ldmdbcs	pc, {r0, r1, r4, r6, r8, r9, sl, fp, ip, lr}^	; <UNPREDICTABLE>
    45a4:	4e490029 	cdpmi	0, 4, cr0, cr9, cr9, {1}
    45a8:	435f3854 	cmpmi	pc, #84, 16	; 0x540000
    45ac:	20297828 	eorcs	r7, r9, r8, lsr #16
    45b0:	4e495f5f 	mcrmi	15, 2, r5, cr9, cr15, {2}
    45b4:	435f3854 	cmpmi	pc, #84, 16	; 0x540000
    45b8:	00297828 	eoreq	r7, r9, r8, lsr #16
    45bc:	4e495f5f 	mcrmi	15, 2, r5, cr9, cr15, {2}
    45c0:	5f323354 	svcpl	0x00323354
    45c4:	5f58414d 	svcpl	0x0058414d
    45c8:	7830205f 	ldmdavc	r0!, {r0, r1, r2, r3, r4, r6, sp}
    45cc:	66666637 			; <UNDEFINED> instruction: 0x66666637
    45d0:	66666666 	strbtvs	r6, [r6], -r6, ror #12
    45d4:	5f5f004c 	svcpl	0x005f004c
    45d8:	5f6e696d 	svcpl	0x006e696d
    45dc:	657a6973 	ldrbvs	r6, [sl, #-2419]!	; 0xfffff68d
    45e0:	20297828 	eorcs	r7, r9, r8, lsr #16
    45e4:	74617473 	strbtvc	r7, [r1], #-1139	; 0xfffffb8d
    45e8:	28206369 	stmdacs	r0!, {r0, r3, r5, r6, r8, r9, sp, lr}
    45ec:	5f002978 	svcpl	0x00002978
    45f0:	5858475f 	ldmdapl	r8, {r0, r1, r2, r3, r4, r6, r8, r9, sl, lr}^
    45f4:	5059545f 	subspl	r5, r9, pc, asr r4
    45f8:	464e4945 	strbmi	r4, [lr], -r5, asr #18
    45fc:	51455f4f 	cmppl	r5, pc, asr #30
    4600:	494c4155 	stmdbmi	ip, {r0, r2, r4, r6, r8, lr}^
    4604:	495f5954 	ldmdbmi	pc, {r2, r4, r6, r8, fp, ip, lr}^	; <UNPREDICTABLE>
    4608:	4e494c4e 	cdpmi	12, 4, cr4, cr9, cr14, {2}
    460c:	00302045 	eorseq	r2, r0, r5, asr #32
    4610:	434f4c5f 	movtmi	r4, #64607	; 0xfc5f
    4614:	45525f4b 	ldrbmi	r5, [r2, #-3915]	; 0xfffff0b5
    4618:	53525543 	cmppl	r2, #281018368	; 0x10c00000
    461c:	5f455649 	svcpl	0x00455649
    4620:	5f5f0054 	svcpl	0x005f0054
    4624:	5f544e49 	svcpl	0x00544e49
    4628:	5341454c 	movtpl	r4, #5452	; 0x154c
    462c:	5f343654 	svcpl	0x00343654
    4630:	5f58414d 	svcpl	0x0058414d
    4634:	7830205f 	ldmdavc	r0!, {r0, r1, r2, r3, r4, r6, sp}
    4638:	66666637 			; <UNDEFINED> instruction: 0x66666637
    463c:	66666666 	strbtvs	r6, [r6], -r6, ror #12
    4640:	66666666 	strbtvs	r6, [r6], -r6, ror #12
    4644:	66666666 	strbtvs	r6, [r6], -r6, ror #12
    4648:	5f004c4c 	svcpl	0x00004c4c
    464c:	4350415f 	cmpmi	r0, #-1073741801	; 0xc0000017
    4650:	32335f53 	eorscc	r5, r3, #332	; 0x14c
    4654:	31205f5f 			; <UNDEFINED> instruction: 0x31205f5f
    4658:	735f5f00 	cmpvc	pc, #0, 30
    465c:	61665f66 	cmnvs	r6, r6, ror #30
    4660:	735f656b 	cmpvc	pc, #448790528	; 0x1ac00000
    4664:	72656474 	rsbvc	r6, r5, #116, 8	; 0x74000000
    4668:	535f0072 	cmppl	pc, #114	; 0x72
    466c:	5f5f5359 	svcpl	0x005f5359
    4670:	49445453 	stmdbmi	r4, {r0, r1, r4, r6, sl, ip, lr}^
    4674:	485f544e 	ldmdami	pc, {r1, r2, r3, r6, sl, ip, lr}^	; <UNPREDICTABLE>
    4678:	5f5f0020 	svcpl	0x005f0020
    467c:	6465656e 	strbtvs	r6, [r5], #-1390	; 0xfffffa92
    4680:	4c554e5f 	mrrcmi	14, 5, r4, r5, cr15
    4684:	4e00204c 	cdpmi	0, 0, cr2, cr0, cr12, {2}
    4688:	5f434956 	svcpl	0x00434956
    468c:	33515249 	cmpcc	r1, #-1879048188	; 0x90000004
    4690:	53555f37 	cmppl	r5, #55, 30	; 0xdc
    4694:	31545241 	cmpcc	r4, r1, asr #4
    4698:	7369445f 	cmnvc	r9, #1593835520	; 0x5f000000
    469c:	656c6261 	strbvs	r6, [ip, #-609]!	; 0xfffffd9f
    46a0:	28202928 	stmdacs	r0!, {r3, r5, r8, fp, sp}
    46a4:	4349564e 	movtmi	r5, #38478	; 0x964e
    46a8:	4543495f 	strbmi	r4, [r3, #-2399]	; 0xfffff6a1
    46ac:	7c203152 	stfvcs	f3, [r0], #-328	; 0xfffffeb8
    46b0:	2028203d 	eorcs	r2, r8, sp, lsr r0
    46b4:	3c3c2031 	ldccc	0, cr2, [ip], #-196	; 0xffffff3c
    46b8:	53552820 	cmppl	r5, #32, 16	; 0x200000
    46bc:	31545241 	cmpcc	r4, r1, asr #4
    46c0:	5152495f 	cmppl	r2, pc, asr r9
    46c4:	2932332d 	ldmdbcs	r2!, {r0, r2, r3, r5, r8, r9, ip, sp}
    46c8:	00292920 	eoreq	r2, r9, r0, lsr #18
    46cc:	4645445f 			; <UNDEFINED> instruction: 0x4645445f
    46d0:	544c5541 	strbpl	r5, [ip], #-1345	; 0xfffffabf
    46d4:	554f535f 	strbpl	r5, [pc, #-863]	; 437d <_Min_Stack_Size+0x3f7d>
    46d8:	20454352 	subcs	r4, r5, r2, asr r3
    46dc:	5f5f0031 	svcpl	0x005f0031
    46e0:	33544c46 	cmpcc	r4, #17920	; 0x4600
    46e4:	414d5f32 	cmpmi	sp, r2, lsr pc
    46e8:	445f544e 	ldrbmi	r5, [pc], #-1102	; 46f0 <_Min_Stack_Size+0x42f0>
    46ec:	5f5f4749 	svcpl	0x005f4749
    46f0:	00343220 	eorseq	r3, r4, r0, lsr #4
    46f4:	7272655f 	rsbsvc	r6, r2, #398458880	; 0x17c00000
    46f8:	5f006f6e 	svcpl	0x00006f6e
    46fc:	5245565f 	subpl	r5, r5, #99614720	; 0x5f00000
    4700:	4e4f4953 			; <UNDEFINED> instruction: 0x4e4f4953
    4704:	22205f5f 	eorcs	r5, r0, #380	; 0x17c
    4708:	2e332e37 	mrccs	14, 1, r2, cr3, cr7, {1}
    470c:	30322031 	eorscc	r2, r2, r1, lsr r0
    4710:	36303831 			; <UNDEFINED> instruction: 0x36303831
    4714:	28203232 	stmdacs	r0!, {r1, r4, r5, r9, ip, sp}
    4718:	656c6572 	strbvs	r6, [ip, #-1394]!	; 0xfffffa8e
    471c:	29657361 	stmdbcs	r5!, {r0, r5, r6, r8, r9, ip, sp, lr}^
    4720:	52415b20 	subpl	r5, r1, #32, 22	; 0x8000
    4724:	6d652f4d 	stclvs	15, cr2, [r5, #-308]!	; 0xfffffecc
    4728:	64646562 	strbtvs	r6, [r4], #-1378	; 0xfffffa9e
    472c:	372d6465 	strcc	r6, [sp, -r5, ror #8]!
    4730:	6172622d 	cmnvs	r2, sp, lsr #4
    4734:	2068636e 	rsbcs	r6, r8, lr, ror #6
    4738:	69766572 	ldmdbvs	r6!, {r1, r4, r5, r6, r8, sl, sp, lr}^
    473c:	6e6f6973 			; <UNDEFINED> instruction: 0x6e6f6973
    4740:	31363220 	teqcc	r6, r0, lsr #4
    4744:	5d373039 	ldcpl	0, cr3, [r7, #-228]!	; 0xffffff1c
    4748:	5f5f0022 	svcpl	0x005f0022
    474c:	33544c46 	cmpcc	r4, #17920	; 0x4600
    4750:	45445f32 	strbmi	r5, [r4, #-3890]	; 0xfffff0ce
    4754:	4d524f4e 	ldclmi	15, cr4, [r2, #-312]	; 0xfffffec8
    4758:	4e494d5f 	mcrmi	13, 2, r4, cr9, cr15, {2}
    475c:	31205f5f 			; <UNDEFINED> instruction: 0x31205f5f
    4760:	3130342e 	teqcc	r0, lr, lsr #8
    4764:	34383932 	ldrtcc	r3, [r8], #-2354	; 0xfffff6ce
    4768:	32333436 	eorscc	r3, r3, #905969664	; 0x36000000
    476c:	37313834 			; <UNDEFINED> instruction: 0x37313834
    4770:	342d6531 	strtcc	r6, [sp], #-1329	; 0xfffffacf
    4774:	32334635 	eorscc	r4, r3, #55574528	; 0x3500000
    4778:	735f5f00 	cmpvc	pc, #0, 30
    477c:	69746365 	ldmdbvs	r4!, {r0, r2, r5, r6, r8, r9, sp, lr}^
    4780:	78286e6f 	stmdavc	r8!, {r0, r1, r2, r3, r5, r6, r9, sl, fp, sp, lr}
    4784:	5f5f2029 	svcpl	0x005f2029
    4788:	72747461 	rsbsvc	r7, r4, #1627389952	; 0x61000000
    478c:	74756269 	ldrbtvc	r6, [r5], #-617	; 0xfffffd97
    4790:	285f5f65 	ldmdacs	pc, {r0, r2, r5, r6, r8, r9, sl, fp, ip, lr}^	; <UNPREDICTABLE>
    4794:	735f5f28 	cmpvc	pc, #40, 30	; 0xa0
    4798:	69746365 	ldmdbvs	r4!, {r0, r2, r5, r6, r8, r9, sp, lr}^
    479c:	5f5f6e6f 	svcpl	0x005f6e6f
    47a0:	29297828 	stmdbcs	r9!, {r3, r5, fp, ip, sp, lr}
    47a4:	666f0029 	strbtvs	r0, [pc], -r9, lsr #32
    47a8:	74657366 	strbtvc	r7, [r5], #-870	; 0xfffffc9a
    47ac:	5428666f 	strtpl	r6, [r8], #-1647	; 0xfffff991
    47b0:	2c455059 	mcrrcs	0, 5, r5, r5, cr9
    47b4:	424d454d 	submi	r4, sp, #322961408	; 0x13400000
    47b8:	20295245 	eorcs	r5, r9, r5, asr #4
    47bc:	75625f5f 	strbvc	r5, [r2, #-3935]!	; 0xfffff0a1
    47c0:	69746c69 	ldmdbvs	r4!, {r0, r3, r5, r6, sl, fp, sp, lr}^
    47c4:	666f5f6e 	strbtvs	r5, [pc], -lr, ror #30
    47c8:	74657366 	strbtvc	r7, [r5], #-870	; 0xfffffc9a
    47cc:	2820666f 	stmdacs	r0!, {r0, r1, r2, r3, r5, r6, r9, sl, sp, lr}
    47d0:	45505954 	ldrbmi	r5, [r0, #-2388]	; 0xfffff6ac
    47d4:	454d202c 	strbmi	r2, [sp, #-44]	; 0xffffffd4
    47d8:	5245424d 	subpl	r4, r5, #-805306364	; 0xd0000004
    47dc:	5f5f0029 	svcpl	0x005f0029
    47e0:	544e4955 	strbpl	r4, [lr], #-2389	; 0xfffff6ab
    47e4:	435f3436 	cmpmi	pc, #905969664	; 0x36000000
    47e8:	20296328 	eorcs	r6, r9, r8, lsr #6
    47ec:	23232063 			; <UNDEFINED> instruction: 0x23232063
    47f0:	4c4c5520 	cfstr64mi	mvdx5, [ip], {32}
    47f4:	555f5f00 	ldrbpl	r5, [pc, #-3840]	; 38fc <_Min_Stack_Size+0x34fc>
    47f8:	5f544e49 	svcpl	0x00544e49
    47fc:	5341454c 	movtpl	r4, #5452	; 0x154c
    4800:	5f343654 	svcpl	0x00343654
    4804:	45505954 	ldrbmi	r5, [r0, #-2388]	; 0xfffff6ac
    4808:	6c205f5f 	stcvs	15, cr5, [r0], #-380	; 0xfffffe84
    480c:	20676e6f 	rsbcs	r6, r7, pc, ror #28
    4810:	676e6f6c 	strbvs	r6, [lr, -ip, ror #30]!
    4814:	736e7520 	cmnvc	lr, #32, 10	; 0x8000000
    4818:	656e6769 	strbvs	r6, [lr, #-1897]!	; 0xfffff897
    481c:	6e692064 	cdpvs	0, 6, cr2, cr9, cr4, {3}
    4820:	43520074 	cmpmi	r2, #116	; 0x74
    4824:	50475f43 	subpl	r5, r7, r3, asr #30
    4828:	5f434f49 	svcpl	0x00434f49
    482c:	5f4b4c43 	svcpl	0x004b4c43
    4830:	29284e45 	stmdbcs	r8!, {r0, r2, r6, r9, sl, fp, lr}
    4834:	43522820 	cmpmi	r2, #32, 16	; 0x200000
    4838:	413e2d43 	teqmi	lr, r3, asr #26
    483c:	45324250 	ldrmi	r4, [r2, #-592]!	; 0xfffffdb0
    4840:	7c20524e 	sfmvc	f5, 4, [r0], #-312	; 0xfffffec8
    4844:	3128203d 			; <UNDEFINED> instruction: 0x3128203d
    4848:	29343c3c 	ldmdbcs	r4!, {r2, r3, r4, r5, sl, fp, ip, sp}
    484c:	5f5f0029 	svcpl	0x005f0029
    4850:	4c42444c 	cfstrdmi	mvd4, [r2], {76}	; 0x4c
    4854:	5350455f 	cmppl	r0, #398458880	; 0x17c00000
    4858:	4e4f4c49 	cdpmi	12, 4, cr4, cr15, cr9, {2}
    485c:	32205f5f 	eorcc	r5, r0, #380	; 0x17c
    4860:	3032322e 	eorscc	r3, r2, lr, lsr #4
    4864:	30363434 	eorscc	r3, r6, r4, lsr r4
    4868:	35323934 	ldrcc	r3, [r2, #-2356]!	; 0xfffff6cc
    486c:	33313330 	teqcc	r1, #48, 6	; 0xc0000000
    4870:	312d6531 			; <UNDEFINED> instruction: 0x312d6531
    4874:	45004c36 	strmi	r4, [r0, #-3126]	; 0xfffff3ca
    4878:	5f495458 	svcpl	0x00495458
    487c:	454e494c 	strbmi	r4, [lr, #-2380]	; 0xfffff6b4
    4880:	43505f36 	cmpmi	r0, #54, 30	; 0xd8
    4884:	45282036 	strmi	r2, [r8, #-54]!	; 0xffffffca
    4888:	5f495458 	svcpl	0x00495458
    488c:	4f495047 	svcmi	0x00495047
    4890:	70614d5f 	rsbvc	r4, r1, pc, asr sp
    4894:	676e6970 			; <UNDEFINED> instruction: 0x676e6970
    4898:	7b29745f 	blvc	a61a1c <_Min_Stack_Size+0xa6161c>
    489c:	49545845 	ldmdbmi	r4, {r0, r2, r6, fp, ip, lr}^
    48a0:	47202c36 			; <UNDEFINED> instruction: 0x47202c36
    48a4:	434f4950 	movtmi	r4, #63824	; 0xf950
    48a8:	5047202c 	subpl	r2, r7, ip, lsr #32
    48ac:	505f4f49 	subspl	r4, pc, r9, asr #30
    48b0:	365f4e49 	ldrbcc	r4, [pc], -r9, asr #28
    48b4:	5845202c 	stmdapl	r5, {r2, r3, r5, sp}^
    48b8:	5f364954 	svcpl	0x00364954
    48bc:	7d515249 	lfmvc	f5, 2, [r1, #-292]	; 0xfffffedc
    48c0:	705f5f00 	subsvc	r5, pc, r0, lsl #30
    48c4:	32657275 	rsbcc	r7, r5, #1342177287	; 0x50000007
    48c8:	615f5f20 	cmpvs	pc, r0, lsr #30
    48cc:	69727474 	ldmdbvs	r2!, {r2, r4, r5, r6, sl, ip, sp, lr}^
    48d0:	65747562 	ldrbvs	r7, [r4, #-1378]!	; 0xfffffa9e
    48d4:	28285f5f 	stmdacs	r8!, {r0, r1, r2, r3, r4, r6, r8, r9, sl, fp, ip, lr}
    48d8:	6f635f5f 	svcvs	0x00635f5f
    48dc:	5f74736e 	svcpl	0x0074736e
    48e0:	0029295f 	eoreq	r2, r9, pc, asr r9
    48e4:	43475f5f 	movtmi	r5, #32607	; 0x7f5f
    48e8:	54415f43 	strbpl	r5, [r1], #-3907	; 0xfffff0bd
    48ec:	43494d4f 	movtmi	r4, #40271	; 0x9d4f
    48f0:	4148435f 	cmpmi	r8, pc, asr r3
    48f4:	5f363152 	svcpl	0x00363152
    48f8:	4f4c5f54 	svcmi	0x004c5f54
    48fc:	465f4b43 	ldrbmi	r4, [pc], -r3, asr #22
    4900:	20454552 	subcs	r4, r5, r2, asr r5
    4904:	5f5f0032 	svcpl	0x005f0032
    4908:	4c4c554e 	cfstr64mi	mvdx5, [ip], {78}	; 0x4e
    490c:	4c494241 	sfmmi	f4, 2, [r9], {65}	; 0x41
    4910:	5f595449 	svcpl	0x00595449
    4914:	47415250 	smlsldmi	r5, r1, r0, r2
    4918:	505f414d 	subspl	r4, pc, sp, asr #2
    491c:	20485355 	subcs	r5, r8, r5, asr r3
    4920:	69735f00 	ldmdbvs	r3!, {r8, r9, sl, fp, ip, lr}^
    4924:	6c616e67 	stclvs	14, cr6, [r1], #-412	; 0xfffffe64
    4928:	6675625f 			; <UNDEFINED> instruction: 0x6675625f
    492c:	4b434c00 	blmi	10d7934 <_Min_Stack_Size+0x10d7534>
    4930:	5f5f0052 	svcpl	0x005f0052
    4934:	5f4c4244 	svcpl	0x004c4244
    4938:	5f58414d 	svcpl	0x0058414d
    493c:	5f505845 	svcpl	0x00505845
    4940:	3031205f 	eorscc	r2, r1, pc, asr r0
    4944:	5f003432 	svcpl	0x00003432
    4948:	5341465f 	movtpl	r4, #5727	; 0x165f
    494c:	20343654 	eorscs	r3, r4, r4, asr r6
    4950:	226c6c22 	rsbcs	r6, ip, #8704	; 0x2200
    4954:	415f5f00 	cmpmi	pc, r0, lsl #30
    4958:	494d4f54 	stmdbmi	sp, {r2, r4, r6, r8, r9, sl, fp, lr}^
    495c:	45525f43 	ldrbmi	r5, [r2, #-3907]	; 0xfffff0bd
    4960:	5341454c 	movtpl	r4, #5452	; 0x154c
    4964:	00332045 	eorseq	r2, r3, r5, asr #32
    4968:	69736e75 	ldmdbvs	r3!, {r0, r2, r4, r5, r6, r9, sl, fp, sp, lr}^
    496c:	64656e67 	strbtvs	r6, [r5], #-3687	; 0xfffff199
    4970:	00302b20 	eorseq	r2, r0, r0, lsr #22
    4974:	4c465f5f 	mcrrmi	15, 5, r5, r6, cr15
    4978:	58323354 	ldmdapl	r2!, {r2, r4, r6, r8, r9, ip, sp}
    497c:	5341485f 	movtpl	r4, #6239	; 0x185f
    4980:	4e45445f 	mcrmi	4, 2, r4, cr5, cr15, {2}
    4984:	5f4d524f 	svcpl	0x004d524f
    4988:	0031205f 	eorseq	r2, r1, pc, asr r0
    498c:	4c465f5f 	mcrrmi	15, 5, r5, r6, cr15
    4990:	414d5f54 	cmpmi	sp, r4, asr pc
    4994:	445f544e 	ldrbmi	r5, [pc], #-1102	; 499c <_Min_Stack_Size+0x459c>
    4998:	5f5f4749 	svcpl	0x005f4749
    499c:	00343220 	eorseq	r3, r4, r0, lsr #4
    49a0:	52415355 	subpl	r5, r1, #1409286145	; 0x54000001
    49a4:	495f3154 	ldmdbmi	pc, {r2, r4, r6, r8, ip, sp}^	; <UNPREDICTABLE>
    49a8:	33205152 			; <UNDEFINED> instruction: 0x33205152
    49ac:	525f0037 	subspl	r0, pc, #55	; 0x37
    49b0:	34444e41 	strbcc	r4, [r4], #-3649	; 0xfffff1bf
    49b4:	45535f38 	ldrbmi	r5, [r3, #-3896]	; 0xfffff0c8
    49b8:	315f4445 	cmpcc	pc, r5, asr #8
    49bc:	78302820 	ldmdavc	r0!, {r5, fp, sp}
    49c0:	64636261 	strbtvs	r6, [r3], #-609	; 0xfffffd9f
    49c4:	5f5f0029 	svcpl	0x005f0029
    49c8:	5f514455 	svcpl	0x00514455
    49cc:	54494249 	strbpl	r4, [r9], #-585	; 0xfffffdb7
    49d0:	30205f5f 	eorcc	r5, r0, pc, asr pc
    49d4:	4c475f00 	mcrrmi	15, 0, r5, r7, cr0
    49d8:	4c41424f 	sfmmi	f4, 2, [r1], {79}	; 0x4f
    49dc:	4554415f 	ldrbmi	r4, [r4, #-351]	; 0xfffffea1
    49e0:	20544958 	subscs	r4, r4, r8, asr r9
    49e4:	6f6c675f 	svcvs	0x006c675f
    49e8:	5f6c6162 	svcpl	0x006c6162
    49ec:	78657461 	stmdavc	r5!, {r0, r5, r6, sl, ip, sp, lr}^
    49f0:	55007469 	strpl	r7, [r0, #-1129]	; 0xfffffb97
    49f4:	4d544e49 	ldclmi	14, cr4, [r4, #-292]	; 0xfffffedc
    49f8:	4d5f5841 	ldclmi	8, cr5, [pc, #-260]	; 48fc <_Min_Stack_Size+0x44fc>
    49fc:	28205841 	stmdacs	r0!, {r0, r6, fp, ip, lr}
    4a00:	49555f5f 	ldmdbmi	r5, {r0, r1, r2, r3, r4, r6, r8, r9, sl, fp, ip, lr}^
    4a04:	414d544e 	cmpmi	sp, lr, asr #8
    4a08:	414d5f58 	cmpmi	sp, r8, asr pc
    4a0c:	295f5f58 	ldmdbcs	pc, {r3, r4, r6, r8, r9, sl, fp, ip, lr}^	; <UNPREDICTABLE>
    4a10:	54584500 	ldrbpl	r4, [r8], #-1280	; 0xfffffb00
    4a14:	494c5f49 	stmdbmi	ip, {r0, r3, r6, r8, r9, sl, fp, ip, lr}^
    4a18:	5f33454e 	svcpl	0x0033454e
    4a1c:	20334250 	eorscs	r4, r3, r0, asr r2
    4a20:	54584528 	ldrbpl	r4, [r8], #-1320	; 0xfffffad8
    4a24:	50475f49 	subpl	r5, r7, r9, asr #30
    4a28:	4d5f4f49 	ldclmi	15, cr4, [pc, #-292]	; 490c <_Min_Stack_Size+0x450c>
    4a2c:	69707061 	ldmdbvs	r0!, {r0, r5, r6, ip, sp, lr}^
    4a30:	745f676e 	ldrbvc	r6, [pc], #-1902	; 4a38 <_Min_Stack_Size+0x4638>
    4a34:	58457b29 	stmdapl	r5, {r0, r3, r5, r8, r9, fp, ip, sp, lr}^
    4a38:	2c334954 			; <UNDEFINED> instruction: 0x2c334954
    4a3c:	49504720 	ldmdbmi	r0, {r5, r8, r9, sl, lr}^
    4a40:	202c424f 	eorcs	r4, ip, pc, asr #4
    4a44:	4f495047 	svcmi	0x00495047
    4a48:	4e49505f 	mcrmi	0, 2, r5, cr9, cr15, {2}
    4a4c:	202c335f 	eorcs	r3, ip, pc, asr r3
    4a50:	49545845 	ldmdbmi	r4, {r0, r2, r6, fp, ip, lr}^
    4a54:	52495f33 	subpl	r5, r9, #51, 30	; 0xcc
    4a58:	5f007d51 	svcpl	0x00007d51
    4a5c:	434f4c5f 	movtmi	r4, #64607	; 0xfc5f
    4a60:	4e495f4b 	cdpmi	15, 4, cr5, cr9, cr11, {2}
    4a64:	525f5449 	subspl	r5, pc, #1224736768	; 0x49000000
    4a68:	52554345 	subspl	r4, r5, #335544321	; 0x14000001
    4a6c:	45564953 	ldrbmi	r4, [r6, #-2387]	; 0xfffff6ad
    4a70:	616c6328 	cmnvs	ip, r8, lsr #6
    4a74:	6c2c7373 	stcvs	3, cr7, [ip], #-460	; 0xfffffe34
    4a78:	296b636f 	stmdbcs	fp!, {r0, r1, r2, r3, r5, r6, r8, r9, sp, lr}^
    4a7c:	61747320 	cmnvs	r4, r0, lsr #6
    4a80:	20636974 	rsbcs	r6, r3, r4, ror r9
    4a84:	20746e69 	rsbscs	r6, r4, r9, ror #28
    4a88:	6b636f6c 	blvs	18e0840 <_Min_Stack_Size+0x18e0440>
    4a8c:	30203d20 	eorcc	r3, r0, r0, lsr #26
    4a90:	564e003b 			; <UNDEFINED> instruction: 0x564e003b
    4a94:	425f4349 	subsmi	r4, pc, #603979777	; 0x24000001
    4a98:	20455341 	subcs	r5, r5, r1, asr #6
    4a9c:	30457830 	subcc	r7, r5, r0, lsr r8
    4aa0:	31453030 	cmpcc	r5, r0, lsr r0
    4aa4:	4c553030 	mrrcmi	0, 3, r3, r5, cr0
    4aa8:	435f5f00 	cmpmi	pc, #0, 30
    4aac:	55535f43 	ldrbpl	r5, [r3, #-3907]	; 0xfffff0bd
    4ab0:	524f5050 	subpl	r5, pc, #80	; 0x50
    4ab4:	5f5f5354 	svcpl	0x005f5354
    4ab8:	4e55465f 	mrcmi	6, 2, r4, cr5, cr15, {2}
    4abc:	205f5f43 	subscs	r5, pc, r3, asr #30
    4ac0:	425f0031 	subsmi	r0, pc, #49	; 0x31
    4ac4:	6e696769 	cdpvs	7, 6, cr6, cr9, cr9, {3}
    4ac8:	525f0074 	subspl	r0, pc, #116	; 0x74
    4acc:	544e4545 	strbpl	r4, [lr], #-1349	; 0xfffffabb
    4ad0:	4353415f 	cmpmi	r3, #-1073741801	; 0xc0000017
    4ad4:	454d4954 	strbmi	r4, [sp, #-2388]	; 0xfffff6ac
    4ad8:	4655425f 			; <UNDEFINED> instruction: 0x4655425f
    4adc:	72747028 	rsbsvc	r7, r4, #40	; 0x28
    4ae0:	28282029 	stmdacs	r8!, {r0, r3, r5, sp}
    4ae4:	29727470 	ldmdbcs	r2!, {r4, r5, r6, sl, ip, sp, lr}^
    4ae8:	615f3e2d 	cmpvs	pc, sp, lsr #28
    4aec:	69746373 	ldmdbvs	r4!, {r0, r1, r4, r5, r6, r8, r9, sp, lr}^
    4af0:	625f656d 	subsvs	r6, pc, #457179136	; 0x1b400000
    4af4:	00296675 	eoreq	r6, r9, r5, ror r6
    4af8:	49465f5f 	stmdbmi	r6, {r0, r1, r2, r3, r4, r6, r8, r9, sl, fp, ip, lr}^
    4afc:	4554494e 	ldrbmi	r4, [r4, #-2382]	; 0xfffff6b2
    4b00:	54414d5f 	strbpl	r4, [r1], #-3423	; 0xfffff2a1
    4b04:	4e4f5f48 	cdpmi	15, 4, cr5, cr15, cr8, {2}
    4b08:	5f5f594c 	svcpl	0x005f594c
    4b0c:	5f003020 	svcpl	0x00003020
    4b10:	54505f54 	ldrbpl	r5, [r0], #-3924	; 0xfffff0ac
    4b14:	46494452 			; <UNDEFINED> instruction: 0x46494452
    4b18:	00205f46 	eoreq	r5, r0, r6, asr #30
    4b1c:	444c5f5f 	strbmi	r5, [ip], #-3935	; 0xfffff0a1
    4b20:	445f4c42 	ldrbmi	r4, [pc], #-3138	; 4b28 <_Min_Stack_Size+0x4728>
    4b24:	524f4e45 	subpl	r4, pc, #1104	; 0x450
    4b28:	494d5f4d 	stmdbmi	sp, {r0, r2, r3, r6, r8, r9, sl, fp, ip, lr}^
    4b2c:	205f5f4e 	subscs	r5, pc, lr, asr #30
    4b30:	34392e34 	ldrtcc	r2, [r9], #-3636	; 0xfffff1cc
    4b34:	36353630 			; <UNDEFINED> instruction: 0x36353630
    4b38:	34383534 	ldrtcc	r3, [r8], #-1332	; 0xfffffacc
    4b3c:	36343231 			; <UNDEFINED> instruction: 0x36343231
    4b40:	2d653435 	cfstrdcs	mvd3, [r5, #-212]!	; 0xffffff2c
    4b44:	4c343233 	lfmmi	f3, 4, [r4], #-204	; 0xffffff34
    4b48:	54584500 	ldrbpl	r4, [r8], #-1280	; 0xfffffb00
    4b4c:	495f3449 	ldmdbmi	pc, {r0, r3, r6, sl, ip, sp}^	; <UNPREDICTABLE>
    4b50:	31205152 			; <UNDEFINED> instruction: 0x31205152
    4b54:	5f5f0030 	svcpl	0x005f0030
    4b58:	36544e49 	ldrbcc	r4, [r4], -r9, asr #28
    4b5c:	414d5f34 	cmpmi	sp, r4, lsr pc
    4b60:	205f5f58 	subscs	r5, pc, r8, asr pc	; <UNPREDICTABLE>
    4b64:	66377830 			; <UNDEFINED> instruction: 0x66377830
    4b68:	66666666 	strbtvs	r6, [r6], -r6, ror #12
    4b6c:	66666666 	strbtvs	r6, [r6], -r6, ror #12
    4b70:	66666666 	strbtvs	r6, [r6], -r6, ror #12
    4b74:	4c4c6666 	mcrrmi	6, 6, r6, ip, cr6
    4b78:	415f5f00 	cmpmi	pc, r0, lsl #30
    4b7c:	465f4d52 			; <UNDEFINED> instruction: 0x465f4d52
    4b80:	55544145 	ldrbpl	r4, [r4, #-325]	; 0xfffffebb
    4b84:	535f4552 	cmppl	pc, #343932928	; 0x14800000
    4b88:	31205441 			; <UNDEFINED> instruction: 0x31205441
    4b8c:	45525f00 	ldrbmi	r5, [r2, #-3840]	; 0xfffff100
    4b90:	5f544e45 	svcpl	0x00544e45
    4b94:	43454843 	movtmi	r4, #22595	; 0x5843
    4b98:	4d455f4b 	stclmi	15, cr5, [r5, #-300]	; 0xfffffed4
    4b9c:	45475245 	strbmi	r5, [r7, #-581]	; 0xfffffdbb
    4ba0:	2859434e 	ldmdacs	r9, {r1, r2, r3, r6, r8, r9, lr}^
    4ba4:	29726176 	ldmdbcs	r2!, {r1, r2, r4, r5, r6, r8, sp, lr}^
    4ba8:	45525f20 	ldrbmi	r5, [r2, #-3872]	; 0xfffff0e0
    4bac:	5f544e45 	svcpl	0x00544e45
    4bb0:	43454843 	movtmi	r4, #22595	; 0x5843
    4bb4:	6176284b 	cmnvs	r6, fp, asr #16
    4bb8:	5f202c72 	svcpl	0x00202c72
    4bbc:	72656d65 	rsbvc	r6, r5, #6464	; 0x1940
    4bc0:	636e6567 	cmnvs	lr, #432013312	; 0x19c00000
    4bc4:	63202c79 			; <UNDEFINED> instruction: 0x63202c79
    4bc8:	20726168 	rsbscs	r6, r2, r8, ror #2
    4bcc:	5f202c2a 	svcpl	0x00202c2a
    4bd0:	4e454552 	mcrmi	5, 2, r4, cr5, cr2, {2}
    4bd4:	4d455f54 	stclmi	15, cr5, [r5, #-336]	; 0xfffffeb0
    4bd8:	45475245 	strbmi	r5, [r7, #-581]	; 0xfffffdbb
    4bdc:	5f59434e 	svcpl	0x0059434e
    4be0:	455a4953 	ldrbmi	r4, [sl, #-2387]	; 0xfffff6ad
    4be4:	0029202c 	eoreq	r2, r9, ip, lsr #32
    4be8:	4c555f5f 	mrrcmi	15, 5, r5, r5, cr15	; <UNPREDICTABLE>
    4bec:	4152464c 	cmpmi	r2, ip, asr #12
    4bf0:	495f5443 	ldmdbmi	pc, {r0, r1, r6, sl, ip, lr}^	; <UNPREDICTABLE>
    4bf4:	5f544942 	svcpl	0x00544942
    4bf8:	0030205f 	eorseq	r2, r0, pc, asr r0
    4bfc:	49545845 	ldmdbmi	r4, {r0, r2, r6, fp, ip, lr}^
    4c00:	4e494c5f 	mcrmi	12, 2, r4, cr9, cr15, {2}
    4c04:	5f343145 	svcpl	0x00343145
    4c08:	34314350 	ldrtcc	r4, [r1], #-848	; 0xfffffcb0
    4c0c:	58452820 	stmdapl	r5, {r5, fp, sp}^
    4c10:	475f4954 			; <UNDEFINED> instruction: 0x475f4954
    4c14:	5f4f4950 	svcpl	0x004f4950
    4c18:	7070614d 	rsbsvc	r6, r0, sp, asr #2
    4c1c:	5f676e69 	svcpl	0x00676e69
    4c20:	457b2974 	ldrbmi	r2, [fp, #-2420]!	; 0xfffff68c
    4c24:	31495458 	cmpcc	r9, r8, asr r4
    4c28:	47202c34 			; <UNDEFINED> instruction: 0x47202c34
    4c2c:	434f4950 	movtmi	r4, #63824	; 0xf950
    4c30:	5047202c 	subpl	r2, r7, ip, lsr #32
    4c34:	505f4f49 	subspl	r4, pc, r9, asr #30
    4c38:	315f4e49 	cmpcc	pc, r9, asr #28
    4c3c:	45202c34 	strmi	r2, [r0, #-3124]!	; 0xfffff3cc
    4c40:	31495458 	cmpcc	r9, r8, asr r4
    4c44:	52495f34 	subpl	r5, r9, #52, 30	; 0xd0
    4c48:	5f007d51 	svcpl	0x00007d51
    4c4c:	49534e41 	ldmdbmi	r3, {r0, r6, r9, sl, fp, lr}^
    4c50:	4454535f 	ldrbmi	r5, [r4], #-863	; 0xfffffca1
    4c54:	5f464544 	svcpl	0x00464544
    4c58:	49002048 	stmdbmi	r0, {r3, r6, sp}
    4c5c:	414d544e 	cmpmi	sp, lr, asr #8
    4c60:	414d5f58 	cmpmi	sp, r8, asr pc
    4c64:	5f282058 	svcpl	0x00282058
    4c68:	544e495f 	strbpl	r4, [lr], #-2399	; 0xfffff6a1
    4c6c:	5f58414d 	svcpl	0x0058414d
    4c70:	5f58414d 	svcpl	0x0058414d
    4c74:	5f00295f 	svcpl	0x0000295f
    4c78:	656c635f 	strbvs	r6, [ip, #-863]!	; 0xfffffca1
    4c7c:	70756e61 	rsbsvc	r6, r5, r1, ror #28
    4c80:	43435200 	movtmi	r5, #12800	; 0x3200
    4c84:	4153555f 	cmpmi	r3, pc, asr r5
    4c88:	5f325452 	svcpl	0x00325452
    4c8c:	5f4b4c43 	svcpl	0x004b4c43
    4c90:	65736552 	ldrbvs	r6, [r3, #-1362]!	; 0xfffffaae
    4c94:	20292874 	eorcs	r2, r9, r4, ror r8
    4c98:	43435228 	movtmi	r5, #12840	; 0x3228
    4c9c:	50413e2d 	subpl	r3, r1, sp, lsr #28
    4ca0:	53523142 	cmppl	r2, #-2147483632	; 0x80000010
    4ca4:	7c205254 	sfmvc	f5, 4, [r0], #-336	; 0xfffffeb0
    4ca8:	3128203d 			; <UNDEFINED> instruction: 0x3128203d
    4cac:	37313c3c 			; <UNDEFINED> instruction: 0x37313c3c
    4cb0:	5f002929 	svcpl	0x00002929
    4cb4:	4e454552 	mcrmi	5, 2, r4, cr5, cr2, {2}
    4cb8:	43575f54 	cmpmi	r7, #84, 30	; 0x150
    4cbc:	4d4f5452 	cfstrdmi	mvd5, [pc, #-328]	; 4b7c <_Min_Stack_Size+0x477c>
    4cc0:	54535f42 	ldrbpl	r5, [r3], #-3906	; 0xfffff0be
    4cc4:	28455441 	stmdacs	r5, {r0, r6, sl, ip, lr}^
    4cc8:	29727470 	ldmdbcs	r2!, {r4, r5, r6, sl, ip, sp, lr}^
    4ccc:	70282820 	eorvc	r2, r8, r0, lsr #16
    4cd0:	2d297274 	sfmcs	f7, 4, [r9, #-464]!	; 0xfffffe30
    4cd4:	696d5f3e 	stmdbvs	sp!, {r1, r2, r3, r4, r5, r8, r9, sl, fp, ip, lr}^
    4cd8:	3e2d6373 	mcrcc	3, 1, r6, cr13, cr3, {3}
    4cdc:	7263775f 	rsbvc	r7, r3, #24903680	; 0x17c0000
    4ce0:	626d6f74 	rsbvs	r6, sp, #116, 30	; 0x1d0
    4ce4:	6174735f 	cmnvs	r4, pc, asr r3
    4ce8:	00296574 	eoreq	r6, r9, r4, ror r5
    4cec:	6c615f5f 	stclvs	15, cr5, [r1], #-380	; 0xfffffe84
    4cf0:	5f636f6c 	svcpl	0x00636f6c
    4cf4:	657a6973 	ldrbvs	r6, [sl, #-2419]!	; 0xfffff68d
    4cf8:	20297828 	eorcs	r7, r9, r8, lsr #16
    4cfc:	74615f5f 	strbtvc	r5, [r1], #-3935	; 0xfffff0a1
    4d00:	62697274 	rsbvs	r7, r9, #116, 4	; 0x40000007
    4d04:	5f657475 	svcpl	0x00657475
    4d08:	5f28285f 	svcpl	0x0028285f
    4d0c:	6c6c615f 	stfvse	f6, [ip], #-380	; 0xfffffe84
    4d10:	735f636f 	cmpvc	pc, #-1140850687	; 0xbc000001
    4d14:	5f657a69 	svcpl	0x00657a69
    4d18:	2978285f 	ldmdbcs	r8!, {r0, r1, r2, r3, r4, r6, fp, sp}^
    4d1c:	5f002929 	svcpl	0x00002929
    4d20:	4e4f4c5f 	mcrmi	12, 2, r4, cr15, cr15, {2}
    4d24:	49575f47 	ldmdbmi	r7, {r0, r1, r2, r6, r8, r9, sl, fp, ip, lr}^
    4d28:	5f485444 	svcpl	0x00485444
    4d2c:	3233205f 	eorscc	r2, r3, #95	; 0x5f
    4d30:	54584500 	ldrbpl	r4, [r8], #-1280	; 0xfffffb00
    4d34:	494c5f49 	stmdbmi	ip, {r0, r3, r6, r8, r9, sl, fp, ip, lr}^
    4d38:	3131454e 	teqcc	r1, lr, asr #10
    4d3c:	3142505f 	qdaddcc	r5, pc, r2	; <UNPREDICTABLE>
    4d40:	45282031 	strmi	r2, [r8, #-49]!	; 0xffffffcf
    4d44:	5f495458 	svcpl	0x00495458
    4d48:	4f495047 	svcmi	0x00495047
    4d4c:	70614d5f 	rsbvc	r4, r1, pc, asr sp
    4d50:	676e6970 			; <UNDEFINED> instruction: 0x676e6970
    4d54:	7b29745f 	blvc	a61ed8 <_Min_Stack_Size+0xa61ad8>
    4d58:	49545845 	ldmdbmi	r4, {r0, r2, r6, fp, ip, lr}^
    4d5c:	202c3131 	eorcs	r3, ip, r1, lsr r1
    4d60:	4f495047 	svcmi	0x00495047
    4d64:	47202c42 	strmi	r2, [r0, -r2, asr #24]!
    4d68:	5f4f4950 	svcpl	0x004f4950
    4d6c:	5f4e4950 	svcpl	0x004e4950
    4d70:	202c3131 	eorcs	r3, ip, r1, lsr r1
    4d74:	49545845 	ldmdbmi	r4, {r0, r2, r6, fp, ip, lr}^
    4d78:	495f3131 	ldmdbmi	pc, {r0, r4, r5, r8, ip, sp}^	; <UNPREDICTABLE>
    4d7c:	007d5152 	rsbseq	r5, sp, r2, asr r1
    4d80:	4c465f5f 	mcrrmi	15, 5, r5, r6, cr15
    4d84:	414d5f54 	cmpmi	sp, r4, asr pc
    4d88:	205f5f58 	subscs	r5, pc, r8, asr pc	; <UNPREDICTABLE>
    4d8c:	30342e33 	eorscc	r2, r4, r3, lsr lr
    4d90:	33323832 	teqcc	r2, #3276800	; 0x320000
    4d94:	33363634 	teqcc	r6, #52, 12	; 0x3400000
    4d98:	38323538 	ldmdacc	r2!, {r3, r4, r5, r8, sl, ip, sp}
    4d9c:	2b653638 	blcs	1952684 <_Min_Stack_Size+0x1952284>
    4da0:	00463833 	subeq	r3, r6, r3, lsr r8
    4da4:	41555f5f 	cmpmi	r5, pc, asr pc
    4da8:	4d554343 	ldclmi	3, cr4, [r5, #-268]	; 0xfffffef4
    4dac:	4942465f 	stmdbmi	r2, {r0, r1, r2, r3, r4, r6, r9, sl, lr}^
    4db0:	205f5f54 	subscs	r5, pc, r4, asr pc	; <UNPREDICTABLE>
    4db4:	5f003631 	svcpl	0x00003631
    4db8:	7261775f 	rsbvc	r7, r1, #24903680	; 0x17c0000
    4dbc:	65725f6e 	ldrbvs	r5, [r2, #-3950]!	; 0xfffff092
    4dc0:	65726566 	ldrbvs	r6, [r2, #-1382]!	; 0xfffffa9a
    4dc4:	7365636e 	cmnvc	r5, #-1207959551	; 0xb8000001
    4dc8:	6d797328 	ldclvs	3, cr7, [r9, #-160]!	; 0xffffff60
    4dcc:	67736d2c 	ldrbvs	r6, [r3, -ip, lsr #26]!
    4dd0:	5f5f2029 	svcpl	0x005f2029
    4dd4:	5f6d7361 	svcpl	0x006d7361
    4dd8:	2e22285f 	mcrcs	8, 1, r2, cr2, cr15, {2}
    4ddc:	74636573 	strbtvc	r6, [r3], #-1395	; 0xfffffa8d
    4de0:	206e6f69 	rsbcs	r6, lr, r9, ror #30
    4de4:	756e672e 	strbvc	r6, [lr, #-1838]!	; 0xfffff8d2
    4de8:	7261772e 	rsbvc	r7, r1, #12058624	; 0xb80000
    4dec:	676e696e 	strbvs	r6, [lr, -lr, ror #18]!
    4df0:	2320222e 			; <UNDEFINED> instruction: 0x2320222e
    4df4:	296d7973 	stmdbcs	sp!, {r0, r1, r4, r5, r6, r8, fp, ip, sp, lr}^
    4df8:	5f5f203b 	svcpl	0x005f203b
    4dfc:	5f6d7361 	svcpl	0x006d7361
    4e00:	2e22285f 	mcrcs	8, 1, r2, cr2, cr15, {2}
    4e04:	69637361 	stmdbvs	r3!, {r0, r5, r6, r8, r9, ip, sp, lr}^
    4e08:	225c207a 	subscs	r2, ip, #122	; 0x7a
    4e0c:	736d2022 	cmnvc	sp, #34	; 0x22
    4e10:	5c222067 	stcpl	0, cr2, [r2], #-412	; 0xfffffe64
    4e14:	3b292222 	blcc	a4d6a4 <_Min_Stack_Size+0xa4d2a4>
    4e18:	615f5f20 	cmpvs	pc, r0, lsr #30
    4e1c:	5f5f6d73 	svcpl	0x005f6d73
    4e20:	702e2228 	eorvc	r2, lr, r8, lsr #4
    4e24:	69766572 	ldmdbvs	r6!, {r1, r4, r5, r6, r8, sl, sp, lr}^
    4e28:	2273756f 	rsbscs	r7, r3, #465567744	; 0x1bc00000
    4e2c:	50470029 	subpl	r0, r7, r9, lsr #32
    4e30:	505f4f49 	subspl	r4, pc, r9, asr #30
    4e34:	315f4e49 	cmpcc	pc, r9, asr #28
    4e38:	28282033 	stmdacs	r8!, {r0, r1, r4, r5, sp}
    4e3c:	746e6975 	strbtvc	r6, [lr], #-2421	; 0xfffff68b
    4e40:	745f3631 	ldrbvc	r3, [pc], #-1585	; 4e48 <_Min_Stack_Size+0x4a48>
    4e44:	32783029 	rsbscc	r3, r8, #41	; 0x29
    4e48:	29303030 	ldmdbcs	r0!, {r4, r5, ip, sp}
    4e4c:	555f5f00 	ldrbpl	r5, [pc, #-3840]	; 3f54 <_Min_Stack_Size+0x3b54>
    4e50:	43415246 	movtmi	r5, #4678	; 0x1246
    4e54:	50455f54 	subpl	r5, r5, r4, asr pc
    4e58:	4f4c4953 	svcmi	0x004c4953
    4e5c:	205f5f4e 	subscs	r5, pc, lr, asr #30
    4e60:	50317830 	eorspl	r7, r1, r0, lsr r8
    4e64:	5536312d 	ldrpl	r3, [r6, #-301]!	; 0xfffffed3
    4e68:	5f5f0052 	svcpl	0x005f0052
    4e6c:	41484357 	cmpmi	r8, r7, asr r3
    4e70:	494d5f52 	stmdbmi	sp, {r1, r4, r6, r8, r9, sl, fp, ip, lr}^
    4e74:	205f5f4e 	subscs	r5, pc, lr, asr #30
    4e78:	4d005530 	cfstr32mi	mvfx5, [r0, #-192]	; 0xffffff40
    4e7c:	5f4c4143 	svcpl	0x004c4143
    4e80:	49545845 	ldmdbmi	r4, {r0, r2, r6, fp, ip, lr}^
    4e84:	4950475f 	ldmdbmi	r0, {r0, r1, r2, r3, r4, r6, r8, r9, sl, lr}^
    4e88:	6e495f4f 	cdpvs	15, 4, cr5, cr9, cr15, {2}
    4e8c:	45007469 	strmi	r7, [r0, #-1129]	; 0xfffffb97
    4e90:	31495458 	cmpcc	r9, r8, asr r4
    4e94:	30312030 	eorscc	r2, r1, r0, lsr r0
    4e98:	555f5f00 	ldrbpl	r5, [pc, #-3840]	; 3fa0 <_Min_Stack_Size+0x3ba0>
    4e9c:	495f5151 	ldmdbmi	pc, {r0, r4, r6, r8, ip, lr}^	; <UNPREDICTABLE>
    4ea0:	5f544942 	svcpl	0x00544942
    4ea4:	0030205f 	eorseq	r2, r0, pc, asr r0
    4ea8:	49545845 	ldmdbmi	r4, {r0, r2, r6, fp, ip, lr}^
    4eac:	4e494c5f 	mcrmi	12, 2, r4, cr9, cr15, {2}
    4eb0:	505f3045 	subspl	r3, pc, r5, asr #32
    4eb4:	28203043 	stmdacs	r0!, {r0, r1, r6, ip, sp}
    4eb8:	49545845 	ldmdbmi	r4, {r0, r2, r6, fp, ip, lr}^
    4ebc:	4950475f 	ldmdbmi	r0, {r0, r1, r2, r3, r4, r6, r8, r9, sl, lr}^
    4ec0:	614d5f4f 	cmpvs	sp, pc, asr #30
    4ec4:	6e697070 	mcrvs	0, 3, r7, cr9, cr0, {3}
    4ec8:	29745f67 	ldmdbcs	r4!, {r0, r1, r2, r5, r6, r8, r9, sl, fp, ip, lr}^
    4ecc:	5458457b 	ldrbpl	r4, [r8], #-1403	; 0xfffffa85
    4ed0:	202c3049 	eorcs	r3, ip, r9, asr #32
    4ed4:	4f495047 	svcmi	0x00495047
    4ed8:	47202c43 	strmi	r2, [r0, -r3, asr #24]!
    4edc:	5f4f4950 	svcpl	0x004f4950
    4ee0:	5f4e4950 	svcpl	0x004e4950
    4ee4:	45202c30 	strmi	r2, [r0, #-3120]!	; 0xfffff3d0
    4ee8:	30495458 	subcc	r5, r9, r8, asr r4
    4eec:	5152495f 	cmppl	r2, pc, asr r9
    4ef0:	4e5f007d 	mrcmi	0, 2, r0, cr15, cr13, {3}
    4ef4:	494c5745 	stmdbmi	ip, {r0, r2, r6, r8, r9, sl, ip, lr}^
    4ef8:	45565f42 	ldrbmi	r5, [r6, #-3906]	; 0xfffff0be
    4efc:	4f495352 	svcmi	0x00495352
    4f00:	5f485f4e 	svcpl	0x00485f4e
    4f04:	0031205f 	eorseq	r2, r1, pc, asr r0
    4f08:	43475f5f 	movtmi	r5, #32607	; 0x7f5f
    4f0c:	54415f43 	strbpl	r5, [r1], #-3907	; 0xfffff0bd
    4f10:	43494d4f 	movtmi	r4, #40271	; 0x9d4f
    4f14:	4e4f4c5f 	mcrmi	12, 2, r4, cr15, cr15, {2}
    4f18:	4f4c5f47 	svcmi	0x004c5f47
    4f1c:	465f4b43 	ldrbmi	r4, [pc], -r3, asr #22
    4f20:	20454552 	subcs	r4, r5, r2, asr r5
    4f24:	5f5f0032 	svcpl	0x005f0032
    4f28:	43414c55 	movtmi	r4, #7253	; 0x1c55
    4f2c:	5f4d5543 	svcpl	0x004d5543
    4f30:	5f4e494d 	svcpl	0x004e494d
    4f34:	2e30205f 	mrccs	0, 1, r2, cr0, cr15, {2}
    4f38:	4b4c5530 	blmi	131a400 <_Min_Stack_Size+0x131a000>
    4f3c:	54415f00 	strbpl	r5, [r1], #-3840	; 0xfffff100
    4f40:	54495845 	strbpl	r5, [r9], #-2117	; 0xfffff7bb
    4f44:	4e59445f 	mrcmi	4, 2, r4, cr9, cr15, {2}
    4f48:	43494d41 	movtmi	r4, #40257	; 0x9d41
    4f4c:	4c4c415f 	stfmie	f4, [ip], {95}	; 0x5f
    4f50:	3120434f 			; <UNDEFINED> instruction: 0x3120434f
    4f54:	6e5f5f00 	cdpvs	15, 5, cr5, cr15, cr0, {0}
    4f58:	5f646565 	svcpl	0x00646565
    4f5c:	657a6973 	ldrbvs	r6, [sl, #-2419]!	; 0xfffff68d
    4f60:	5f00745f 	svcpl	0x0000745f
    4f64:	544e495f 	strbpl	r4, [lr], #-2399	; 0xfffff6a1
    4f68:	58414d5f 	stmdapl	r1, {r0, r1, r2, r3, r4, r6, r8, sl, fp, lr}^
    4f6c:	30205f5f 	eorcc	r5, r0, pc, asr pc
    4f70:	66663778 			; <UNDEFINED> instruction: 0x66663778
    4f74:	66666666 	strbtvs	r6, [r6], -r6, ror #12
    4f78:	5f5f0066 	svcpl	0x005f0066
    4f7c:	5f4d5241 	svcpl	0x004d5241
    4f80:	48435241 	stmdami	r3, {r0, r6, r9, ip, lr}^
    4f84:	45003720 	strmi	r3, [r0, #-1824]	; 0xfffff8e0
    4f88:	5f495458 	svcpl	0x00495458
    4f8c:	454e494c 	strbmi	r4, [lr, #-2380]	; 0xfffff6b4
    4f90:	505f3231 	subspl	r3, pc, r1, lsr r2	; <UNPREDICTABLE>
    4f94:	20323143 	eorscs	r3, r2, r3, asr #2
    4f98:	54584528 	ldrbpl	r4, [r8], #-1320	; 0xfffffad8
    4f9c:	50475f49 	subpl	r5, r7, r9, asr #30
    4fa0:	4d5f4f49 	ldclmi	15, cr4, [pc, #-292]	; 4e84 <_Min_Stack_Size+0x4a84>
    4fa4:	69707061 	ldmdbvs	r0!, {r0, r5, r6, ip, sp, lr}^
    4fa8:	745f676e 	ldrbvc	r6, [pc], #-1902	; 4fb0 <_Min_Stack_Size+0x4bb0>
    4fac:	58457b29 	stmdapl	r5, {r0, r3, r5, r8, r9, fp, ip, sp, lr}^
    4fb0:	32314954 	eorscc	r4, r1, #84, 18	; 0x150000
    4fb4:	5047202c 	subpl	r2, r7, ip, lsr #32
    4fb8:	2c434f49 	mcrrcs	15, 4, r4, r3, cr9
    4fbc:	49504720 	ldmdbmi	r0, {r5, r8, r9, sl, lr}^
    4fc0:	49505f4f 	ldmdbmi	r0, {r0, r1, r2, r3, r6, r8, r9, sl, fp, ip, lr}^
    4fc4:	32315f4e 	eorscc	r5, r1, #312	; 0x138
    4fc8:	5845202c 	stmdapl	r5, {r2, r3, r5, sp}^
    4fcc:	32314954 	eorscc	r4, r1, #84, 18	; 0x150000
    4fd0:	5152495f 	cmppl	r2, pc, asr r9
    4fd4:	5047007d 	subpl	r0, r7, sp, ror r0
    4fd8:	505f4f49 	subspl	r4, pc, r9, asr #30
    4fdc:	325f4e49 	subscc	r4, pc, #1168	; 0x490
    4fe0:	75282820 	strvc	r2, [r8, #-2080]!	; 0xfffff7e0
    4fe4:	31746e69 	cmncc	r4, r9, ror #28
    4fe8:	29745f36 	ldmdbcs	r4!, {r1, r2, r4, r5, r8, r9, sl, fp, ip, lr}^
    4fec:	30307830 	eorscc	r7, r0, r0, lsr r8
    4ff0:	00293430 	eoreq	r3, r9, r0, lsr r4
    4ff4:	4c465f5f 	mcrrmi	15, 5, r5, r6, cr15
    4ff8:	41525f54 	cmpmi	r2, r4, asr pc
    4ffc:	5f584944 	svcpl	0x00584944
    5000:	0032205f 	eorseq	r2, r2, pc, asr r0
    5004:	4c465f5f 	mcrrmi	15, 5, r5, r6, cr15
    5008:	5f323354 	svcpl	0x00323354
    500c:	5f534148 	svcpl	0x00534148
    5010:	49464e49 	stmdbmi	r6, {r0, r3, r6, r9, sl, fp, lr}^
    5014:	5954494e 	ldmdbpl	r4, {r1, r2, r3, r6, r8, fp, lr}^
    5018:	31205f5f 			; <UNDEFINED> instruction: 0x31205f5f
    501c:	544e4900 	strbpl	r4, [lr], #-2304	; 0xfffff700
    5020:	4d5f3436 	cfldrdmi	mvd3, [pc, #-216]	; 4f50 <_Min_Stack_Size+0x4b50>
    5024:	28205841 	stmdacs	r0!, {r0, r6, fp, ip, lr}
    5028:	4e495f5f 	mcrmi	15, 2, r5, cr9, cr15, {2}
    502c:	5f343654 	svcpl	0x00343654
    5030:	5f58414d 	svcpl	0x0058414d
    5034:	5f00295f 	svcpl	0x0000295f
    5038:	43414c5f 	movtmi	r4, #7263	; 0x1c5f
    503c:	5f4d5543 	svcpl	0x004d5543
    5040:	49535045 	ldmdbmi	r3, {r0, r2, r6, ip, lr}^
    5044:	5f4e4f4c 	svcpl	0x004e4f4c
    5048:	7830205f 	ldmdavc	r0!, {r0, r1, r2, r3, r4, r6, sp}
    504c:	332d5031 			; <UNDEFINED> instruction: 0x332d5031
    5050:	004b4c31 	subeq	r4, fp, r1, lsr ip
    5054:	4349564e 	movtmi	r5, #38478	; 0x964e
    5058:	5152495f 	cmppl	r2, pc, asr r9
    505c:	555f3833 	ldrbpl	r3, [pc, #-2099]	; 4831 <_Min_Stack_Size+0x4431>
    5060:	54524153 	ldrbpl	r4, [r2], #-339	; 0xfffffead
    5064:	69445f32 	stmdbvs	r4, {r1, r4, r5, r8, r9, sl, fp, ip, lr}^
    5068:	6c626173 	stfvse	f6, [r2], #-460	; 0xfffffe34
    506c:	20292865 	eorcs	r2, r9, r5, ror #16
    5070:	49564e28 	ldmdbmi	r6, {r3, r5, r9, sl, fp, lr}^
    5074:	43495f43 	movtmi	r5, #40771	; 0x9f43
    5078:	20315245 	eorscs	r5, r1, r5, asr #4
    507c:	28203d7c 	stmdacs	r0!, {r2, r3, r4, r5, r6, r8, sl, fp, ip, sp}
    5080:	3c203120 	stfccs	f3, [r0], #-128	; 0xffffff80
    5084:	5528203c 	strpl	r2, [r8, #-60]!	; 0xffffffc4
    5088:	54524153 	ldrbpl	r4, [r2], #-339	; 0xfffffead
    508c:	52495f32 	subpl	r5, r9, #50, 30	; 0xc8
    5090:	32332d51 	eorscc	r2, r3, #5184	; 0x1440
    5094:	29292029 	stmdbcs	r9!, {r0, r3, r5, sp}
    5098:	775f5f00 	ldrbvc	r5, [pc, -r0, lsl #30]
    509c:	72616863 	rsbvc	r6, r1, #6488064	; 0x630000
    50a0:	5f5f745f 	svcpl	0x005f745f
    50a4:	5f5f0020 	svcpl	0x005f0020
    50a8:	4c42444c 	cfstrdmi	mvd4, [r2], {76}	; 0x4c
    50ac:	5341485f 	movtpl	r4, #6239	; 0x185f
    50b0:	4955515f 	ldmdbmi	r5, {r0, r1, r2, r3, r4, r6, r8, ip, lr}^
    50b4:	4e5f5445 	cdpmi	4, 5, cr5, cr15, cr5, {2}
    50b8:	5f5f4e41 	svcpl	0x005f4e41
    50bc:	5f003120 	svcpl	0x00003120
    50c0:	65656e5f 	strbvs	r6, [r5, #-3679]!	; 0xfffff1a1
    50c4:	554e5f64 	strbpl	r5, [lr, #-3940]	; 0xfffff09c
    50c8:	45004c4c 	strmi	r4, [r0, #-3148]	; 0xfffff3b4
    50cc:	5f495458 	svcpl	0x00495458
    50d0:	454e494c 	strbmi	r4, [lr, #-2380]	; 0xfffff6b4
    50d4:	43505f33 	cmpmi	r0, #51, 30	; 0xcc
    50d8:	45282033 	strmi	r2, [r8, #-51]!	; 0xffffffcd
    50dc:	5f495458 	svcpl	0x00495458
    50e0:	4f495047 	svcmi	0x00495047
    50e4:	70614d5f 	rsbvc	r4, r1, pc, asr sp
    50e8:	676e6970 			; <UNDEFINED> instruction: 0x676e6970
    50ec:	7b29745f 	blvc	a62270 <_Min_Stack_Size+0xa61e70>
    50f0:	49545845 	ldmdbmi	r4, {r0, r2, r6, fp, ip, lr}^
    50f4:	47202c33 			; <UNDEFINED> instruction: 0x47202c33
    50f8:	434f4950 	movtmi	r4, #63824	; 0xf950
    50fc:	5047202c 	subpl	r2, r7, ip, lsr #32
    5100:	505f4f49 	subspl	r4, pc, r9, asr #30
    5104:	335f4e49 	cmpcc	pc, #1168	; 0x490
    5108:	5845202c 	stmdapl	r5, {r2, r3, r5, sp}^
    510c:	5f334954 	svcpl	0x00334954
    5110:	7d515249 	lfmvc	f5, 2, [r1, #-292]	; 0xfffffedc
    5114:	49504700 	ldmdbmi	r0, {r8, r9, sl, lr}^
    5118:	4f4d5f4f 	svcmi	0x004d5f4f
    511c:	4f5f4544 	svcmi	0x005f4544
    5120:	55505455 	ldrbpl	r5, [r0, #-1109]	; 0xfffffbab
    5124:	46415f54 			; <UNDEFINED> instruction: 0x46415f54
    5128:	20444f5f 	subcs	r4, r4, pc, asr pc
    512c:	30307830 	eorscc	r7, r0, r0, lsr r8
    5130:	30303030 	eorscc	r3, r0, r0, lsr r0
    5134:	00753730 	rsbseq	r3, r5, r0, lsr r7
    5138:	4f4c5f5f 	svcmi	0x004c5f5f
    513c:	4c5f474e 	mrrcmi	7, 4, r4, pc, cr14	; <UNPREDICTABLE>
    5140:	5f474e4f 	svcpl	0x00474e4f
    5144:	54444957 	strbpl	r4, [r4], #-2391	; 0xfffff6a9
    5148:	205f5f48 	subscs	r5, pc, r8, asr #30
    514c:	45003436 	strmi	r3, [r0, #-1078]	; 0xfffffbca
    5150:	32495458 	subcc	r5, r9, #88, 8	; 0x58000000
    5154:	5152495f 	cmppl	r2, pc, asr r9
    5158:	57003820 	strpl	r3, [r0, -r0, lsr #16]
    515c:	5f544e49 	svcpl	0x00544e49
    5160:	2058414d 	subscs	r4, r8, sp, asr #2
    5164:	575f5f28 	ldrbpl	r5, [pc, -r8, lsr #30]
    5168:	5f544e49 	svcpl	0x00544e49
    516c:	5f58414d 	svcpl	0x0058414d
    5170:	4700295f 	smlsdmi	r0, pc, r9, r2	; <UNPREDICTABLE>
    5174:	5f4f4950 	svcpl	0x004f4950
    5178:	5f4e4950 	svcpl	0x004e4950
    517c:	28203031 	stmdacs	r0!, {r0, r4, r5, ip, sp}
    5180:	6e697528 	cdpvs	5, 6, cr7, cr9, cr8, {1}
    5184:	5f363174 	svcpl	0x00363174
    5188:	78302974 	ldmdavc	r0!, {r2, r4, r5, r6, r8, fp, sp}
    518c:	30303430 	eorscc	r3, r0, r0, lsr r4
    5190:	5f5f0029 	svcpl	0x005f0029
    5194:	544e4955 	strbpl	r4, [lr], #-2389	; 0xfffff6ab
    5198:	5341465f 	movtpl	r4, #5727	; 0x165f
    519c:	5f343654 	svcpl	0x00343654
    51a0:	5f58414d 	svcpl	0x0058414d
    51a4:	7830205f 	ldmdavc	r0!, {r0, r1, r2, r3, r4, r6, sp}
    51a8:	66666666 	strbtvs	r6, [r6], -r6, ror #12
    51ac:	66666666 	strbtvs	r6, [r6], -r6, ror #12
    51b0:	66666666 	strbtvs	r6, [r6], -r6, ror #12
    51b4:	66666666 	strbtvs	r6, [r6], -r6, ror #12
    51b8:	004c4c55 	subeq	r4, ip, r5, asr ip
    51bc:	49545845 	ldmdbmi	r4, {r0, r2, r6, fp, ip, lr}^
    51c0:	00332033 	eorseq	r2, r3, r3, lsr r0
    51c4:	52415f5f 	subpl	r5, r1, #380	; 0x17c
    51c8:	50465f4d 	subpl	r5, r6, sp, asr #30
    51cc:	485f5f00 	ldmdami	pc, {r8, r9, sl, fp, ip, lr}^	; <UNPREDICTABLE>
    51d0:	42495f41 	submi	r5, r9, #260	; 0x104
    51d4:	5f5f5449 	svcpl	0x005f5449
    51d8:	5f003820 	svcpl	0x00003820
    51dc:	4d52415f 	ldfmie	f4, [r2, #-380]	; 0xfffffe84
    51e0:	4145465f 	cmpmi	r5, pc, asr r6
    51e4:	45525554 	ldrbmi	r5, [r2, #-1364]	; 0xfffffaac
    51e8:	5053445f 	subspl	r4, r3, pc, asr r4
    51ec:	495f5f00 	ldmdbmi	pc, {r8, r9, sl, fp, ip, lr}^	; <UNPREDICTABLE>
    51f0:	5450544e 	ldrbpl	r5, [r0], #-1102	; 0xfffffbb2
    51f4:	49575f52 	ldmdbmi	r7, {r1, r4, r6, r8, r9, sl, fp, ip, lr}^
    51f8:	5f485444 	svcpl	0x00485444
    51fc:	3233205f 	eorscc	r2, r3, #95	; 0x5f
    5200:	475f5f00 	ldrbmi	r5, [pc, -r0, lsl #30]
    5204:	415f4343 	cmpmi	pc, r3, asr #6
    5208:	494d4f54 	stmdbmi	sp, {r2, r4, r6, r8, r9, sl, fp, lr}^
    520c:	4c4c5f43 	mcrrmi	15, 4, r5, ip, cr3
    5210:	5f474e4f 	svcpl	0x00474e4f
    5214:	4b434f4c 	blmi	10d8f4c <_Min_Stack_Size+0x10d8b4c>
    5218:	4552465f 	ldrbmi	r4, [r2, #-1631]	; 0xfffff9a1
    521c:	00312045 	eorseq	r2, r1, r5, asr #32
    5220:	49545845 	ldmdbmi	r4, {r0, r2, r6, fp, ip, lr}^
    5224:	706e495f 	rsbvc	r4, lr, pc, asr r9
    5228:	694c7475 	stmdbvs	ip, {r0, r2, r4, r5, r6, sl, ip, sp, lr}^
    522c:	754e656e 	strbvc	r6, [lr, #-1390]	; 0xfffffa92
    5230:	7265626d 	rsbvc	r6, r5, #-805306362	; 0xd0000006
    5234:	49504700 	ldmdbmi	r0, {r8, r9, sl, lr}^
    5238:	554f5f4f 	strbpl	r5, [pc, #-3919]	; 42f1 <_Min_Stack_Size+0x3ef1>
    523c:	54555054 	ldrbpl	r5, [r5], #-84	; 0xffffffac
    5240:	4550535f 	ldrbmi	r5, [r0, #-863]	; 0xfffffca1
    5244:	5f004445 	svcpl	0x00004445
    5248:	544c465f 	strbpl	r4, [ip], #-1631	; 0xfffff9a1
    524c:	5f583233 	svcpl	0x00583233
    5250:	5f4e494d 	svcpl	0x004e494d
    5254:	2e32205f 	mrccs	0, 1, r2, cr2, cr15, {2}
    5258:	30353232 	eorscc	r3, r5, r2, lsr r2
    525c:	35383337 	ldrcc	r3, [r8, #-823]!	; 0xfffffcc9
    5260:	37303538 			; <UNDEFINED> instruction: 0x37303538
    5264:	34313032 	ldrtcc	r3, [r1], #-50	; 0xffffffce
    5268:	30332d65 	eorscc	r2, r3, r5, ror #26
    526c:	32334638 	eorscc	r4, r3, #56, 12	; 0x3800000
    5270:	525f0078 	subspl	r0, pc, #120	; 0x78
    5274:	544e4545 	strbpl	r4, [lr], #-1349	; 0xfffffabb
    5278:	4e41525f 	mcrmi	2, 2, r5, cr1, cr15, {2}
    527c:	5f383444 	svcpl	0x00383444
    5280:	544c554d 	strbpl	r5, [ip], #-1357	; 0xfffffab3
    5284:	72747028 	rsbsvc	r7, r4, #40	; 0x28
    5288:	28282029 	stmdacs	r8!, {r0, r3, r5, sp}
    528c:	29727470 	ldmdbcs	r2!, {r4, r5, r6, sl, ip, sp, lr}^
    5290:	725f3e2d 	subsvc	r3, pc, #720	; 0x2d0
    5294:	3e2d3834 	mcrcc	8, 1, r3, cr13, cr4, {1}
    5298:	6c756d5f 	ldclvs	13, cr6, [r5], #-380	; 0xfffffe84
    529c:	5f002974 	svcpl	0x00002974
    52a0:	544c465f 	strbpl	r4, [ip], #-1631	; 0xfffff9a1
    52a4:	4d5f3436 	cfldrdmi	mvd3, [pc, #-216]	; 51d4 <_Min_Stack_Size+0x4dd4>
    52a8:	455f5841 	ldrbmi	r5, [pc, #-2113]	; 4a6f <_Min_Stack_Size+0x466f>
    52ac:	5f5f5058 	svcpl	0x005f5058
    52b0:	32303120 	eorscc	r3, r0, #32, 2
    52b4:	5f5f0034 	svcpl	0x005f0034
    52b8:	75746572 	ldrbvc	r6, [r4, #-1394]!	; 0xfffffa8e
    52bc:	5f736e72 	svcpl	0x00736e72
    52c0:	63697774 	cmnvs	r9, #116, 14	; 0x1d00000
    52c4:	5f5f2065 	svcpl	0x005f2065
    52c8:	72747461 	rsbsvc	r7, r4, #1627389952	; 0x61000000
    52cc:	74756269 	ldrbtvc	r6, [r5], #-617	; 0xfffffd97
    52d0:	285f5f65 	ldmdacs	pc, {r0, r2, r5, r6, r8, r9, sl, fp, ip, lr}^	; <UNPREDICTABLE>
    52d4:	725f5f28 	subsvc	r5, pc, #40, 30	; 0xa0
    52d8:	72757465 	rsbsvc	r7, r5, #1694498816	; 0x65000000
    52dc:	745f736e 	ldrbvc	r7, [pc], #-878	; 52e4 <_Min_Stack_Size+0x4ee4>
    52e0:	65636977 	strbvs	r6, [r3, #-2423]!	; 0xfffff689
    52e4:	29295f5f 	stmdbcs	r9!, {r0, r1, r2, r3, r4, r6, r8, r9, sl, fp, ip, lr}
    52e8:	575f5f00 	ldrbpl	r5, [pc, -r0, lsl #30]
    52ec:	52414843 	subpl	r4, r1, #4390912	; 0x430000
    52f0:	0020545f 	eoreq	r5, r0, pc, asr r4
    52f4:	435f424d 	cmpmi	pc, #-805306364	; 0xd0000004
    52f8:	4d5f5255 	lfmmi	f5, 2, [pc, #-340]	; 51ac <_Min_Stack_Size+0x4dac>
    52fc:	5f205841 	svcpl	0x00205841
    5300:	636f6c5f 	cmnvs	pc, #24320	; 0x5f00
    5304:	5f656c61 	svcpl	0x00656c61
    5308:	635f626d 	cmpvs	pc, #-805306362	; 0xd0000006
    530c:	6d5f7275 	lfmvs	f7, 2, [pc, #-468]	; 5140 <_Min_Stack_Size+0x4d40>
    5310:	29287861 	stmdbcs	r8!, {r0, r5, r6, fp, ip, sp, lr}
    5314:	465f5f00 	ldrbmi	r5, [pc], -r0, lsl #30
    5318:	3436544c 	ldrtcc	r5, [r6], #-1100	; 0xfffffbb4
    531c:	4e494d5f 	mcrmi	13, 2, r4, cr9, cr15, {2}
    5320:	32205f5f 	eorcc	r5, r0, #380	; 0x17c
    5324:	3532322e 	ldrcc	r3, [r2, #-558]!	; 0xfffffdd2
    5328:	38333730 	ldmdacc	r3!, {r4, r5, r8, r9, sl, ip, sp}
    532c:	30353835 	eorscc	r3, r5, r5, lsr r8
    5330:	31303237 	teqcc	r0, r7, lsr r2
    5334:	332d6534 			; <UNDEFINED> instruction: 0x332d6534
    5338:	36463830 			; <UNDEFINED> instruction: 0x36463830
    533c:	58450034 	stmdapl	r5, {r2, r4, r5}^
    5340:	4c5f4954 	mrrcmi	9, 5, r4, pc, cr4	; <UNPREDICTABLE>
    5344:	31454e49 	cmpcc	r5, r9, asr #28
    5348:	3142505f 	qdaddcc	r5, pc, r2	; <UNPREDICTABLE>
    534c:	58452820 	stmdapl	r5, {r5, fp, sp}^
    5350:	475f4954 			; <UNDEFINED> instruction: 0x475f4954
    5354:	5f4f4950 	svcpl	0x004f4950
    5358:	7070614d 	rsbsvc	r6, r0, sp, asr #2
    535c:	5f676e69 	svcpl	0x00676e69
    5360:	457b2974 	ldrbmi	r2, [fp, #-2420]!	; 0xfffff68c
    5364:	31495458 	cmpcc	r9, r8, asr r4
    5368:	5047202c 	subpl	r2, r7, ip, lsr #32
    536c:	2c424f49 	mcrrcs	15, 4, r4, r2, cr9
    5370:	49504720 	ldmdbmi	r0, {r5, r8, r9, sl, lr}^
    5374:	49505f4f 	ldmdbmi	r0, {r0, r1, r2, r3, r6, r8, r9, sl, fp, ip, lr}^
    5378:	2c315f4e 	ldccs	15, cr5, [r1], #-312	; 0xfffffec8
    537c:	54584520 	ldrbpl	r4, [r8], #-1312	; 0xfffffae0
    5380:	495f3149 	ldmdbmi	pc, {r0, r3, r6, r8, ip, sp}^	; <UNPREDICTABLE>
    5384:	007d5152 	rsbseq	r5, sp, r2, asr r1
    5388:	695f5f5f 	ldmdbvs	pc, {r0, r1, r2, r3, r4, r6, r8, r9, sl, fp, ip, lr}^	; <UNPREDICTABLE>
    538c:	3233746e 	eorscc	r7, r3, #1845493760	; 0x6e000000
    5390:	645f745f 	ldrbvs	r7, [pc], #-1119	; 5398 <_Min_Stack_Size+0x4f98>
    5394:	6e696665 	cdpvs	6, 6, cr6, cr9, cr5, {3}
    5398:	31206465 			; <UNDEFINED> instruction: 0x31206465
    539c:	61675f00 	cmnvs	r7, r0, lsl #30
    53a0:	5f616d6d 	svcpl	0x00616d6d
    53a4:	6e676973 			; <UNDEFINED> instruction: 0x6e676973
    53a8:	006d6167 	rsbeq	r6, sp, r7, ror #2
    53ac:	5641485f 			; <UNDEFINED> instruction: 0x5641485f
    53b0:	43435f45 	movtmi	r5, #16197	; 0x3f45
    53b4:	484e495f 	stmdami	lr, {r0, r1, r2, r3, r4, r6, r8, fp, lr}^
    53b8:	54494249 	strbpl	r4, [r9], #-585	; 0xfffffdb7
    53bc:	4f4f4c5f 	svcmi	0x004f4c5f
    53c0:	4f545f50 	svcmi	0x00545f50
    53c4:	42494c5f 	submi	r4, r9, #24320	; 0x5f00
    53c8:	4c4c4143 	stfmie	f4, [ip], {67}	; 0x43
    53cc:	45003120 	strmi	r3, [r0, #-288]	; 0xfffffee0
    53d0:	5f495458 	svcpl	0x00495458
    53d4:	454e494c 	strbmi	r4, [lr, #-2380]	; 0xfffff6b4
    53d8:	42505f36 	subsmi	r5, r0, #54, 30	; 0xd8
    53dc:	45282036 	strmi	r2, [r8, #-54]!	; 0xffffffca
    53e0:	5f495458 	svcpl	0x00495458
    53e4:	4f495047 	svcmi	0x00495047
    53e8:	70614d5f 	rsbvc	r4, r1, pc, asr sp
    53ec:	676e6970 			; <UNDEFINED> instruction: 0x676e6970
    53f0:	7b29745f 	blvc	a62574 <_Min_Stack_Size+0xa62174>
    53f4:	49545845 	ldmdbmi	r4, {r0, r2, r6, fp, ip, lr}^
    53f8:	47202c36 			; <UNDEFINED> instruction: 0x47202c36
    53fc:	424f4950 	submi	r4, pc, #80, 18	; 0x140000
    5400:	5047202c 	subpl	r2, r7, ip, lsr #32
    5404:	505f4f49 	subspl	r4, pc, r9, asr #30
    5408:	365f4e49 	ldrbcc	r4, [pc], -r9, asr #28
    540c:	5845202c 	stmdapl	r5, {r2, r3, r5, sp}^
    5410:	5f364954 	svcpl	0x00364954
    5414:	7d515249 	lfmvc	f5, 2, [r1, #-292]	; 0xfffffedc
    5418:	465f5f00 	ldrbmi	r5, [pc], -r0, lsl #30
    541c:	4d5f544c 	cfldrdmi	mvd5, [pc, #-304]	; 52f4 <_Min_Stack_Size+0x4ef4>
    5420:	455f4e49 	ldrbmi	r4, [pc, #-3657]	; 45df <_Min_Stack_Size+0x41df>
    5424:	5f5f5058 	svcpl	0x005f5058
    5428:	312d2820 			; <UNDEFINED> instruction: 0x312d2820
    542c:	00293532 	eoreq	r3, r9, r2, lsr r5
    5430:	49575f5f 	ldmdbmi	r7, {r0, r1, r2, r3, r4, r6, r8, r9, sl, fp, ip, lr}^
    5434:	575f544e 	ldrbpl	r5, [pc, -lr, asr #8]
    5438:	48544449 	ldmdami	r4, {r0, r3, r6, sl, lr}^
    543c:	33205f5f 			; <UNDEFINED> instruction: 0x33205f5f
    5440:	5f5f0032 	svcpl	0x005f0032
    5444:	36544e49 	ldrbcc	r4, [r4], -r9, asr #28
    5448:	59545f34 	ldmdbpl	r4, {r2, r4, r5, r8, r9, sl, fp, ip, lr}^
    544c:	5f5f4550 	svcpl	0x005f4550
    5450:	6e6f6c20 	cdpvs	12, 6, cr6, cr15, cr0, {1}
    5454:	6f6c2067 	svcvs	0x006c2067
    5458:	6920676e 	stmdbvs	r0!, {r1, r2, r3, r5, r6, r8, r9, sl, sp, lr}
    545c:	5f00746e 	svcpl	0x0000746e
    5460:	52464c5f 	subpl	r4, r6, #24320	; 0x5f00
    5464:	5f544341 	svcpl	0x00544341
    5468:	54494246 	strbpl	r4, [r9], #-582	; 0xfffffdba
    546c:	33205f5f 			; <UNDEFINED> instruction: 0x33205f5f
    5470:	5f5f0031 	svcpl	0x005f0031
    5474:	52414843 	subpl	r4, r1, #4390912	; 0x430000
    5478:	5449425f 	strbpl	r4, [r9], #-607	; 0xfffffda1
    547c:	38205f5f 	stmdacc	r0!, {r0, r1, r2, r3, r4, r6, r8, r9, sl, fp, ip, lr}
    5480:	54584500 	ldrbpl	r4, [r8], #-1280	; 0xfffffb00
    5484:	49505f49 	ldmdbmi	r0, {r0, r3, r6, r8, r9, sl, fp, ip, lr}^
    5488:	5f5f004e 	svcpl	0x005f004e
    548c:	5f445342 	svcpl	0x00445342
    5490:	49534956 	ldmdbmi	r3, {r1, r2, r4, r6, r8, fp, lr}^
    5494:	20454c42 	subcs	r4, r5, r2, asr #24
    5498:	4e490031 	mcrmi	0, 2, r0, cr9, cr1, {1}
    549c:	454c5f54 	strbmi	r5, [ip, #-3924]	; 0xfffff0ac
    54a0:	31545341 	cmpcc	r4, r1, asr #6
    54a4:	494d5f36 	stmdbmi	sp, {r1, r2, r4, r5, r8, r9, sl, fp, ip, lr}^
    54a8:	2d28204e 	stccs	0, cr2, [r8, #-312]!	; 0xfffffec8
    54ac:	4e495f5f 	mcrmi	15, 2, r5, cr9, cr15, {2}
    54b0:	454c5f54 	strbmi	r5, [ip, #-3924]	; 0xfffff0ac
    54b4:	31545341 	cmpcc	r4, r1, asr #6
    54b8:	414d5f36 	cmpmi	sp, r6, lsr pc
    54bc:	205f5f58 	subscs	r5, pc, r8, asr pc	; <UNPREDICTABLE>
    54c0:	2931202d 	ldmdbcs	r1!, {r0, r2, r3, r5, sp}
    54c4:	755f5f00 	ldrbvc	r5, [pc, #-3840]	; 45cc <_Min_Stack_Size+0x41cc>
    54c8:	6573756e 	ldrbvs	r7, [r3, #-1390]!	; 0xfffffa92
    54cc:	5f5f2064 	svcpl	0x005f2064
    54d0:	72747461 	rsbsvc	r7, r4, #1627389952	; 0x61000000
    54d4:	74756269 	ldrbtvc	r6, [r5], #-617	; 0xfffffd97
    54d8:	285f5f65 	ldmdacs	pc, {r0, r2, r5, r6, r8, r9, sl, fp, ip, lr}^	; <UNPREDICTABLE>
    54dc:	755f5f28 	ldrbvc	r5, [pc, #-3880]	; 45bc <_Min_Stack_Size+0x41bc>
    54e0:	6573756e 	ldrbvs	r7, [r3, #-1390]!	; 0xfffffa92
    54e4:	295f5f64 	ldmdbcs	pc, {r2, r5, r6, r8, r9, sl, fp, ip, lr}^	; <UNPREDICTABLE>
    54e8:	58450029 	stmdapl	r5, {r0, r3, r5}^
    54ec:	4c5f4954 	mrrcmi	9, 5, r4, pc, cr4	; <UNPREDICTABLE>
    54f0:	31454e49 	cmpcc	r5, r9, asr #28
    54f4:	42505f32 	subsmi	r5, r0, #50, 30	; 0xc8
    54f8:	28203231 	stmdacs	r0!, {r0, r4, r5, r9, ip, sp}
    54fc:	49545845 	ldmdbmi	r4, {r0, r2, r6, fp, ip, lr}^
    5500:	4950475f 	ldmdbmi	r0, {r0, r1, r2, r3, r4, r6, r8, r9, sl, lr}^
    5504:	614d5f4f 	cmpvs	sp, pc, asr #30
    5508:	6e697070 	mcrvs	0, 3, r7, cr9, cr0, {3}
    550c:	29745f67 	ldmdbcs	r4!, {r0, r1, r2, r5, r6, r8, r9, sl, fp, ip, lr}^
    5510:	5458457b 	ldrbpl	r4, [r8], #-1403	; 0xfffffa85
    5514:	2c323149 	ldfcss	f3, [r2], #-292	; 0xfffffedc
    5518:	49504720 	ldmdbmi	r0, {r5, r8, r9, sl, lr}^
    551c:	202c424f 	eorcs	r4, ip, pc, asr #4
    5520:	4f495047 	svcmi	0x00495047
    5524:	4e49505f 	mcrmi	0, 2, r5, cr9, cr15, {2}
    5528:	2c32315f 	ldfcss	f3, [r2], #-380	; 0xfffffe84
    552c:	54584520 	ldrbpl	r4, [r8], #-1312	; 0xfffffae0
    5530:	5f323149 	svcpl	0x00323149
    5534:	7d515249 	lfmvc	f5, 2, [r1, #-292]	; 0xfffffedc
    5538:	72665f00 	rsbvc	r5, r6, #0, 30
    553c:	696c6565 	stmdbvs	ip!, {r0, r2, r5, r6, r8, sl, sp, lr}^
    5540:	5f007473 	svcpl	0x00007473
    5544:	5246555f 	subpl	r5, r6, #398458880	; 0x17c00000
    5548:	5f544341 	svcpl	0x00544341
    554c:	5f58414d 	svcpl	0x0058414d
    5550:	5830205f 	ldmdapl	r0!, {r0, r1, r2, r3, r4, r6, sp}
    5554:	46464646 	strbmi	r4, [r6], -r6, asr #12
    5558:	36312d50 			; <UNDEFINED> instruction: 0x36312d50
    555c:	5f005255 	svcpl	0x00005255
    5560:	73626f69 	cmnvc	r2, #420	; 0x1a4
    5564:	41535500 	cmpmi	r3, r0, lsl #10
    5568:	5f335452 	svcpl	0x00335452
    556c:	45534142 	ldrbmi	r4, [r3, #-322]	; 0xfffffebe
    5570:	34783020 	ldrbtcc	r3, [r8], #-32	; 0xffffffe0
    5574:	34303030 	ldrtcc	r3, [r0], #-48	; 0xffffffd0
    5578:	55303038 	ldrpl	r3, [r0, #-56]!	; 0xffffffc8
    557c:	575f004c 	ldrbpl	r0, [pc, -ip, asr #32]
    5580:	5f544e41 	svcpl	0x00544e41
    5584:	4e454552 	mcrmi	5, 2, r4, cr5, cr2, {2}
    5588:	4d535f54 	ldclmi	15, cr5, [r3, #-336]	; 0xfffffeb0
    558c:	204c4c41 	subcs	r4, ip, r1, asr #24
    5590:	675f0031 	smmlarvs	pc, r1, r0, r0	; <UNPREDICTABLE>
    5594:	0065756c 	rsbeq	r7, r5, ip, ror #10
    5598:	45495753 	strbmi	r5, [r9, #-1875]	; 0xfffff8ad
    559c:	6d5f0052 	ldclvs	0, cr0, [pc, #-328]	; 545c <_Min_Stack_Size+0x505c>
    55a0:	61747362 	cmnvs	r4, r2, ror #6
    55a4:	745f6574 	ldrbvc	r6, [pc], #-1396	; 55ac <_Min_Stack_Size+0x51ac>
    55a8:	69735f00 	ldmdbvs	r3!, {r8, r9, sl, fp, ip, lr}^
    55ac:	45006e67 	strmi	r6, [r0, #-3687]	; 0xfffff199
    55b0:	5f495458 	svcpl	0x00495458
    55b4:	454e494c 	strbmi	r4, [lr, #-2380]	; 0xfffff6b4
    55b8:	41505f39 	cmpmi	r0, r9, lsr pc
    55bc:	45282039 	strmi	r2, [r8, #-57]!	; 0xffffffc7
    55c0:	5f495458 	svcpl	0x00495458
    55c4:	4f495047 	svcmi	0x00495047
    55c8:	70614d5f 	rsbvc	r4, r1, pc, asr sp
    55cc:	676e6970 			; <UNDEFINED> instruction: 0x676e6970
    55d0:	7b29745f 	blvc	a62754 <_Min_Stack_Size+0xa62354>
    55d4:	49545845 	ldmdbmi	r4, {r0, r2, r6, fp, ip, lr}^
    55d8:	47202c39 			; <UNDEFINED> instruction: 0x47202c39
    55dc:	414f4950 	cmpmi	pc, r0, asr r9	; <UNPREDICTABLE>
    55e0:	5047202c 	subpl	r2, r7, ip, lsr #32
    55e4:	505f4f49 	subspl	r4, pc, r9, asr #30
    55e8:	395f4e49 	ldmdbcc	pc, {r0, r3, r6, r9, sl, fp, lr}^	; <UNPREDICTABLE>
    55ec:	5845202c 	stmdapl	r5, {r2, r3, r5, sp}^
    55f0:	5f394954 	svcpl	0x00394954
    55f4:	7d515249 	lfmvc	f5, 2, [r1, #-292]	; 0xfffffedc
    55f8:	535f5f00 	cmppl	pc, #0, 30
    55fc:	43415246 	movtmi	r5, #4678	; 0x1246
    5600:	42495f54 	submi	r5, r9, #84, 30	; 0x150
    5604:	5f5f5449 	svcpl	0x005f5449
    5608:	5f003020 	svcpl	0x00003020
    560c:	49465441 	stmdbmi	r6, {r0, r6, sl, ip, lr}^
    5610:	535f454c 	cmppl	pc, #76, 10	; 0x13000000
    5614:	4352554f 	cmpmi	r2, #331350016	; 0x13c00000
    5618:	00312045 	eorseq	r2, r1, r5, asr #32
    561c:	54535f5f 	ldrbpl	r5, [r3], #-3935	; 0xfffff0a1
    5620:	544e4944 	strbpl	r4, [lr], #-2372	; 0xfffff6bc
    5624:	5058455f 	subspl	r4, r8, pc, asr r5
    5628:	20297828 	eorcs	r7, r9, r8, lsr #16
    562c:	23205f5f 			; <UNDEFINED> instruction: 0x23205f5f
    5630:	23207823 			; <UNDEFINED> instruction: 0x23207823
    5634:	005f5f23 	subseq	r5, pc, r3, lsr #30
    5638:	58455f5f 	stmdapl	r5, {r0, r1, r2, r3, r4, r6, r8, r9, sl, fp, ip, lr}^
    563c:	29782850 	ldmdbcs	r8!, {r4, r6, fp, sp}^
    5640:	205f5f20 	subscs	r5, pc, r0, lsr #30
    5644:	20782323 	rsbscs	r2, r8, r3, lsr #6
    5648:	5f5f2323 	svcpl	0x005f2323
    564c:	425f5f00 	subsmi	r5, pc, #0, 30
    5650:	5f455459 	svcpl	0x00455459
    5654:	4544524f 	strbmi	r5, [r4, #-591]	; 0xfffffdb1
    5658:	205f5f52 	subscs	r5, pc, r2, asr pc	; <UNPREDICTABLE>
    565c:	524f5f5f 	subpl	r5, pc, #380	; 0x17c
    5660:	5f524544 	svcpl	0x00524544
    5664:	5454494c 	ldrbpl	r4, [r4], #-2380	; 0xfffff6b4
    5668:	455f454c 	ldrbmi	r4, [pc, #-1356]	; 5124 <_Min_Stack_Size+0x4d24>
    566c:	4149444e 	cmpmi	r9, lr, asr #8
    5670:	005f5f4e 	subseq	r5, pc, lr, asr #30
    5674:	4c465f5f 	mcrrmi	15, 5, r5, r6, cr15
    5678:	5f323354 	svcpl	0x00323354
    567c:	49535045 	ldmdbmi	r3, {r0, r2, r6, ip, lr}^
    5680:	5f4e4f4c 	svcpl	0x004e4f4c
    5684:	2e31205f 	mrccs	0, 1, r2, cr1, cr15, {2}
    5688:	30323931 	eorscc	r3, r2, r1, lsr r9
    568c:	39383239 	ldmdbcc	r8!, {r0, r3, r4, r5, r9, ip, sp}
    5690:	37303535 			; <UNDEFINED> instruction: 0x37303535
    5694:	35323138 	ldrcc	r3, [r2, #-312]!	; 0xfffffec8
    5698:	46372d65 	ldrtmi	r2, [r7], -r5, ror #26
    569c:	5f003233 	svcpl	0x00003233
    56a0:	4d52415f 	ldfmie	f4, [r2, #-380]	; 0xfffffe84
    56a4:	4f454e5f 	svcmi	0x00454e5f
    56a8:	50465f4e 	subpl	r5, r6, lr, asr #30
    56ac:	4c5f5f00 	mrrcmi	15, 0, r5, pc, cr0	; <UNPREDICTABLE>
    56b0:	4152464c 	cmpmi	r2, ip, asr #12
    56b4:	4d5f5443 	cfldrdmi	mvd5, [pc, #-268]	; 55b0 <_Min_Stack_Size+0x51b0>
    56b8:	5f5f5841 	svcpl	0x005f5841
    56bc:	37583020 	ldrbcc	r3, [r8, -r0, lsr #32]
    56c0:	46464646 	strbmi	r4, [r6], -r6, asr #12
    56c4:	46464646 	strbmi	r4, [r6], -r6, asr #12
    56c8:	46464646 	strbmi	r4, [r6], -r6, asr #12
    56cc:	50464646 	subpl	r4, r6, r6, asr #12
    56d0:	4c33362d 	ldcmi	6, cr3, [r3], #-180	; 0xffffff4c
    56d4:	5f00524c 	svcpl	0x0000524c
    56d8:	49534e41 	ldmdbmi	r3, {r0, r6, r9, sl, fp, lr}^
    56dc:	4c434544 	cfstr64mi	mvdx4, [r3], {68}	; 0x44
    56e0:	205f485f 	subscs	r4, pc, pc, asr r8	; <UNPREDICTABLE>
    56e4:	54584500 	ldrbpl	r4, [r8], #-1280	; 0xfffffb00
    56e8:	5f303149 	svcpl	0x00303149
    56ec:	20515249 	subscs	r5, r1, r9, asr #4
    56f0:	55003034 	strpl	r3, [r0, #-52]	; 0xffffffcc
    56f4:	5f544e49 	svcpl	0x00544e49
    56f8:	5341454c 	movtpl	r4, #5452	; 0x154c
    56fc:	5f343654 	svcpl	0x00343654
    5700:	2058414d 	subscs	r4, r8, sp, asr #2
    5704:	555f5f28 	ldrbpl	r5, [pc, #-3880]	; 47e4 <_Min_Stack_Size+0x43e4>
    5708:	5f544e49 	svcpl	0x00544e49
    570c:	5341454c 	movtpl	r4, #5452	; 0x154c
    5710:	5f343654 	svcpl	0x00343654
    5714:	5f58414d 	svcpl	0x0058414d
    5718:	4500295f 	strmi	r2, [r0, #-2399]	; 0xfffff6a1
    571c:	31495458 	cmpcc	r9, r8, asr r4
    5720:	52495f34 	subpl	r5, r9, #52, 30	; 0xd0
    5724:	30342051 	eorscc	r2, r4, r1, asr r0
    5728:	54584500 	ldrbpl	r4, [r8], #-1280	; 0xfffffb00
    572c:	31203149 			; <UNDEFINED> instruction: 0x31203149
    5730:	555f5f00 	ldrbpl	r5, [pc, #-3840]	; 4838 <_Min_Stack_Size+0x4438>
    5734:	43415246 	movtmi	r5, #4678	; 0x1246
    5738:	42465f54 	submi	r5, r6, #84, 30	; 0x150
    573c:	5f5f5449 	svcpl	0x005f5449
    5740:	00363120 	eorseq	r3, r6, r0, lsr #2
    5744:	49545845 	ldmdbmi	r4, {r0, r2, r6, fp, ip, lr}^
    5748:	5152495f 	cmppl	r2, pc, asr r9
    574c:	7369445f 	cmnvc	r9, #1593835520	; 0x5f000000
    5750:	656c6261 	strbvs	r6, [ip, #-609]!	; 0xfffffd9f
    5754:	5f003020 	svcpl	0x00003020
    5758:	5144555f 	cmppl	r4, pc, asr r5
    575c:	4942465f 	stmdbmi	r2, {r0, r1, r2, r3, r4, r6, r9, sl, lr}^
    5760:	205f5f54 	subscs	r5, pc, r4, asr pc	; <UNPREDICTABLE>
    5764:	52003436 	andpl	r3, r0, #905969664	; 0x36000000
    5768:	415f4343 	cmpmi	pc, r3, asr #6
    576c:	5f4f4946 	svcpl	0x004f4946
    5770:	5f4b4c43 	svcpl	0x004b4c43
    5774:	29284e45 	stmdbcs	r8!, {r0, r2, r6, r9, sl, fp, lr}
    5778:	43522820 	cmpmi	r2, #32, 16	; 0x200000
    577c:	413e2d43 	teqmi	lr, r3, asr #26
    5780:	45324250 	ldrmi	r4, [r2, #-592]!	; 0xfffffdb0
    5784:	7c20524e 	sfmvc	f5, 4, [r0], #-312	; 0xfffffec8
    5788:	3128203d 			; <UNDEFINED> instruction: 0x3128203d
    578c:	29303c3c 	ldmdbcs	r0!, {r2, r3, r4, r5, sl, fp, ip, sp}
    5790:	5f5f0029 	svcpl	0x005f0029
    5794:	43554e47 	cmpmi	r5, #1136	; 0x470
    5798:	454b494c 	strbmi	r4, [fp, #-2380]	; 0xfffff6b4
    579c:	4955425f 	ldmdbmi	r5, {r0, r1, r2, r3, r4, r6, r9, lr}^
    57a0:	4e49544c 	cdpmi	4, 4, cr5, cr9, cr12, {2}
    57a4:	4d454d5f 	stclmi	13, cr4, [r5, #-380]	; 0xfffffe84
    57a8:	20595043 	subscs	r5, r9, r3, asr #32
    57ac:	5f5f0031 	svcpl	0x005f0031
    57b0:	4c42444c 	cfstrdmi	mvd4, [r2], {76}	; 0x4c
    57b4:	58414d5f 	stmdapl	r1, {r0, r1, r2, r3, r4, r6, r8, sl, fp, lr}^
    57b8:	5f30315f 	svcpl	0x0030315f
    57bc:	5f505845 	svcpl	0x00505845
    57c0:	3033205f 	eorscc	r2, r3, pc, asr r0
    57c4:	5f5f0038 	svcpl	0x005f0038
    57c8:	665f6673 			; <UNDEFINED> instruction: 0x665f6673
    57cc:	5f656b61 	svcpl	0x00656b61
    57d0:	6f647473 	svcvs	0x00647473
    57d4:	5f007475 	svcpl	0x00007475
    57d8:	4c42445f 	cfstrdmi	mvd4, [r2], {95}	; 0x5f
    57dc:	4e45445f 	mcrmi	4, 2, r4, cr5, cr15, {2}
    57e0:	5f4d524f 	svcpl	0x004d524f
    57e4:	5f4e494d 	svcpl	0x004e494d
    57e8:	2828205f 	stmdacs	r8!, {r0, r1, r2, r3, r4, r6, sp}
    57ec:	62756f64 	rsbsvs	r6, r5, #100, 30	; 0x190
    57f0:	3429656c 	strtcc	r6, [r9], #-1388	; 0xfffffa94
    57f4:	3034392e 	eorscc	r3, r4, lr, lsr #18
    57f8:	34363536 	ldrtcc	r3, [r6], #-1334	; 0xfffffaca
    57fc:	31343835 	teqcc	r4, r5, lsr r8
    5800:	35363432 	ldrcc	r3, [r6, #-1074]!	; 0xfffffbce
    5804:	332d6534 			; <UNDEFINED> instruction: 0x332d6534
    5808:	294c3432 	stmdbcs	ip, {r1, r4, r5, sl, ip, sp}^
    580c:	6c665f00 	stclvs	15, cr5, [r6], #-0
    5810:	32736761 	rsbscc	r6, r3, #25427968	; 0x1840000
    5814:	495f5f00 	ldmdbmi	pc, {r8, r9, sl, fp, ip, lr}^	; <UNPREDICTABLE>
    5818:	465f544e 	ldrbmi	r5, [pc], -lr, asr #8
    581c:	33545341 	cmpcc	r4, #67108865	; 0x4000001
    5820:	59545f32 	ldmdbpl	r4, {r1, r4, r5, r8, r9, sl, fp, ip, lr}^
    5824:	5f5f4550 	svcpl	0x005f4550
    5828:	746e6920 	strbtvc	r6, [lr], #-2336	; 0xfffff6e0
    582c:	49555f00 	ldmdbmi	r5, {r8, r9, sl, fp, ip, lr}^
    5830:	3436544e 	ldrtcc	r5, [r6], #-1102	; 0xfffffbb2
    5834:	445f545f 	ldrbmi	r5, [pc], #-1119	; 583c <_Min_Stack_Size+0x543c>
    5838:	414c4345 	cmpmi	ip, r5, asr #6
    583c:	20444552 	subcs	r4, r4, r2, asr r5
    5840:	4d545300 	ldclmi	3, cr5, [r4, #-0]
    5844:	31463233 	cmpcc	r6, r3, lsr r2
    5848:	36433330 			; <UNDEFINED> instruction: 0x36433330
    584c:	31207854 			; <UNDEFINED> instruction: 0x31207854
    5850:	6d655f00 	stclvs	15, cr5, [r5, #-0]
    5854:	65677265 	strbvs	r7, [r7, #-613]!	; 0xfffffd9b
    5858:	0079636e 	rsbseq	r6, r9, lr, ror #6
    585c:	49545845 	ldmdbmi	r4, {r0, r2, r6, fp, ip, lr}^
    5860:	00362036 	eorseq	r2, r6, r6, lsr r0
    5864:	454e5f5f 	strbmi	r5, [lr, #-3935]	; 0xfffff0a1
    5868:	42494c57 	submi	r4, r9, #22272	; 0x5700
    586c:	4e494d5f 	mcrmi	13, 2, r4, cr9, cr15, {2}
    5870:	5f5f524f 	svcpl	0x005f524f
    5874:	5f003020 	svcpl	0x00003020
    5878:	41454c5f 	cmpmi	r5, pc, asr ip
    587c:	20385453 	eorscs	r5, r8, r3, asr r4
    5880:	22686822 	rsbcs	r6, r8, #2228224	; 0x220000
    5884:	54584500 	ldrbpl	r4, [r8], #-1280	; 0xfffffb00
    5888:	495f3549 	ldmdbmi	pc, {r0, r3, r6, r8, sl, ip, sp}^	; <UNPREDICTABLE>
    588c:	32205152 	eorcc	r5, r0, #-2147483628	; 0x80000014
    5890:	535f0033 	cmppl	pc, #51	; 0x33
    5894:	54455a49 	strbpl	r5, [r5], #-2633	; 0xfffff5b7
    5898:	5f00205f 	svcpl	0x0000205f
    589c:	544c465f 	strbpl	r4, [ip], #-1631	; 0xfffff9a1
    58a0:	485f3436 	ldmdami	pc, {r1, r2, r4, r5, sl, ip, sp}^	; <UNPREDICTABLE>
    58a4:	515f5341 	cmppl	pc, r1, asr #6
    58a8:	54454955 	strbpl	r4, [r5], #-2389	; 0xfffff6ab
    58ac:	4e414e5f 	mcrmi	14, 2, r4, cr1, cr15, {2}
    58b0:	31205f5f 			; <UNDEFINED> instruction: 0x31205f5f
    58b4:	4e495500 	cdpmi	5, 4, cr5, cr9, cr0, {0}
    58b8:	5f323354 	svcpl	0x00323354
    58bc:	29782843 	ldmdbcs	r8!, {r0, r1, r6, fp, sp}^
    58c0:	555f5f20 	ldrbpl	r5, [pc, #-3872]	; 49a8 <_Min_Stack_Size+0x45a8>
    58c4:	33544e49 	cmpcc	r4, #1168	; 0x490
    58c8:	28435f32 	stmdacs	r3, {r1, r4, r5, r8, r9, sl, fp, ip, lr}^
    58cc:	45002978 	strmi	r2, [r0, #-2424]	; 0xfffff688
    58d0:	5f495458 	svcpl	0x00495458
    58d4:	454e494c 	strbmi	r4, [lr, #-2380]	; 0xfffff6b4
    58d8:	505f3031 	subspl	r3, pc, r1, lsr r0	; <UNPREDICTABLE>
    58dc:	20303142 	eorscs	r3, r0, r2, asr #2
    58e0:	54584528 	ldrbpl	r4, [r8], #-1320	; 0xfffffad8
    58e4:	50475f49 	subpl	r5, r7, r9, asr #30
    58e8:	4d5f4f49 	ldclmi	15, cr4, [pc, #-292]	; 57cc <_Min_Stack_Size+0x53cc>
    58ec:	69707061 	ldmdbvs	r0!, {r0, r5, r6, ip, sp, lr}^
    58f0:	745f676e 	ldrbvc	r6, [pc], #-1902	; 58f8 <_Min_Stack_Size+0x54f8>
    58f4:	58457b29 	stmdapl	r5, {r0, r3, r5, r8, r9, fp, ip, sp, lr}^
    58f8:	30314954 	eorscc	r4, r1, r4, asr r9
    58fc:	5047202c 	subpl	r2, r7, ip, lsr #32
    5900:	2c424f49 	mcrrcs	15, 4, r4, r2, cr9
    5904:	49504720 	ldmdbmi	r0, {r5, r8, r9, sl, lr}^
    5908:	49505f4f 	ldmdbmi	r0, {r0, r1, r2, r3, r6, r8, r9, sl, fp, ip, lr}^
    590c:	30315f4e 	eorscc	r5, r1, lr, asr #30
    5910:	5845202c 	stmdapl	r5, {r2, r3, r5, sp}^
    5914:	30314954 	eorscc	r4, r1, r4, asr r9
    5918:	5152495f 	cmppl	r2, pc, asr r9
    591c:	5845007d 	stmdapl	r5, {r0, r2, r3, r4, r5, r6}^
    5920:	495f4954 	ldmdbmi	pc, {r2, r4, r6, r8, fp, lr}^	; <UNPREDICTABLE>
    5924:	455f5152 	ldrbmi	r5, [pc, #-338]	; 57da <_Min_Stack_Size+0x53da>
    5928:	6c62616e 	stfvse	f6, [r2], #-440	; 0xfffffe48
    592c:	00312065 	eorseq	r2, r1, r5, rrx
    5930:	4c555f5f 	mrrcmi	15, 5, r5, r5, cr15	; <UNPREDICTABLE>
    5934:	4343414c 	movtmi	r4, #12620	; 0x314c
    5938:	4d5f4d55 	ldclmi	13, cr4, [pc, #-340]	; 57ec <_Min_Stack_Size+0x53ec>
    593c:	5f5f5841 	svcpl	0x005f5841
    5940:	46583020 	ldrbmi	r3, [r8], -r0, lsr #32
    5944:	46464646 	strbmi	r4, [r6], -r6, asr #12
    5948:	46464646 	strbmi	r4, [r6], -r6, asr #12
    594c:	46464646 	strbmi	r4, [r6], -r6, asr #12
    5950:	50464646 	subpl	r4, r6, r6, asr #12
    5954:	5532332d 	ldrpl	r3, [r2, #-813]!	; 0xfffffcd3
    5958:	004b4c4c 	subeq	r4, fp, ip, asr #24
    595c:	49545845 	ldmdbmi	r4, {r0, r2, r6, fp, ip, lr}^
    5960:	4e494c5f 	mcrmi	12, 2, r4, cr9, cr15, {2}
    5964:	505f3645 	subspl	r3, pc, r5, asr #12
    5968:	28203641 	stmdacs	r0!, {r0, r6, r9, sl, ip, sp}
    596c:	49545845 	ldmdbmi	r4, {r0, r2, r6, fp, ip, lr}^
    5970:	4950475f 	ldmdbmi	r0, {r0, r1, r2, r3, r4, r6, r8, r9, sl, lr}^
    5974:	614d5f4f 	cmpvs	sp, pc, asr #30
    5978:	6e697070 	mcrvs	0, 3, r7, cr9, cr0, {3}
    597c:	29745f67 	ldmdbcs	r4!, {r0, r1, r2, r5, r6, r8, r9, sl, fp, ip, lr}^
    5980:	5458457b 	ldrbpl	r4, [r8], #-1403	; 0xfffffa85
    5984:	202c3649 	eorcs	r3, ip, r9, asr #12
    5988:	4f495047 	svcmi	0x00495047
    598c:	47202c41 	strmi	r2, [r0, -r1, asr #24]!
    5990:	5f4f4950 	svcpl	0x004f4950
    5994:	5f4e4950 	svcpl	0x004e4950
    5998:	45202c36 	strmi	r2, [r0, #-3126]!	; 0xfffff3ca
    599c:	36495458 			; <UNDEFINED> instruction: 0x36495458
    59a0:	5152495f 	cmppl	r2, pc, asr r9
    59a4:	5f5f007d 	svcpl	0x005f007d
    59a8:	43415355 	movtmi	r5, #4949	; 0x1355
    59ac:	5f4d5543 	svcpl	0x004d5543
    59b0:	54494249 	strbpl	r4, [r9], #-585	; 0xfffffdb7
    59b4:	38205f5f 	stmdacc	r0!, {r0, r1, r2, r3, r4, r6, r8, r9, sl, fp, ip, lr}
    59b8:	555f5f00 	ldrbpl	r5, [pc, #-3840]	; 4ac0 <_Min_Stack_Size+0x46c0>
    59bc:	465f4144 	ldrbmi	r4, [pc], -r4, asr #2
    59c0:	5f544942 	svcpl	0x00544942
    59c4:	3233205f 	eorscc	r2, r3, #95	; 0x5f
    59c8:	465f5f00 	ldrbmi	r5, [pc], -r0, lsl #30
    59cc:	3436544c 	ldrtcc	r5, [r6], #-1100	; 0xfffffbb4
    59d0:	5341485f 	movtpl	r4, #6239	; 0x185f
    59d4:	4e45445f 	mcrmi	4, 2, r4, cr5, cr15, {2}
    59d8:	5f4d524f 	svcpl	0x004d524f
    59dc:	0031205f 	eorseq	r2, r1, pc, asr r0
    59e0:	4c465f5f 	mcrrmi	15, 5, r5, r6, cr15
    59e4:	49445f54 	stmdbmi	r4, {r2, r4, r6, r8, r9, sl, fp, ip, lr}^
    59e8:	205f5f47 	subscs	r5, pc, r7, asr #30
    59ec:	5f5f0036 	svcpl	0x005f0036
    59f0:	544e4955 	strbpl	r4, [lr], #-2389	; 0xfffff6ab
    59f4:	5f58414d 	svcpl	0x0058414d
    59f8:	45505954 	ldrbmi	r5, [r0, #-2388]	; 0xfffff6ac
    59fc:	6c205f5f 	stcvs	15, cr5, [r0], #-380	; 0xfffffe84
    5a00:	20676e6f 	rsbcs	r6, r7, pc, ror #28
    5a04:	676e6f6c 	strbvs	r6, [lr, -ip, ror #30]!
    5a08:	736e7520 	cmnvc	lr, #32, 10	; 0x8000000
    5a0c:	656e6769 	strbvs	r6, [lr, #-1897]!	; 0xfffff897
    5a10:	6e692064 	cdpvs	0, 6, cr2, cr9, cr4, {3}
    5a14:	575f0074 			; <UNDEFINED> instruction: 0x575f0074
    5a18:	52414843 	subpl	r4, r1, #4390912	; 0x430000
    5a1c:	445f545f 	ldrbmi	r5, [pc], #-1119	; 5a24 <_Min_Stack_Size+0x5624>
    5a20:	414c4345 	cmpmi	ip, r5, asr #6
    5a24:	20444552 	subcs	r4, r4, r2, asr r5
    5a28:	544e4900 	strbpl	r4, [lr], #-2304	; 0xfffff700
    5a2c:	5341465f 	movtpl	r4, #5727	; 0x165f
    5a30:	5f363154 	svcpl	0x00363154
    5a34:	2058414d 	subscs	r4, r8, sp, asr #2
    5a38:	495f5f28 	ldmdbmi	pc, {r3, r5, r8, r9, sl, fp, ip, lr}^	; <UNPREDICTABLE>
    5a3c:	465f544e 	ldrbmi	r5, [pc], -lr, asr #8
    5a40:	31545341 	cmpcc	r4, r1, asr #6
    5a44:	414d5f36 	cmpmi	sp, r6, lsr pc
    5a48:	295f5f58 	ldmdbcs	pc, {r3, r4, r6, r8, r9, sl, fp, ip, lr}^	; <UNPREDICTABLE>
    5a4c:	59535f00 	ldmdbpl	r3, {r8, r9, sl, fp, ip, lr}^
    5a50:	45525f53 	ldrbmi	r5, [r2, #-3923]	; 0xfffff0ad
    5a54:	5f544e45 	svcpl	0x00544e45
    5a58:	00205f48 	eoreq	r5, r0, r8, asr #30
    5a5c:	4c465f5f 	mcrrmi	15, 5, r5, r6, cr15
    5a60:	56455f54 			; <UNDEFINED> instruction: 0x56455f54
    5a64:	4d5f4c41 	ldclmi	12, cr4, [pc, #-260]	; 5968 <_Min_Stack_Size+0x5568>
    5a68:	4f485445 	svcmi	0x00485445
    5a6c:	205f5f44 	subscs	r5, pc, r4, asr #30
    5a70:	5f5f0030 	svcpl	0x005f0030
    5a74:	5f746e69 	svcpl	0x00746e69
    5a78:	74736166 	ldrbtvc	r6, [r3], #-358	; 0xfffffe9a
    5a7c:	745f3631 	ldrbvc	r3, [pc], #-1585	; 5a84 <_Min_Stack_Size+0x5684>
    5a80:	6665645f 			; <UNDEFINED> instruction: 0x6665645f
    5a84:	64656e69 	strbtvs	r6, [r5], #-3689	; 0xfffff197
    5a88:	5f003120 	svcpl	0x00003120
    5a8c:	4843535f 	stmdami	r3, {r0, r1, r2, r3, r4, r6, r8, r9, ip, lr}^
    5a90:	4d5f5241 	lfmmi	f5, 2, [pc, #-260]	; 5994 <_Min_Stack_Size+0x5594>
    5a94:	5f5f5841 	svcpl	0x005f5841
    5a98:	37783020 	ldrbcc	r3, [r8, -r0, lsr #32]!
    5a9c:	5f5f0066 	svcpl	0x005f0066
    5aa0:	5f544e49 	svcpl	0x00544e49
    5aa4:	54534146 	ldrbpl	r4, [r3], #-326	; 0xfffffeba
    5aa8:	49575f38 	ldmdbmi	r7, {r3, r4, r5, r8, r9, sl, fp, ip, lr}^
    5aac:	5f485444 	svcpl	0x00485444
    5ab0:	3233205f 	eorscc	r2, r3, #95	; 0x5f
    5ab4:	535f5f00 	cmppl	pc, #0, 30
    5ab8:	5f434454 	svcpl	0x00434454
    5abc:	5f465455 	svcpl	0x00465455
    5ac0:	5f5f3631 	svcpl	0x005f3631
    5ac4:	5f003120 	svcpl	0x00003120
    5ac8:	444e4152 	strbmi	r4, [lr], #-338	; 0xfffffeae
    5acc:	4d5f3834 	ldclmi	8, cr3, [pc, #-208]	; 5a04 <_Min_Stack_Size+0x5604>
    5ad0:	5f544c55 	svcpl	0x00544c55
    5ad4:	30282032 	eorcc	r2, r8, r2, lsr r0
    5ad8:	30303078 	eorscc	r3, r0, r8, ror r0
    5adc:	5f002935 	svcpl	0x00002935
    5ae0:	4e454552 	mcrmi	5, 2, r4, cr5, cr2, {2}
    5ae4:	48435f54 	stmdami	r3, {r2, r4, r6, r8, r9, sl, fp, ip, lr}^
    5ae8:	5f4b4345 	svcpl	0x004b4345
    5aec:	4353494d 	cmpmi	r3, #1261568	; 0x134000
    5af0:	72617628 	rsbvc	r7, r1, #40, 12	; 0x2800000
    5af4:	525f2029 	subspl	r2, pc, #41	; 0x29
    5af8:	544e4545 	strbpl	r4, [lr], #-1349	; 0xfffffabb
    5afc:	4548435f 	strbmi	r4, [r8, #-863]	; 0xfffffca1
    5b00:	76284b43 	strtvc	r4, [r8], -r3, asr #22
    5b04:	202c7261 	eorcs	r7, ip, r1, ror #4
    5b08:	73696d5f 	cmnvc	r9, #6080	; 0x17c0
    5b0c:	73202c63 			; <UNDEFINED> instruction: 0x73202c63
    5b10:	63757274 	cmnvs	r5, #116, 4	; 0x40000007
    5b14:	6d5f2074 	ldclvs	0, cr2, [pc, #-464]	; 594c <_Min_Stack_Size+0x554c>
    5b18:	5f637369 	svcpl	0x00637369
    5b1c:	6e656572 	mcrvs	5, 3, r6, cr5, cr2, {3}
    5b20:	2c2a2074 	stccs	0, cr2, [sl], #-464	; 0xfffffe30
    5b24:	7a697320 	bvc	1a627ac <_Min_Stack_Size+0x1a623ac>
    5b28:	20666f65 	rsbcs	r6, r6, r5, ror #30
    5b2c:	7628282a 	strtvc	r2, [r8], -sl, lsr #16
    5b30:	2d297261 	sfmcs	f7, 4, [r9, #-388]!	; 0xfffffe7c
    5b34:	696d5f3e 	stmdbvs	sp!, {r1, r2, r3, r4, r5, r8, r9, sl, fp, ip, lr}^
    5b38:	2c296373 	stccs	3, cr6, [r9], #-460	; 0xfffffe34
    5b3c:	45525f20 	ldrbmi	r5, [r2, #-3872]	; 0xfffff0e0
    5b40:	5f544e45 	svcpl	0x00544e45
    5b44:	54494e49 	strbpl	r4, [r9], #-3657	; 0xfffff1b7
    5b48:	53494d5f 	movtpl	r4, #40287	; 0x9d5f
    5b4c:	61762843 	cmnvs	r6, r3, asr #16
    5b50:	00292972 	eoreq	r2, r9, r2, ror r9
    5b54:	505f545f 	subspl	r5, pc, pc, asr r4	; <UNPREDICTABLE>
    5b58:	49445254 	stmdbmi	r4, {r2, r4, r6, r9, ip, lr}^
    5b5c:	00204646 	eoreq	r4, r0, r6, asr #12
    5b60:	7263775f 	rsbvc	r7, r3, #24903680	; 0x17c0000
    5b64:	626d6f74 	rsbvs	r6, sp, #116, 30	; 0x1d0
    5b68:	6174735f 	cmnvs	r4, pc, asr r3
    5b6c:	47006574 	smlsdxmi	r0, r4, r5, r6
    5b70:	5f4f4950 	svcpl	0x004f4950
    5b74:	45444f4d 	strbmi	r4, [r4, #-3917]	; 0xfffff0b3
    5b78:	504e495f 	subpl	r4, lr, pc, asr r9
    5b7c:	505f5455 	subspl	r5, pc, r5, asr r4	; <UNPREDICTABLE>
    5b80:	78302055 	ldmdavc	r0!, {r0, r2, r4, r6, sp}
    5b84:	30303030 	eorscc	r3, r0, r0, lsr r0
    5b88:	32303030 	eorscc	r3, r0, #48	; 0x30
    5b8c:	6e690075 	mcrvs	0, 3, r0, cr9, cr5, {3}
    5b90:	322b2074 	eorcc	r2, fp, #116	; 0x74
    5b94:	445f5f00 	ldrbmi	r5, [pc], #-3840	; 5b9c <_Min_Stack_Size+0x579c>
    5b98:	34364345 	ldrtcc	r4, [r6], #-837	; 0xfffffcbb
    5b9c:	4e494d5f 	mcrmi	13, 2, r4, cr9, cr15, {2}
    5ba0:	5058455f 	subspl	r4, r8, pc, asr r5
    5ba4:	28205f5f 	stmdacs	r0!, {r0, r1, r2, r3, r4, r6, r8, r9, sl, fp, ip, lr}
    5ba8:	3238332d 	eorscc	r3, r8, #-1275068416	; 0xb4000000
    5bac:	5f5f0029 	svcpl	0x005f0029
    5bb0:	43434155 	movtmi	r4, #12629	; 0x3155
    5bb4:	4d5f4d55 	ldclmi	13, cr4, [pc, #-340]	; 5a68 <_Min_Stack_Size+0x5668>
    5bb8:	5f5f5841 	svcpl	0x005f5841
    5bbc:	46583020 	ldrbmi	r3, [r8], -r0, lsr #32
    5bc0:	46464646 	strbmi	r4, [r6], -r6, asr #12
    5bc4:	50464646 	subpl	r4, r6, r6, asr #12
    5bc8:	5536312d 	ldrpl	r3, [r6, #-301]!	; 0xfffffed3
    5bcc:	5f5f004b 	svcpl	0x005f004b
    5bd0:	6c6c756e 	cfstr64vs	mvdx7, [ip], #-440	; 0xfffffe48
    5bd4:	6e65735f 	mcrvs	3, 3, r7, cr5, cr15, {2}
    5bd8:	656e6974 	strbvs	r6, [lr, #-2420]!	; 0xfffff68c
    5bdc:	5f5f206c 	svcpl	0x005f206c
    5be0:	72747461 	rsbsvc	r7, r4, #1627389952	; 0x61000000
    5be4:	74756269 	ldrbtvc	r6, [r5], #-617	; 0xfffffd97
    5be8:	285f5f65 	ldmdacs	pc, {r0, r2, r5, r6, r8, r9, sl, fp, ip, lr}^	; <UNPREDICTABLE>
    5bec:	735f5f28 	cmpvc	pc, #40, 30	; 0xa0
    5bf0:	69746e65 	ldmdbvs	r4!, {r0, r2, r5, r6, r9, sl, fp, sp, lr}^
    5bf4:	5f6c656e 	svcpl	0x006c656e
    5bf8:	0029295f 	eoreq	r2, r9, pc, asr r9
    5bfc:	4545525f 	strbmi	r5, [r5, #-607]	; 0xfffffda1
    5c00:	575f544e 	ldrbpl	r5, [pc, -lr, asr #8]
    5c04:	4d4f5443 	cfstrdmi	mvd5, [pc, #-268]	; 5b00 <_Min_Stack_Size+0x5700>
    5c08:	54535f42 	ldrbpl	r5, [r3], #-3906	; 0xfffff0be
    5c0c:	28455441 	stmdacs	r5, {r0, r6, sl, ip, lr}^
    5c10:	29727470 	ldmdbcs	r2!, {r4, r5, r6, sl, ip, sp, lr}^
    5c14:	70282820 	eorvc	r2, r8, r0, lsr #16
    5c18:	2d297274 	sfmcs	f7, 4, [r9, #-464]!	; 0xfffffe30
    5c1c:	696d5f3e 	stmdbvs	sp!, {r1, r2, r3, r4, r5, r8, r9, sl, fp, ip, lr}^
    5c20:	3e2d6373 	mcrcc	3, 1, r6, cr13, cr3, {3}
    5c24:	7463775f 	strbtvc	r7, [r3], #-1887	; 0xfffff8a1
    5c28:	5f626d6f 	svcpl	0x00626d6f
    5c2c:	74617473 	strbtvc	r7, [r1], #-1139	; 0xfffffb8d
    5c30:	5f002965 	svcpl	0x00002965
    5c34:	5f6d745f 	svcpl	0x006d745f
    5c38:	7961646d 	stmdbvc	r1!, {r0, r2, r3, r5, r6, sl, sp, lr}^
    5c3c:	61686300 	cmnvs	r8, r0, lsl #6
    5c40:	302b2072 	eorcc	r2, fp, r2, ror r0
    5c44:	6c6c6100 	stfvse	f6, [ip], #-0
    5c48:	0061636f 	rsbeq	r6, r1, pc, ror #6
    5c4c:	464c5f5f 			; <UNDEFINED> instruction: 0x464c5f5f
    5c50:	54434152 	strbpl	r4, [r3], #-338	; 0xfffffeae
    5c54:	58414d5f 	stmdapl	r1, {r0, r1, r2, r3, r4, r6, r8, sl, fp, lr}^
    5c58:	30205f5f 	eorcc	r5, r0, pc, asr pc
    5c5c:	46463758 			; <UNDEFINED> instruction: 0x46463758
    5c60:	46464646 	strbmi	r4, [r6], -r6, asr #12
    5c64:	332d5046 			; <UNDEFINED> instruction: 0x332d5046
    5c68:	00524c31 	subseq	r4, r2, r1, lsr ip
    5c6c:	49535f5f 	ldmdbmi	r3, {r0, r1, r2, r3, r4, r6, r8, r9, sl, fp, ip, lr}^
    5c70:	464f455a 			; <UNDEFINED> instruction: 0x464f455a
    5c74:	5254505f 	subspl	r5, r4, #95	; 0x5f
    5c78:	46464944 	strbmi	r4, [r6], -r4, asr #18
    5c7c:	5f5f545f 	svcpl	0x005f545f
    5c80:	45003420 	strmi	r3, [r0, #-1056]	; 0xfffffbe0
    5c84:	31495458 	cmpcc	r9, r8, asr r4
    5c88:	31312031 	teqcc	r1, r1, lsr r0
    5c8c:	575f5f00 	ldrbpl	r5, [pc, -r0, lsl #30]
    5c90:	52414843 	subpl	r4, r1, #4390912	; 0x430000
    5c94:	5f5f545f 	svcpl	0x005f545f
    5c98:	5f5f0020 	svcpl	0x005f0020
    5c9c:	746e695f 	strbtvc	r6, [lr], #-2399	; 0xfffff6a1
    5ca0:	61656c5f 	cmnvs	r5, pc, asr ip
    5ca4:	5f387473 	svcpl	0x00387473
    5ca8:	65645f74 	strbvs	r5, [r4, #-3956]!	; 0xfffff08c
    5cac:	656e6966 	strbvs	r6, [lr, #-2406]!	; 0xfffff69a
    5cb0:	00312064 	eorseq	r2, r1, r4, rrx
    5cb4:	52415f5f 	subpl	r5, r1, #380	; 0x17c
    5cb8:	45465f4d 	strbmi	r5, [r6, #-3917]	; 0xfffff0b3
    5cbc:	52555441 	subspl	r5, r5, #1090519040	; 0x41000000
    5cc0:	44495f45 	strbmi	r5, [r9], #-3909	; 0xfffff0bb
    5cc4:	31205649 			; <UNDEFINED> instruction: 0x31205649
    5cc8:	62755f00 	rsbsvs	r5, r5, #0, 30
    5ccc:	5f006675 	svcpl	0x00006675
    5cd0:	4f4c465f 	svcmi	0x004c465f
    5cd4:	575f5441 	ldrbpl	r5, [pc, -r1, asr #8]
    5cd8:	5f44524f 	svcpl	0x0044524f
    5cdc:	4544524f 	strbmi	r5, [r4, #-591]	; 0xfffffdb1
    5ce0:	205f5f52 	subscs	r5, pc, r2, asr pc	; <UNPREDICTABLE>
    5ce4:	524f5f5f 	subpl	r5, pc, #380	; 0x17c
    5ce8:	5f524544 	svcpl	0x00524544
    5cec:	5454494c 	ldrbpl	r4, [r4], #-2380	; 0xfffff6b4
    5cf0:	455f454c 	ldrbmi	r4, [pc, #-1356]	; 57ac <_Min_Stack_Size+0x53ac>
    5cf4:	4149444e 	cmpmi	r9, lr, asr #8
    5cf8:	005f5f4e 	subseq	r5, pc, lr, asr #30
    5cfc:	49545845 	ldmdbmi	r4, {r0, r2, r6, fp, ip, lr}^
    5d00:	4e494c5f 	mcrmi	12, 2, r4, cr9, cr15, {2}
    5d04:	505f3845 	subspl	r3, pc, r5, asr #16
    5d08:	28203841 	stmdacs	r0!, {r0, r6, fp, ip, sp}
    5d0c:	49545845 	ldmdbmi	r4, {r0, r2, r6, fp, ip, lr}^
    5d10:	4950475f 	ldmdbmi	r0, {r0, r1, r2, r3, r4, r6, r8, r9, sl, lr}^
    5d14:	614d5f4f 	cmpvs	sp, pc, asr #30
    5d18:	6e697070 	mcrvs	0, 3, r7, cr9, cr0, {3}
    5d1c:	29745f67 	ldmdbcs	r4!, {r0, r1, r2, r5, r6, r8, r9, sl, fp, ip, lr}^
    5d20:	5458457b 	ldrbpl	r4, [r8], #-1403	; 0xfffffa85
    5d24:	202c3849 	eorcs	r3, ip, r9, asr #16
    5d28:	4f495047 	svcmi	0x00495047
    5d2c:	47202c41 	strmi	r2, [r0, -r1, asr #24]!
    5d30:	5f4f4950 	svcpl	0x004f4950
    5d34:	5f4e4950 	svcpl	0x004e4950
    5d38:	45202c38 	strmi	r2, [r0, #-3128]!	; 0xfffff3c8
    5d3c:	38495458 	stmdacc	r9, {r3, r4, r6, sl, ip, lr}^
    5d40:	5152495f 	cmppl	r2, pc, asr r9
    5d44:	4e49007d 	mcrmi	0, 2, r0, cr9, cr13, {3}
    5d48:	58414d54 	stmdapl	r1, {r2, r4, r6, r8, sl, fp, lr}^
    5d4c:	4e494d5f 	mcrmi	13, 2, r4, cr9, cr15, {2}
    5d50:	492d2820 	pushmi	{r5, fp, sp}
    5d54:	414d544e 	cmpmi	sp, lr, asr #8
    5d58:	414d5f58 	cmpmi	sp, r8, asr pc
    5d5c:	202d2058 	eorcs	r2, sp, r8, asr r0
    5d60:	5f002931 	svcpl	0x00002931
    5d64:	5f434347 	svcpl	0x00434347
    5d68:	41484357 	cmpmi	r8, r7, asr r3
    5d6c:	20545f52 	subscs	r5, r4, r2, asr pc
    5d70:	54584500 	ldrbpl	r4, [r8], #-1280	; 0xfffffb00
    5d74:	494c5f49 	stmdbmi	ip, {r0, r3, r6, r8, r9, sl, fp, ip, lr}^
    5d78:	5f32454e 	svcpl	0x0032454e
    5d7c:	20324250 	eorscs	r4, r2, r0, asr r2
    5d80:	54584528 	ldrbpl	r4, [r8], #-1320	; 0xfffffad8
    5d84:	50475f49 	subpl	r5, r7, r9, asr #30
    5d88:	4d5f4f49 	ldclmi	15, cr4, [pc, #-292]	; 5c6c <_Min_Stack_Size+0x586c>
    5d8c:	69707061 	ldmdbvs	r0!, {r0, r5, r6, ip, sp, lr}^
    5d90:	745f676e 	ldrbvc	r6, [pc], #-1902	; 5d98 <_Min_Stack_Size+0x5998>
    5d94:	58457b29 	stmdapl	r5, {r0, r3, r5, r8, r9, fp, ip, sp, lr}^
    5d98:	2c324954 			; <UNDEFINED> instruction: 0x2c324954
    5d9c:	49504720 	ldmdbmi	r0, {r5, r8, r9, sl, lr}^
    5da0:	202c424f 	eorcs	r4, ip, pc, asr #4
    5da4:	4f495047 	svcmi	0x00495047
    5da8:	4e49505f 	mcrmi	0, 2, r5, cr9, cr15, {2}
    5dac:	202c325f 	eorcs	r3, ip, pc, asr r2
    5db0:	49545845 	ldmdbmi	r4, {r0, r2, r6, fp, ip, lr}^
    5db4:	52495f32 	subpl	r5, r9, #50, 30	; 0xc8
    5db8:	5f007d51 	svcpl	0x00007d51
    5dbc:	6c6e755f 	cfstr64vs	mvdx7, [lr], #-380	; 0xfffffe84
    5dc0:	736b636f 	cmnvc	fp, #-1140850687	; 0xbc000001
    5dc4:	2e2e2e28 	cdpcs	14, 2, cr2, cr14, cr8, {1}
    5dc8:	5f5f2029 	svcpl	0x005f2029
    5dcc:	6b636f6c 	blvs	18e1b84 <_Min_Stack_Size+0x18e1784>
    5dd0:	6e6e615f 	mcrvs	1, 3, r6, cr14, cr15, {2}
    5dd4:	7461746f 	strbtvc	r7, [r1], #-1135	; 0xfffffb91
    5dd8:	6e752865 	cdpvs	8, 7, cr2, cr5, cr5, {3}
    5ddc:	6b636f6c 	blvs	18e1b94 <_Min_Stack_Size+0x18e1794>
    5de0:	6e75665f 	mrcvs	6, 3, r6, cr5, cr15, {2}
    5de4:	6f697463 	svcvs	0x00697463
    5de8:	5f5f286e 	svcpl	0x005f286e
    5dec:	415f4156 	cmpmi	pc, r6, asr r1	; <UNPREDICTABLE>
    5df0:	5f534752 	svcpl	0x00534752
    5df4:	0029295f 	eoreq	r2, r9, pc, asr r9
    5df8:	58455f5f 	stmdapl	r5, {r0, r1, r2, r3, r4, r6, r8, r9, sl, fp, ip, lr}^
    5dfc:	54524f50 	ldrbpl	r4, [r2], #-3920	; 0xfffff0b0
    5e00:	5f5f0020 	svcpl	0x005f0020
    5e04:	5f4d5241 	svcpl	0x004d5241
    5e08:	54414546 	strbpl	r4, [r1], #-1350	; 0xfffffaba
    5e0c:	5f455255 	svcpl	0x00455255
    5e10:	52504f43 	subspl	r4, r0, #268	; 0x10c
    5e14:	3120434f 			; <UNDEFINED> instruction: 0x3120434f
    5e18:	5f5f0035 	svcpl	0x005f0035
    5e1c:	4f53424f 	svcmi	0x0053424f
    5e20:	4554454c 	ldrbmi	r4, [r4, #-1356]	; 0xfffffab4
    5e24:	54414d5f 	strbpl	r4, [r1], #-3423	; 0xfffff2a1
    5e28:	45445f48 	strbmi	r5, [r4, #-3912]	; 0xfffff0b8
    5e2c:	4c554146 	ldfmie	f4, [r5], {70}	; 0x46
    5e30:	00312054 	eorseq	r2, r1, r4, asr r0
    5e34:	73626d5f 	cmnvc	r2, #6080	; 0x17c0
    5e38:	65746174 	ldrbvs	r6, [r4, #-372]!	; 0xfffffe8c
    5e3c:	535f5f00 	cmppl	pc, #0, 30
    5e40:	49534343 	ldmdbmi	r3, {r0, r1, r6, r8, r9, lr}^
    5e44:	29732844 	ldmdbcs	r3!, {r2, r6, fp, sp}^
    5e48:	72747320 	rsbsvc	r7, r4, #32, 6	; 0x80000000
    5e4c:	20746375 	rsbscs	r6, r4, r5, ror r3
    5e50:	61685f5f 	cmnvs	r8, pc, asr pc
    5e54:	5f006b63 	svcpl	0x00006b63
    5e58:	5248535f 	subpl	r5, r8, #2080374785	; 0x7c000001
    5e5c:	49575f54 	ldmdbmi	r7, {r2, r4, r6, r8, r9, sl, fp, ip, lr}^
    5e60:	5f485444 	svcpl	0x00485444
    5e64:	3631205f 			; <UNDEFINED> instruction: 0x3631205f
    5e68:	4f5f5f00 	svcmi	0x005f5f00
    5e6c:	52454452 	subpl	r4, r5, #1375731712	; 0x52000000
    5e70:	5044505f 	subpl	r5, r4, pc, asr r0
    5e74:	444e455f 	strbmi	r4, [lr], #-1375	; 0xfffffaa1
    5e78:	5f4e4149 	svcpl	0x004e4149
    5e7c:	3433205f 	ldrtcc	r2, [r3], #-95	; 0xffffffa1
    5e80:	5f003231 	svcpl	0x00003231
    5e84:	646e6172 	strbtvs	r6, [lr], #-370	; 0xfffffe8e
    5e88:	78656e5f 	stmdavc	r5!, {r0, r1, r2, r3, r4, r6, r9, sl, fp, sp, lr}^
    5e8c:	5f5f0074 	svcpl	0x005f0074
    5e90:	31434544 	cmpcc	r3, r4, asr #10
    5e94:	4d5f3832 	ldclmi	8, cr3, [pc, #-200]	; 5dd4 <_Min_Stack_Size+0x59d4>
    5e98:	455f5841 	ldrbmi	r5, [pc, #-2113]	; 565f <_Min_Stack_Size+0x525f>
    5e9c:	5f5f5058 	svcpl	0x005f5058
    5ea0:	34313620 	ldrtcc	r3, [r1], #-1568	; 0xfffff9e0
    5ea4:	665f0035 			; <UNDEFINED> instruction: 0x665f0035
    5ea8:	7367616c 	cmnvc	r7, #108, 2
    5eac:	495f5f00 	ldmdbmi	pc, {r8, r9, sl, fp, ip, lr}^	; <UNPREDICTABLE>
    5eb0:	524f504d 	subpl	r5, pc, #77	; 0x4d
    5eb4:	5f002054 	svcpl	0x00002054
    5eb8:	444e4152 	strbmi	r4, [lr], #-338	; 0xfffffeae
    5ebc:	535f3834 	cmppl	pc, #52, 16	; 0x340000
    5ec0:	5f444545 	svcpl	0x00444545
    5ec4:	30282032 	eorcc	r2, r8, r2, lsr r0
    5ec8:	33323178 	teqcc	r2, #120, 2
    5ecc:	5f002934 	svcpl	0x00002934
    5ed0:	44525450 	ldrbmi	r5, [r2], #-1104	; 0xfffffbb0
    5ed4:	5f464649 	svcpl	0x00464649
    5ed8:	45445f54 	strbmi	r5, [r4, #-3924]	; 0xfffff0ac
    5edc:	52414c43 	subpl	r4, r1, #17152	; 0x4300
    5ee0:	00204445 	eoreq	r4, r0, r5, asr #8
    5ee4:	53555f5f 	cmppl	r5, #380	; 0x17c
    5ee8:	42465f41 	submi	r5, r6, #260	; 0x104
    5eec:	5f5f5449 	svcpl	0x005f5449
    5ef0:	00363120 	eorseq	r3, r6, r0, lsr #2
    5ef4:	6f765f5f 	svcvs	0x00765f5f
    5ef8:	6974616c 	ldmdbvs	r4!, {r2, r3, r5, r6, r8, sp, lr}^
    5efc:	7620656c 	strtvc	r6, [r0], -ip, ror #10
    5f00:	74616c6f 	strbtvc	r6, [r1], #-3183	; 0xfffff391
    5f04:	00656c69 	rsbeq	r6, r5, r9, ror #24
    5f08:	45495f5f 	strbmi	r5, [r9, #-3935]	; 0xfffff0a1
    5f0c:	4c5f4545 	cfldr64mi	mvdx4, [pc], {69}	; 0x45
    5f10:	4c545449 	cfldrdmi	mvd5, [r4], {73}	; 0x49
    5f14:	4e455f45 	cdpmi	15, 4, cr5, cr5, cr5, {2}
    5f18:	4e414944 	vmlsmi.f16	s9, s2, s8	; <UNPREDICTABLE>
    5f1c:	5f5f0020 	svcpl	0x005f0020
    5f20:	4c42444c 	cfstrdmi	mvd4, [r2], {76}	; 0x4c
    5f24:	4e494d5f 	mcrmi	13, 2, r4, cr9, cr15, {2}
    5f28:	5f30315f 	svcpl	0x0030315f
    5f2c:	5f505845 	svcpl	0x00505845
    5f30:	2d28205f 	stccs	0, cr2, [r8, #-380]!	; 0xfffffe84
    5f34:	29373033 	ldmdbcs	r7!, {r0, r1, r4, r5, ip, sp}
    5f38:	465f5f00 	ldrbmi	r5, [pc], -r0, lsl #30
    5f3c:	485f544c 	ldmdami	pc, {r2, r3, r6, sl, ip, lr}^	; <UNPREDICTABLE>
    5f40:	515f5341 	cmppl	pc, r1, asr #6
    5f44:	54454955 	strbpl	r4, [r5], #-2389	; 0xfffff6ab
    5f48:	4e414e5f 	mcrmi	14, 2, r4, cr1, cr15, {2}
    5f4c:	31205f5f 			; <UNDEFINED> instruction: 0x31205f5f
    5f50:	54584500 	ldrbpl	r4, [r8], #-1280	; 0xfffffb00
    5f54:	494c5f49 	stmdbmi	ip, {r0, r3, r6, r8, r9, sl, fp, ip, lr}^
    5f58:	5f31454e 	svcpl	0x0031454e
    5f5c:	20314450 	eorscs	r4, r1, r0, asr r4
    5f60:	54584528 	ldrbpl	r4, [r8], #-1320	; 0xfffffad8
    5f64:	50475f49 	subpl	r5, r7, r9, asr #30
    5f68:	4d5f4f49 	ldclmi	15, cr4, [pc, #-292]	; 5e4c <_Min_Stack_Size+0x5a4c>
    5f6c:	69707061 	ldmdbvs	r0!, {r0, r5, r6, ip, sp, lr}^
    5f70:	745f676e 	ldrbvc	r6, [pc], #-1902	; 5f78 <_Min_Stack_Size+0x5b78>
    5f74:	58457b29 	stmdapl	r5, {r0, r3, r5, r8, r9, fp, ip, sp, lr}^
    5f78:	2c314954 			; <UNDEFINED> instruction: 0x2c314954
    5f7c:	49504720 	ldmdbmi	r0, {r5, r8, r9, sl, lr}^
    5f80:	202c444f 	eorcs	r4, ip, pc, asr #8
    5f84:	4f495047 	svcmi	0x00495047
    5f88:	4e49505f 	mcrmi	0, 2, r5, cr9, cr15, {2}
    5f8c:	202c315f 	eorcs	r3, ip, pc, asr r1
    5f90:	49545845 	ldmdbmi	r4, {r0, r2, r6, fp, ip, lr}^
    5f94:	52495f31 	subpl	r5, r9, #49, 30	; 0xc4
    5f98:	5f007d51 	svcpl	0x00007d51
    5f9c:	4343475f 	movtmi	r4, #14175	; 0x375f
    5fa0:	4f54415f 	svcmi	0x0054415f
    5fa4:	5f43494d 	svcpl	0x0043494d
    5fa8:	52414843 	subpl	r4, r1, #4390912	; 0x430000
    5fac:	434f4c5f 	movtmi	r4, #64607	; 0xfc5f
    5fb0:	52465f4b 	subpl	r5, r6, #300	; 0x12c
    5fb4:	32204545 	eorcc	r4, r0, #289406976	; 0x11400000
    5fb8:	41535500 	cmpmi	r3, r0, lsl #10
    5fbc:	5f335452 	svcpl	0x00335452
    5fc0:	20515249 	subscs	r5, r1, r9, asr #4
    5fc4:	5f003933 	svcpl	0x00003933
    5fc8:	52464c5f 	subpl	r4, r6, #24320	; 0x5f00
    5fcc:	5f544341 	svcpl	0x00544341
    5fd0:	49535045 	ldmdbmi	r3, {r0, r2, r6, ip, lr}^
    5fd4:	5f4e4f4c 	svcpl	0x004e4f4c
    5fd8:	7830205f 	ldmdavc	r0!, {r0, r1, r2, r3, r4, r6, sp}
    5fdc:	332d5031 			; <UNDEFINED> instruction: 0x332d5031
    5fe0:	00524c31 	subseq	r4, r2, r1, lsr ip
    5fe4:	72705f5f 	rsbsvc	r5, r0, #380	; 0x17c
    5fe8:	63696465 	cmnvs	r9, #1694498816	; 0x65000000
    5fec:	61665f74 	smcvs	26100	; 0x65f4
    5ff0:	2865736c 	stmdacs	r5!, {r2, r3, r5, r6, r8, r9, ip, sp, lr}^
    5ff4:	29707865 	ldmdbcs	r0!, {r0, r2, r5, r6, fp, ip, sp, lr}^
    5ff8:	625f5f20 	subsvs	r5, pc, #32, 30	; 0x80
    5ffc:	746c6975 	strbtvc	r6, [ip], #-2421	; 0xfffff68b
    6000:	655f6e69 	ldrbvs	r6, [pc, #-3689]	; 519f <_Min_Stack_Size+0x4d9f>
    6004:	63657078 	cmnvs	r5, #120	; 0x78
    6008:	65282874 	strvs	r2, [r8, #-2164]!	; 0xfffff78c
    600c:	2c297078 	stccs	0, cr7, [r9], #-480	; 0xfffffe20
    6010:	00293020 	eoreq	r3, r9, r0, lsr #32
    6014:	4745425f 	smlsldmi	r4, r5, pc, r2	; <UNPREDICTABLE>
    6018:	535f4e49 	cmppl	pc, #1168	; 0x490
    601c:	435f4454 	cmpmi	pc, #84, 8	; 0x54000000
    6020:	525f0020 	subspl	r0, pc, #32
    6024:	544e4545 	strbpl	r4, [lr], #-1349	; 0xfffffabb
    6028:	4548435f 	strbmi	r4, [r8, #-863]	; 0xfffffca1
    602c:	415f4b43 	cmpmi	pc, r3, asr #22
    6030:	49544353 	ldmdbmi	r4, {r0, r1, r4, r6, r8, r9, lr}^
    6034:	425f454d 	subsmi	r4, pc, #322961408	; 0x13400000
    6038:	76284655 			; <UNDEFINED> instruction: 0x76284655
    603c:	20297261 	eorcs	r7, r9, r1, ror #4
    6040:	4545525f 	strbmi	r5, [r5, #-607]	; 0xfffffda1
    6044:	435f544e 	cmpmi	pc, #1308622848	; 0x4e000000
    6048:	4b434548 	blmi	10d7570 <_Min_Stack_Size+0x10d7170>
    604c:	72617628 	rsbvc	r7, r1, #40, 12	; 0x2800000
    6050:	615f202c 	cmpvs	pc, ip, lsr #32
    6054:	69746373 	ldmdbvs	r4!, {r0, r1, r4, r5, r6, r8, r9, sp, lr}^
    6058:	625f656d 	subsvs	r6, pc, #457179136	; 0x1b400000
    605c:	202c6675 	eorcs	r6, ip, r5, ror r6
    6060:	72616863 	rsbvc	r6, r1, #6488064	; 0x630000
    6064:	202c2a20 	eorcs	r2, ip, r0, lsr #20
    6068:	4545525f 	strbmi	r5, [r5, #-607]	; 0xfffffda1
    606c:	415f544e 	cmpmi	pc, lr, asr #8
    6070:	49544353 	ldmdbmi	r4, {r0, r1, r4, r6, r8, r9, lr}^
    6074:	535f454d 	cmppl	pc, #322961408	; 0x13400000
    6078:	2c455a49 	mcrrcs	10, 4, r5, r5, cr9
    607c:	6d656d20 	stclvs	13, cr6, [r5, #-128]!	; 0xffffff80
    6080:	28746573 	ldmdacs	r4!, {r0, r1, r4, r5, r6, r8, sl, sp, lr}^
    6084:	72617628 	rsbvc	r7, r1, #40, 12	; 0x2800000
    6088:	5f3e2d29 	svcpl	0x003e2d29
    608c:	74637361 	strbtvc	r7, [r3], #-865	; 0xfffffc9f
    6090:	5f656d69 	svcpl	0x00656d69
    6094:	2c667562 	cfstr64cs	mvdx7, [r6], #-392	; 0xfffffe78
    6098:	202c3020 	eorcs	r3, ip, r0, lsr #32
    609c:	4545525f 	strbmi	r5, [r5, #-607]	; 0xfffffda1
    60a0:	415f544e 	cmpmi	pc, lr, asr #8
    60a4:	49544353 	ldmdbmi	r4, {r0, r1, r4, r6, r8, r9, lr}^
    60a8:	535f454d 	cmppl	pc, #322961408	; 0x13400000
    60ac:	29455a49 	stmdbcs	r5, {r0, r3, r6, r9, fp, ip, lr}^
    60b0:	58450029 	stmdapl	r5, {r0, r3, r5}^
    60b4:	4c5f4954 	mrrcmi	9, 5, r4, pc, cr4	; <UNPREDICTABLE>
    60b8:	35454e49 	strbcc	r4, [r5, #-3657]	; 0xfffff1b7
    60bc:	3541505f 	strbcc	r5, [r1, #-95]	; 0xffffffa1
    60c0:	58452820 	stmdapl	r5, {r5, fp, sp}^
    60c4:	475f4954 			; <UNDEFINED> instruction: 0x475f4954
    60c8:	5f4f4950 	svcpl	0x004f4950
    60cc:	7070614d 	rsbsvc	r6, r0, sp, asr #2
    60d0:	5f676e69 	svcpl	0x00676e69
    60d4:	457b2974 	ldrbmi	r2, [fp, #-2420]!	; 0xfffff68c
    60d8:	35495458 	strbcc	r5, [r9, #-1112]	; 0xfffffba8
    60dc:	5047202c 	subpl	r2, r7, ip, lsr #32
    60e0:	2c414f49 	mcrrcs	15, 4, r4, r1, cr9
    60e4:	49504720 	ldmdbmi	r0, {r5, r8, r9, sl, lr}^
    60e8:	49505f4f 	ldmdbmi	r0, {r0, r1, r2, r3, r6, r8, r9, sl, fp, ip, lr}^
    60ec:	2c355f4e 	ldccs	15, cr5, [r5], #-312	; 0xfffffec8
    60f0:	54584520 	ldrbpl	r4, [r8], #-1312	; 0xfffffae0
    60f4:	495f3549 	ldmdbmi	pc, {r0, r3, r6, r8, sl, ip, sp}^	; <UNPREDICTABLE>
    60f8:	007d5152 	rsbseq	r5, sp, r2, asr r1
    60fc:	52415f5f 	subpl	r5, r1, #380	; 0x17c
    6100:	49535f4d 	ldmdbmi	r3, {r0, r2, r3, r6, r8, r9, sl, fp, ip, lr}^
    6104:	464f455a 			; <UNDEFINED> instruction: 0x464f455a
    6108:	4e494d5f 	mcrmi	13, 2, r4, cr9, cr15, {2}
    610c:	4c414d49 	mcrrmi	13, 4, r4, r1, cr9
    6110:	554e455f 	strbpl	r4, [lr, #-1375]	; 0xfffffaa1
    6114:	0031204d 	eorseq	r2, r1, sp, asr #32
    6118:	4349564e 	movtmi	r5, #38478	; 0x964e
    611c:	5152495f 	cmppl	r2, pc, asr r9
    6120:	555f3733 	ldrbpl	r3, [pc, #-1843]	; 59f5 <_Min_Stack_Size+0x55f5>
    6124:	54524153 	ldrbpl	r4, [r2], #-339	; 0xfffffead
    6128:	6e455f31 	mcrvs	15, 2, r5, cr5, cr1, {1}
    612c:	656c6261 	strbvs	r6, [ip, #-609]!	; 0xfffffd9f
    6130:	28202928 	stmdacs	r0!, {r3, r5, r8, fp, sp}
    6134:	4349564e 	movtmi	r5, #38478	; 0x964e
    6138:	4553495f 	ldrbmi	r4, [r3, #-2399]	; 0xfffff6a1
    613c:	7c203152 	stfvcs	f3, [r0], #-328	; 0xfffffeb8
    6140:	2028203d 	eorcs	r2, r8, sp, lsr r0
    6144:	3c3c2031 	ldccc	0, cr2, [ip], #-196	; 0xffffff3c
    6148:	53552820 	cmppl	r5, #32, 16	; 0x200000
    614c:	31545241 	cmpcc	r4, r1, asr #4
    6150:	5152495f 	cmppl	r2, pc, asr r9
    6154:	2932332d 	ldmdbcs	r2!, {r0, r2, r3, r5, r8, r9, ip, sp}
    6158:	00292920 	eoreq	r2, r9, r0, lsr #18
    615c:	72615f5f 	rsbvc	r5, r1, #380	; 0x17c
    6160:	205f5f6d 	subscs	r5, pc, sp, ror #30
    6164:	50470031 	subpl	r0, r7, r1, lsr r0
    6168:	5152495f 	cmppl	r2, pc, asr r9
    616c:	6c61435f 	stclvs	3, cr4, [r1], #-380	; 0xfffffe84
    6170:	6361426c 	cmnvs	r1, #108, 4	; 0xc0000006
    6174:	525f006b 	subspl	r0, pc, #107	; 0x6b
    6178:	544e4545 	strbpl	r4, [lr], #-1349	; 0xfffffabb
    617c:	414d535f 	cmpmi	sp, pc, asr r3
    6180:	435f4c4c 	cmpmi	pc, #76, 24	; 0x4c00
    6184:	4b434548 	blmi	10d76ac <_Min_Stack_Size+0x10d72ac>
    6188:	494e495f 	stmdbmi	lr, {r0, r1, r2, r3, r4, r6, r8, fp, lr}^
    618c:	74702854 	ldrbtvc	r2, [r0], #-2132	; 0xfffff7ac
    6190:	64202972 	strtvs	r2, [r0], #-2418	; 0xfffff68e
    6194:	207b206f 	rsbscs	r2, fp, pc, rrx
    6198:	28206669 	stmdacs	r0!, {r0, r3, r5, r6, r9, sl, sp, lr}
    619c:	72747028 	rsbsvc	r7, r4, #40	; 0x28
    61a0:	26262029 	strtcs	r2, [r6], -r9, lsr #32
    61a4:	70282120 	eorvc	r2, r8, r0, lsr #2
    61a8:	2d297274 	sfmcs	f7, 4, [r9, #-464]!	; 0xfffffe30
    61ac:	735f5f3e 	cmpvc	pc, #62, 30	; 0xf8
    61b0:	69646964 	stmdbvs	r4!, {r2, r5, r6, r8, fp, sp, lr}^
    61b4:	2974696e 	ldmdbcs	r4!, {r1, r2, r3, r5, r6, r8, fp, sp, lr}^
    61b8:	735f5f20 	cmpvc	pc, #32, 30	; 0x80
    61bc:	74696e69 	strbtvc	r6, [r9], #-3689	; 0xfffff197
    61c0:	74702820 	ldrbtvc	r2, [r0], #-2080	; 0xfffff7e0
    61c4:	203b2972 	eorscs	r2, fp, r2, ror r9
    61c8:	6877207d 	ldmdavs	r7!, {r0, r2, r3, r4, r5, r6, sp}^
    61cc:	20656c69 	rsbcs	r6, r5, r9, ror #24
    61d0:	00293028 	eoreq	r3, r9, r8, lsr #32
    61d4:	4c465f5f 	mcrrmi	15, 5, r5, r6, cr15
    61d8:	5f323354 	svcpl	0x00323354
    61dc:	5f4e494d 	svcpl	0x004e494d
    61e0:	455f3031 	ldrbmi	r3, [pc, #-49]	; 61b7 <_Min_Stack_Size+0x5db7>
    61e4:	5f5f5058 	svcpl	0x005f5058
    61e8:	332d2820 			; <UNDEFINED> instruction: 0x332d2820
    61ec:	5f002937 	svcpl	0x00002937
    61f0:	756f635f 	strbvc	r6, [pc, #-863]!	; 5e99 <_Min_Stack_Size+0x5a99>
    61f4:	5f00746e 	svcpl	0x0000746e
    61f8:	636f6c5f 	cmnvs	pc, #24320	; 0x5f00
    61fc:	72745f6b 	rsbsvc	r5, r4, #428	; 0x1ac
    6200:	63615f79 	cmnvs	r1, #484	; 0x1e4
    6204:	72697571 	rsbvc	r7, r9, #473956352	; 0x1c400000
    6208:	6f6c2865 	svcvs	0x006c2865
    620c:	20296b63 	eorcs	r6, r9, r3, ror #22
    6210:	6f762828 	svcvs	0x00762828
    6214:	20296469 	eorcs	r6, r9, r9, ror #8
    6218:	5f002930 	svcpl	0x00002930
    621c:	4f53495f 	svcmi	0x0053495f
    6220:	565f435f 			; <UNDEFINED> instruction: 0x565f435f
    6224:	42495349 	submi	r5, r9, #603979777	; 0x24000001
    6228:	3220454c 	eorcc	r4, r0, #76, 10	; 0x13000000
    622c:	00313130 	eorseq	r3, r1, r0, lsr r1
    6230:	52415f5f 	subpl	r5, r1, #380	; 0x17c
    6234:	50465f4d 	subpl	r5, r6, sp, asr #30
    6238:	465f3631 			; <UNDEFINED> instruction: 0x465f3631
    623c:	414d524f 	cmpmi	sp, pc, asr #4
    6240:	4c415f54 	mcrrmi	15, 5, r5, r1, cr4
    6244:	4e524554 	mrcmi	5, 2, r4, cr2, cr4, {2}
    6248:	56495441 	strbpl	r5, [r9], -r1, asr #8
    624c:	5f5f0045 	svcpl	0x005f0045
    6250:	44534246 	ldrbmi	r4, [r3], #-582	; 0xfffffdba
    6254:	73284449 			; <UNDEFINED> instruction: 0x73284449
    6258:	74732029 	ldrbtvc	r2, [r3], #-41	; 0xffffffd7
    625c:	74637572 	strbtvc	r7, [r3], #-1394	; 0xfffffa8e
    6260:	685f5f20 	ldmdavs	pc, {r5, r8, r9, sl, fp, ip, lr}^	; <UNPREDICTABLE>
    6264:	006b6361 	rsbeq	r6, fp, r1, ror #6
    6268:	45445f5f 	strbmi	r5, [r4, #-3935]	; 0xfffff0a1
    626c:	5f323343 	svcpl	0x00323343
    6270:	544e414d 	strbpl	r4, [lr], #-333	; 0xfffffeb3
    6274:	4749445f 	smlsldmi	r4, r9, pc, r4	; <UNPREDICTABLE>
    6278:	37205f5f 			; <UNDEFINED> instruction: 0x37205f5f
    627c:	49564e00 	ldmdbmi	r6, {r9, sl, fp, lr}^
    6280:	43495f43 	movtmi	r5, #40771	; 0x9f43
    6284:	20325245 	eorscs	r5, r2, r5, asr #4
    6288:	7628282a 	strtvc	r2, [r8], -sl, lsr #16
    628c:	74616c6f 	strbtvc	r6, [r1], #-3183	; 0xfffff391
    6290:	20656c69 	rsbcs	r6, r5, r9, ror #24
    6294:	746e6975 	strbtvc	r6, [lr], #-2421	; 0xfffff68b
    6298:	745f3233 	ldrbvc	r3, [pc], #-563	; 62a0 <_Min_Stack_Size+0x5ea0>
    629c:	20292a20 	eorcs	r2, r9, r0, lsr #20
    62a0:	4349564e 	movtmi	r5, #38478	; 0x964e
    62a4:	5341425f 	movtpl	r4, #4703	; 0x125f
    62a8:	202b2045 	eorcs	r2, fp, r5, asr #32
    62ac:	38387830 	ldmdacc	r8!, {r4, r5, fp, ip, sp, lr}
    62b0:	4e490029 	cdpmi	0, 4, cr0, cr9, cr9, {1}
    62b4:	41465f54 	cmpmi	r6, r4, asr pc
    62b8:	34365453 	ldrtcc	r5, [r6], #-1107	; 0xfffffbad
    62bc:	4e494d5f 	mcrmi	13, 2, r4, cr9, cr15, {2}
    62c0:	5f2d2820 	svcpl	0x002d2820
    62c4:	544e495f 	strbpl	r4, [lr], #-2399	; 0xfffff6a1
    62c8:	5341465f 	movtpl	r4, #5727	; 0x165f
    62cc:	5f343654 	svcpl	0x00343654
    62d0:	5f58414d 	svcpl	0x0058414d
    62d4:	202d205f 	eorcs	r2, sp, pc, asr r0
    62d8:	5f002931 	svcpl	0x00002931
    62dc:	4843414d 	stmdami	r3, {r0, r2, r3, r6, r8, lr}^
    62e0:	5f454e49 	svcpl	0x00454e49
    62e4:	4645445f 			; <UNDEFINED> instruction: 0x4645445f
    62e8:	544c5541 	strbpl	r5, [ip], #-1345	; 0xfffffabf
    62ec:	5059545f 	subspl	r5, r9, pc, asr r4
    62f0:	485f5345 	ldmdami	pc, {r0, r2, r6, r8, r9, ip, lr}^	; <UNPREDICTABLE>
    62f4:	5f5f0020 	svcpl	0x005f0020
    62f8:	47474942 	strbmi	r4, [r7, -r2, asr #18]
    62fc:	5f545345 	svcpl	0x00545345
    6300:	47494c41 	strbmi	r4, [r9, -r1, asr #24]
    6304:	4e454d4e 	cdpmi	13, 4, cr4, cr5, cr14, {2}
    6308:	205f5f54 	subscs	r5, pc, r4, asr pc	; <UNPREDICTABLE>
    630c:	5f5f0038 	svcpl	0x005f0038
    6310:	5f736168 	svcpl	0x00736168
    6314:	74616566 	strbtvc	r6, [r1], #-1382	; 0xfffffa9a
    6318:	28657275 	stmdacs	r5!, {r0, r2, r4, r5, r6, r9, ip, sp, lr}^
    631c:	30202978 	eorcc	r2, r0, r8, ror r9
    6320:	43475f00 	movtmi	r5, #32512	; 0x7f00
    6324:	54505f43 	ldrbpl	r5, [r0], #-3907	; 0xfffff0bd
    6328:	46494452 			; <UNDEFINED> instruction: 0x46494452
    632c:	20545f46 	subscs	r5, r4, r6, asr #30
    6330:	475f5f00 	ldrbmi	r5, [pc, -r0, lsl #30]
    6334:	4c43554e 	cfstr64mi	mvdx5, [r3], {78}	; 0x4e
    6338:	5f454b49 	svcpl	0x00454b49
    633c:	4c495542 	cfstr64mi	mvdx5, [r9], {66}	; 0x42
    6340:	5f4e4954 	svcpl	0x004e4954
    6344:	5458454e 	ldrbpl	r4, [r8], #-1358	; 0xfffffab2
    6348:	4752415f 			; <UNDEFINED> instruction: 0x4752415f
    634c:	5f003120 	svcpl	0x00003120
    6350:	5f41545f 	svcpl	0x0041545f
    6354:	54494249 	strbpl	r4, [r9], #-585	; 0xfffffdb7
    6358:	36205f5f 	qsaxcc	r5, r0, pc	; <UNPREDICTABLE>
    635c:	50470034 	subpl	r0, r7, r4, lsr r0
    6360:	5f444f49 	svcpl	0x00444f49
    6364:	45534142 	ldrbmi	r4, [r3, #-322]	; 0xfffffebe
    6368:	34783020 	ldrbtcc	r3, [r8], #-32	; 0xffffffe0
    636c:	31313030 	teqcc	r1, r0, lsr r0
    6370:	55303034 	ldrpl	r3, [r0, #-52]!	; 0xffffffcc
    6374:	5453004c 	ldrbpl	r0, [r3], #-76	; 0xffffffb4
    6378:	2032334d 	eorscs	r3, r2, sp, asr #6
    637c:	5f5f0031 	svcpl	0x005f0031
    6380:	444e4152 	strbmi	r4, [lr], #-338	; 0xfffffeae
    6384:	58414d5f 	stmdapl	r1, {r0, r1, r2, r3, r4, r6, r8, sl, fp, lr}^
    6388:	37783020 	ldrbcc	r3, [r8, -r0, lsr #32]!
    638c:	66666666 	strbtvs	r6, [r6], -r6, ror #12
    6390:	00666666 	rsbeq	r6, r6, r6, ror #12
    6394:	4f4c5f5f 	svcmi	0x004c5f5f
    6398:	495f4b43 	ldmdbmi	pc, {r0, r1, r6, r8, r9, fp, lr}^	; <UNPREDICTABLE>
    639c:	2854494e 	ldmdacs	r4, {r1, r2, r3, r6, r8, fp, lr}^
    63a0:	73616c63 	cmnvc	r1, #25344	; 0x6300
    63a4:	6f6c2c73 	svcvs	0x006c2c73
    63a8:	20296b63 	eorcs	r6, r9, r3, ror #22
    63ac:	74617473 	strbtvc	r7, [r1], #-1139	; 0xfffffb8d
    63b0:	69206369 	stmdbvs	r0!, {r0, r3, r5, r6, r8, r9, sp, lr}
    63b4:	6c20746e 	cfstrsvs	mvf7, [r0], #-440	; 0xfffffe48
    63b8:	206b636f 	rsbcs	r6, fp, pc, ror #6
    63bc:	3b30203d 	blcc	c0e4b8 <_Min_Stack_Size+0xc0e0b8>
    63c0:	54584500 	ldrbpl	r4, [r8], #-1280	; 0xfffffb00
    63c4:	34203449 	strtcc	r3, [r0], #-1097	; 0xfffffbb7
    63c8:	745f5f00 	ldrbvc	r5, [pc], #-3840	; 63d0 <_Min_Stack_Size+0x5fd0>
    63cc:	64775f6d 	ldrbtvs	r5, [r7], #-3949	; 0xfffff093
    63d0:	5f007961 	svcpl	0x00007961
    63d4:	4d52415f 	ldfmie	f4, [r2, #-380]	; 0xfffffe84
    63d8:	4145465f 	cmpmi	r5, pc, asr r6
    63dc:	45525554 	ldrbmi	r5, [r2, #-1364]	; 0xfffffaac
    63e0:	4452515f 	ldrbmi	r5, [r2], #-351	; 0xfffffea1
    63e4:	5f00584d 	svcpl	0x0000584d
    63e8:	4d52415f 	ldfmie	f4, [r2, #-380]	; 0xfffffe84
    63ec:	4352415f 	cmpmi	r2, #-1073741801	; 0xc0000017
    63f0:	53495f48 	movtpl	r5, #40776	; 0x9f48
    63f4:	48545f41 	ldmdami	r4, {r0, r6, r8, r9, sl, fp, ip, lr}^
    63f8:	20424d55 	subcs	r4, r2, r5, asr sp
    63fc:	5f5f0032 	svcpl	0x005f0032
    6400:	474e4f4c 	strbmi	r4, [lr, -ip, asr #30]
    6404:	4e4f4c5f 	mcrmi	12, 2, r4, cr15, cr15, {2}
    6408:	414d5f47 	cmpmi	sp, r7, asr #30
    640c:	205f5f58 	subscs	r5, pc, r8, asr pc	; <UNPREDICTABLE>
    6410:	66377830 			; <UNDEFINED> instruction: 0x66377830
    6414:	66666666 	strbtvs	r6, [r6], -r6, ror #12
    6418:	66666666 	strbtvs	r6, [r6], -r6, ror #12
    641c:	66666666 	strbtvs	r6, [r6], -r6, ror #12
    6420:	4c4c6666 	mcrrmi	6, 6, r6, ip, cr6
    6424:	43435200 	movtmi	r5, #12800	; 0x3200
    6428:	4950475f 	ldmdbmi	r0, {r0, r1, r2, r3, r4, r6, r8, r9, sl, lr}^
    642c:	435f444f 	cmpmi	pc, #1325400064	; 0x4f000000
    6430:	455f4b4c 	ldrbmi	r4, [pc, #-2892]	; 58ec <_Min_Stack_Size+0x54ec>
    6434:	2029284e 	eorcs	r2, r9, lr, asr #16
    6438:	43435228 	movtmi	r5, #12840	; 0x3228
    643c:	50413e2d 	subpl	r3, r1, sp, lsr #28
    6440:	4e453242 	cdpmi	2, 4, cr3, cr5, cr2, {2}
    6444:	3d7c2052 	ldclcc	0, cr2, [ip, #-328]!	; 0xfffffeb8
    6448:	3c312820 	ldccc	8, cr2, [r1], #-128	; 0xffffff80
    644c:	2929353c 	stmdbcs	r9!, {r2, r3, r4, r5, r8, sl, ip, sp}
    6450:	6c635f00 	stclvs	15, cr5, [r3], #-0
    6454:	0065736f 	rsbeq	r7, r5, pc, ror #6
    6458:	72615f5f 	rsbvc	r5, r1, #380	; 0x17c
    645c:	79745f67 	ldmdbvc	r4!, {r0, r1, r2, r5, r6, r8, r9, sl, fp, ip, lr}^
    6460:	745f6570 	ldrbvc	r6, [pc], #-1392	; 6468 <_Min_Stack_Size+0x6068>
    6464:	61286761 			; <UNDEFINED> instruction: 0x61286761
    6468:	6b5f6772 	blvs	17e0238 <_Min_Stack_Size+0x17dfe38>
    646c:	2c646e69 	stclcs	14, cr6, [r4], #-420	; 0xfffffe5c
    6470:	5f677261 	svcpl	0x00677261
    6474:	2c786469 	cfldrdcs	mvd6, [r8], #-420	; 0xfffffe5c
    6478:	65707974 	ldrbvs	r7, [r0, #-2420]!	; 0xfffff68c
    647c:	6761745f 			; <UNDEFINED> instruction: 0x6761745f
    6480:	7864695f 	stmdavc	r4!, {r0, r1, r2, r3, r4, r6, r8, fp, sp, lr}^
    6484:	5f002029 	svcpl	0x00002029
    6488:	5254535f 	subspl	r5, r4, #2080374785	; 0x7c000001
    648c:	28474e49 	stmdacs	r7, {r0, r3, r6, r9, sl, fp, lr}^
    6490:	23202978 			; <UNDEFINED> instruction: 0x23202978
    6494:	5f5f0078 	svcpl	0x005f0078
    6498:	795f6d74 	ldmdbvc	pc, {r2, r4, r5, r6, r8, sl, fp, sp, lr}^	; <UNPREDICTABLE>
    649c:	00796164 	rsbseq	r6, r9, r4, ror #2
    64a0:	726f6873 	rsbvc	r6, pc, #7536640	; 0x730000
    64a4:	525f0074 	subspl	r0, pc, #116	; 0x74
    64a8:	544e4545 	strbpl	r4, [lr], #-1349	; 0xfffffabb
    64ac:	494e495f 	stmdbmi	lr, {r0, r1, r2, r3, r4, r6, r8, fp, lr}^
    64b0:	54505f54 	ldrbpl	r5, [r0], #-3924	; 0xfffff0ac
    64b4:	61762852 	cmnvs	r6, r2, asr r8
    64b8:	7b202972 	blvc	810a88 <_Min_Stack_Size+0x810688>
    64bc:	6d656d20 	stclvs	13, cr6, [r5, #-128]!	; 0xffffff80
    64c0:	28746573 	ldmdacs	r4!, {r0, r1, r4, r5, r6, r8, sl, sp, lr}^
    64c4:	72617628 	rsbvc	r7, r1, #40, 12	; 0x2800000
    64c8:	30202c29 	eorcc	r2, r0, r9, lsr #24
    64cc:	6973202c 	ldmdbvs	r3!, {r2, r3, r5, sp}^
    64d0:	666f657a 			; <UNDEFINED> instruction: 0x666f657a
    64d4:	76282a28 	strtvc	r2, [r8], -r8, lsr #20
    64d8:	29297261 	stmdbcs	r9!, {r0, r5, r6, r9, ip, sp, lr}
    64dc:	5f203b29 	svcpl	0x00203b29
    64e0:	4e454552 	mcrmi	5, 2, r4, cr5, cr2, {2}
    64e4:	4e495f54 	mcrmi	15, 2, r5, cr9, cr4, {2}
    64e8:	505f5449 	subspl	r5, pc, r9, asr #8
    64ec:	5a5f5254 	bpl	17dae44 <_Min_Stack_Size+0x17daa44>
    64f0:	454f5245 	strbmi	r5, [pc, #-581]	; 62b3 <_Min_Stack_Size+0x5eb3>
    64f4:	61762844 	cmnvs	r6, r4, asr #16
    64f8:	203b2972 	eorscs	r2, fp, r2, ror r9
    64fc:	5f5f007d 	svcpl	0x005f007d
    6500:	59504f43 	ldmdbpl	r0, {r0, r1, r6, r8, r9, sl, fp, lr}^
    6504:	48474952 	stmdami	r7, {r1, r4, r6, r8, fp, lr}^
    6508:	29732854 	ldmdbcs	r3!, {r2, r4, r6, fp, sp}^
    650c:	72747320 	rsbsvc	r7, r4, #32, 6	; 0x80000000
    6510:	20746375 	rsbscs	r6, r4, r5, ror r3
    6514:	61685f5f 	cmnvs	r8, pc, asr pc
    6518:	5f006b63 	svcpl	0x00006b63
    651c:	5246555f 	subpl	r5, r6, #398458880	; 0x17c00000
    6520:	5f544341 	svcpl	0x00544341
    6524:	54494249 	strbpl	r4, [r9], #-585	; 0xfffffdb7
    6528:	30205f5f 	eorcc	r5, r0, pc, asr pc
    652c:	415f5f00 	cmpmi	pc, r0, lsl #30
    6530:	335f4d52 	cmpcc	pc, #5248	; 0x1480
    6534:	54494232 	strbpl	r4, [r9], #-562	; 0xfffffdce
    6538:	4154535f 	cmpmi	r4, pc, asr r3
    653c:	31204554 			; <UNDEFINED> instruction: 0x31204554
    6540:	495f5f00 	ldmdbmi	pc, {r8, r9, sl, fp, ip, lr}^	; <UNPREDICTABLE>
    6544:	5f38544e 	svcpl	0x0038544e
    6548:	29632843 	stmdbcs	r3!, {r0, r1, r6, fp, sp}^
    654c:	5f006320 	svcpl	0x00006320
    6550:	52464c5f 	subpl	r4, r6, #24320	; 0x5f00
    6554:	5f544341 	svcpl	0x00544341
    6558:	54494249 	strbpl	r4, [r9], #-585	; 0xfffffdb7
    655c:	30205f5f 	eorcc	r5, r0, pc, asr pc
    6560:	54535f00 	ldrbpl	r5, [r3], #-3840	; 0xfffff100
    6564:	46454444 	strbmi	r4, [r5], -r4, asr #8
    6568:	205f485f 	subscs	r4, pc, pc, asr r8	; <UNPREDICTABLE>
    656c:	49504700 	ldmdbmi	r0, {r8, r9, sl, lr}^
    6570:	50535f4f 	subspl	r5, r3, pc, asr #30
    6574:	5f444545 	svcpl	0x00444545
    6578:	204d3031 	subcs	r3, sp, r1, lsr r0
    657c:	30307830 	eorscc	r7, r0, r0, lsr r8
    6580:	30303030 	eorscc	r3, r0, r0, lsr r0
    6584:	00753130 	rsbseq	r3, r5, r0, lsr r1
    6588:	42445f5f 	submi	r5, r4, #380	; 0x17c
    658c:	494d5f4c 	stmdbmi	sp, {r2, r3, r6, r8, r9, sl, fp, ip, lr}^
    6590:	58455f4e 	stmdapl	r5, {r1, r2, r3, r6, r8, r9, sl, fp, ip, lr}^
    6594:	205f5f50 	subscs	r5, pc, r0, asr pc	; <UNPREDICTABLE>
    6598:	30312d28 	eorscc	r2, r1, r8, lsr #26
    659c:	00293132 	eoreq	r3, r9, r2, lsr r1
    65a0:	49535f5f 	ldmdbmi	r3, {r0, r1, r2, r3, r4, r6, r8, r9, sl, fp, ip, lr}^
    65a4:	545f455a 	ldrbpl	r4, [pc], #-1370	; 65ac <_Min_Stack_Size+0x61ac>
    65a8:	43570020 	cmpmi	r7, #32
    65ac:	5f524148 	svcpl	0x00524148
    65b0:	2058414d 	subscs	r4, r8, sp, asr #2
    65b4:	575f5f28 	ldrbpl	r5, [pc, -r8, lsr #30]
    65b8:	52414843 	subpl	r4, r1, #4390912	; 0x430000
    65bc:	58414d5f 	stmdapl	r1, {r0, r1, r2, r3, r4, r6, r8, sl, fp, lr}^
    65c0:	00295f5f 	eoreq	r5, r9, pc, asr pc
    65c4:	5f434352 	svcpl	0x00434352
    65c8:	52415355 	subpl	r5, r1, #1409286145	; 0x54000001
    65cc:	435f3354 	cmpmi	pc, #84, 6	; 0x50000001
    65d0:	525f4b4c 	subspl	r4, pc, #76, 22	; 0x13000
    65d4:	74657365 	strbtvc	r7, [r5], #-869	; 0xfffffc9b
    65d8:	28202928 	stmdacs	r0!, {r3, r5, r8, fp, sp}
    65dc:	2d434352 	stclcs	3, cr4, [r3, #-328]	; 0xfffffeb8
    65e0:	4250413e 	subsmi	r4, r0, #-2147483633	; 0x8000000f
    65e4:	54535231 	ldrbpl	r5, [r3], #-561	; 0xfffffdcf
    65e8:	3d7c2052 	ldclcc	0, cr2, [ip, #-328]!	; 0xfffffeb8
    65ec:	3c312820 	ldccc	8, cr2, [r1], #-128	; 0xffffff80
    65f0:	2938313c 	ldmdbcs	r8!, {r2, r3, r4, r5, r8, ip, sp}
    65f4:	6c610029 	stclvs	0, cr0, [r1], #-164	; 0xffffff5c
    65f8:	61636f6c 	cmnvs	r3, ip, ror #30
    65fc:	7a697328 	bvc	1a632a4 <_Min_Stack_Size+0x1a62ea4>
    6600:	5f202965 	svcpl	0x00202965
    6604:	6975625f 	ldmdbvs	r5!, {r0, r1, r2, r3, r4, r6, r9, sp, lr}^
    6608:	6e69746c 	cdpvs	4, 6, cr7, cr9, cr12, {3}
    660c:	6c6c615f 	stfvse	f6, [ip], #-380	; 0xfffffe84
    6610:	2861636f 	stmdacs	r1!, {r0, r1, r2, r3, r5, r6, r8, r9, sp, lr}^
    6614:	657a6973 	ldrbvs	r6, [sl, #-2419]!	; 0xfffff68d
    6618:	735f0029 	cmpvc	pc, #41	; 0x29
    661c:	00646565 	rsbeq	r6, r4, r5, ror #10
    6620:	72705f5f 	rsbsvc	r5, r0, #380	; 0x17c
    6624:	66746e69 	ldrbtvs	r6, [r4], -r9, ror #28
    6628:	6b696c30 	blvs	1a616f0 <_Min_Stack_Size+0x1a612f0>
    662c:	6d662865 	stclvs	8, cr2, [r6, #-404]!	; 0xfffffe6c
    6630:	67726174 			; <UNDEFINED> instruction: 0x67726174
    6634:	7269662c 	rsbvc	r6, r9, #44, 12	; 0x2c00000
    6638:	61767473 	cmnvs	r6, r3, ror r4
    663c:	67726172 			; <UNDEFINED> instruction: 0x67726172
    6640:	4e002029 	cdpmi	0, 0, cr2, cr0, cr9, {1}
    6644:	5f434956 	svcpl	0x00434956
    6648:	33515249 	cmpcc	r1, #-1879048188	; 0x90000004
    664c:	53555f39 	cmppl	r5, #57, 30	; 0xe4
    6650:	33545241 	cmpcc	r4, #268435460	; 0x10000004
    6654:	7369445f 	cmnvc	r9, #1593835520	; 0x5f000000
    6658:	656c6261 	strbvs	r6, [ip, #-609]!	; 0xfffffd9f
    665c:	28202928 	stmdacs	r0!, {r3, r5, r8, fp, sp}
    6660:	4349564e 	movtmi	r5, #38478	; 0x964e
    6664:	4543495f 	strbmi	r4, [r3, #-2399]	; 0xfffff6a1
    6668:	7c203152 	stfvcs	f3, [r0], #-328	; 0xfffffeb8
    666c:	2028203d 	eorcs	r2, r8, sp, lsr r0
    6670:	3c3c2031 	ldccc	0, cr2, [ip], #-196	; 0xffffff3c
    6674:	53552820 	cmppl	r5, #32, 16	; 0x200000
    6678:	33545241 	cmpcc	r4, #268435460	; 0x10000004
    667c:	5152495f 	cmppl	r2, pc, asr r9
    6680:	2932332d 	ldmdbcs	r2!, {r0, r2, r3, r5, r8, r9, ip, sp}
    6684:	00292920 	eoreq	r2, r9, r0, lsr #18
    6688:	4d415253 	sfmmi	f5, 2, [r1, #-332]	; 0xfffffeb4
    668c:	6d654d5f 	stclvs	13, cr4, [r5, #-380]!	; 0xfffffe84
    6690:	5f79726f 	svcpl	0x0079726f
    6694:	45534142 	ldrbmi	r4, [r3, #-322]	; 0xfffffebe
    6698:	32783020 	rsbscc	r3, r8, #32
    669c:	30303030 	eorscc	r3, r0, r0, lsr r0
    66a0:	55303030 	ldrpl	r3, [r0, #-48]!	; 0xffffffd0
    66a4:	5f5f004c 	svcpl	0x005f004c
    66a8:	33544c46 	cmpcc	r4, #17920	; 0x4600
    66ac:	49445f32 	stmdbmi	r4, {r1, r4, r5, r8, r9, sl, fp, ip, lr}^
    66b0:	205f5f47 	subscs	r5, pc, r7, asr #30
    66b4:	735f0036 	cmpvc	pc, #54	; 0x36
    66b8:	006b6565 	rsbeq	r6, fp, r5, ror #10
    66bc:	65645f5f 	strbvs	r5, [r4, #-3935]!	; 0xfffff0a1
    66c0:	20326461 	eorscs	r6, r2, r1, ror #8
    66c4:	74615f5f 	strbtvc	r5, [r1], #-3935	; 0xfffff0a1
    66c8:	62697274 	rsbvs	r7, r9, #116, 4	; 0x40000007
    66cc:	5f657475 	svcpl	0x00657475
    66d0:	5f28285f 	svcpl	0x0028285f
    66d4:	726f6e5f 	rsbvc	r6, pc, #1520	; 0x5f0
    66d8:	72757465 	rsbsvc	r7, r5, #1694498816	; 0x65000000
    66dc:	295f5f6e 	ldmdbcs	pc, {r1, r2, r3, r5, r6, r8, r9, sl, fp, ip, lr}^	; <UNPREDICTABLE>
    66e0:	5f5f0029 	svcpl	0x005f0029
    66e4:	5341454c 	movtpl	r4, #5452	; 0x154c
    66e8:	20343654 	eorscs	r3, r4, r4, asr r6
    66ec:	226c6c22 	rsbcs	r6, ip, #8704	; 0x2200
    66f0:	45525f00 	ldrbmi	r5, [r2, #-3840]	; 0xfffff100
    66f4:	5f544e45 	svcpl	0x00544e45
    66f8:	525f504d 	subspl	r5, pc, #77	; 0x4d
    66fc:	4c555345 	mrrcmi	3, 4, r5, r5, cr5	; <UNPREDICTABLE>
    6700:	284b5f54 	stmdacs	fp, {r2, r4, r6, r8, r9, sl, fp, ip, lr}^
    6704:	29727470 	ldmdbcs	r2!, {r4, r5, r6, sl, ip, sp, lr}^
    6708:	70282820 	eorvc	r2, r8, r0, lsr #16
    670c:	2d297274 	sfmcs	f7, 4, [r9, #-464]!	; 0xfffffe30
    6710:	706d5f3e 	rsbvc	r5, sp, lr, lsr pc
    6714:	725f3e2d 	subsvc	r3, pc, #720	; 0x2d0
    6718:	6c757365 	ldclvs	3, cr7, [r5], #-404	; 0xfffffe6c
    671c:	296b5f74 	stmdbcs	fp!, {r2, r4, r5, r6, r8, r9, sl, fp, ip, lr}^
    6720:	635f5f00 	cmpvs	pc, #0, 30
    6724:	61706d6f 	cmnvs	r0, pc, ror #26
    6728:	6e665f72 	mcrvs	15, 3, r5, cr6, cr2, {3}
    672c:	645f745f 	ldrbvs	r7, [pc], #-1119	; 6734 <_Min_Stack_Size+0x6334>
    6730:	6e696665 	cdpvs	6, 6, cr6, cr9, cr5, {3}
    6734:	00206465 	eoreq	r6, r0, r5, ror #8
    6738:	544e4955 	strbpl	r4, [lr], #-2389	; 0xfffff6ab
    673c:	5f58414d 	svcpl	0x0058414d
    6740:	29782843 	ldmdbcs	r8!, {r0, r1, r6, fp, sp}^
    6744:	555f5f20 	ldrbpl	r5, [pc, #-3872]	; 582c <_Min_Stack_Size+0x542c>
    6748:	4d544e49 	ldclmi	14, cr4, [r4, #-292]	; 0xfffffedc
    674c:	435f5841 	cmpmi	pc, #4259840	; 0x410000
    6750:	00297828 	eoreq	r7, r9, r8, lsr #16
    6754:	494d5f5f 	stmdbmi	sp, {r0, r1, r2, r3, r4, r6, r8, r9, sl, fp, ip, lr}^
    6758:	565f4353 			; <UNDEFINED> instruction: 0x565f4353
    675c:	42495349 	submi	r5, r9, #603979777	; 0x24000001
    6760:	3120454c 			; <UNDEFINED> instruction: 0x3120454c
    6764:	455f5f00 	ldrbmi	r5, [pc, #-3840]	; 586c <_Min_Stack_Size+0x546c>
    6768:	5f005058 	svcpl	0x00005058
    676c:	736f7066 	cmnvc	pc, #102	; 0x66
    6770:	5f00745f 	svcpl	0x0000745f
    6774:	42444c5f 	submi	r4, r4, #24320	; 0x5f00
    6778:	41485f4c 	cmpmi	r8, ip, asr #30
    677c:	45445f53 	strbmi	r5, [r4, #-3923]	; 0xfffff0ad
    6780:	4d524f4e 	ldclmi	15, cr4, [r2, #-312]	; 0xfffffec8
    6784:	31205f5f 			; <UNDEFINED> instruction: 0x31205f5f
    6788:	535f5f00 	cmppl	pc, #0, 30
    678c:	55434341 	strbpl	r4, [r3, #-833]	; 0xfffffcbf
    6790:	42465f4d 	submi	r5, r6, #308	; 0x134
    6794:	5f5f5449 	svcpl	0x005f5449
    6798:	5f003720 	svcpl	0x00003720
    679c:	4343475f 	movtmi	r4, #14175	; 0x375f
    67a0:	5641485f 			; <UNDEFINED> instruction: 0x5641485f
    67a4:	59535f45 	ldmdbpl	r3, {r0, r2, r6, r8, r9, sl, fp, ip, lr}^
    67a8:	435f434e 	cmpmi	pc, #939524097	; 0x38000001
    67ac:	41504d4f 	cmpmi	r0, pc, asr #26
    67b0:	415f4552 	cmpmi	pc, r2, asr r5	; <UNPREDICTABLE>
    67b4:	535f444e 	cmppl	pc, #1308622848	; 0x4e000000
    67b8:	5f504157 	svcpl	0x00504157
    67bc:	00312034 	eorseq	r2, r1, r4, lsr r0
    67c0:	49545845 	ldmdbmi	r4, {r0, r2, r6, fp, ip, lr}^
    67c4:	00392039 	eorseq	r2, r9, r9, lsr r0
    67c8:	45425f5f 	strbmi	r5, [r2, #-3935]	; 0xfffff0a1
    67cc:	5f4e4947 	svcpl	0x004e4947
    67d0:	4c434544 	cfstr64mi	mvdx4, [r3], {68}	; 0x44
    67d4:	5f002053 	svcpl	0x00002053
    67d8:	4343415f 	movtmi	r4, #12639	; 0x315f
    67dc:	4d5f4d55 	ldclmi	13, cr4, [pc, #-340]	; 6690 <_Min_Stack_Size+0x6290>
    67e0:	5f5f4e49 	svcpl	0x005f4e49
    67e4:	302d2820 	eorcc	r2, sp, r0, lsr #16
    67e8:	31503158 	cmpcc	r0, r8, asr r1
    67ec:	302d4b35 	eorcc	r4, sp, r5, lsr fp
    67f0:	31503158 	cmpcc	r0, r8, asr r1
    67f4:	00294b35 	eoreq	r4, r9, r5, lsr fp
    67f8:	4e475f5f 	mcrmi	15, 2, r5, cr7, cr15, {2}
    67fc:	565f4355 			; <UNDEFINED> instruction: 0x565f4355
    6800:	494c5f41 	stmdbmi	ip, {r0, r6, r8, r9, sl, fp, ip, lr}^
    6804:	435f5453 	cmpmi	pc, #1392508928	; 0x53000000
    6808:	41504d4f 	cmpmi	r0, pc, asr #26
    680c:	49424954 	stmdbmi	r2, {r2, r4, r6, r8, fp, lr}^
    6810:	5954494c 	ldmdbpl	r4, {r2, r3, r6, r8, fp, lr}^
    6814:	5f003120 	svcpl	0x00003120
    6818:	4d52415f 	ldfmie	f4, [r2, #-380]	; 0xfffffe84
    681c:	4145465f 	cmpmi	r5, pc, asr r6
    6820:	45525554 	ldrbmi	r5, [r2, #-1364]	; 0xfffffaac
    6824:	5952435f 	ldmdbpl	r2, {r0, r1, r2, r3, r4, r6, r8, r9, lr}^
    6828:	004f5450 	subeq	r5, pc, r0, asr r4	; <UNPREDICTABLE>
    682c:	49535f5f 	ldmdbmi	r3, {r0, r1, r2, r3, r4, r6, r8, r9, sl, fp, ip, lr}^
    6830:	464f455a 			; <UNDEFINED> instruction: 0x464f455a
    6834:	4843575f 	stmdami	r3, {r0, r1, r2, r3, r4, r6, r8, r9, sl, ip, lr}^
    6838:	545f5241 	ldrbpl	r5, [pc], #-577	; 6840 <_Min_Stack_Size+0x6440>
    683c:	34205f5f 	strtcc	r5, [r0], #-3935	; 0xfffff0a1
    6840:	495f5f00 	ldmdbmi	pc, {r8, r9, sl, fp, ip, lr}^	; <UNPREDICTABLE>
    6844:	4c5f544e 	cfldrdmi	mvd5, [pc], {78}	; 0x4e
    6848:	54534145 	ldrbpl	r4, [r3], #-325	; 0xfffffebb
    684c:	545f3233 	ldrbpl	r3, [pc], #-563	; 6854 <_Min_Stack_Size+0x6454>
    6850:	5f455059 	svcpl	0x00455059
    6854:	6f6c205f 	svcvs	0x006c205f
    6858:	6920676e 	stmdbvs	r0!, {r1, r2, r3, r5, r6, r8, r9, sl, sp, lr}
    685c:	5f00746e 	svcpl	0x0000746e
    6860:	6f74626d 	svcvs	0x0074626d
    6864:	735f6377 	cmpvc	pc, #-603979775	; 0xdc000001
    6868:	65746174 	ldrbvs	r6, [r4, #-372]!	; 0xfffffe8c
    686c:	54584500 	ldrbpl	r4, [r8], #-1280	; 0xfffffb00
    6870:	494c5f49 	stmdbmi	ip, {r0, r3, r6, r8, r9, sl, fp, ip, lr}^
    6874:	3431454e 	ldrtcc	r4, [r1], #-1358	; 0xfffffab2
    6878:	3144505f 	qdaddcc	r5, pc, r4	; <UNPREDICTABLE>
    687c:	45282034 	strmi	r2, [r8, #-52]!	; 0xffffffcc
    6880:	5f495458 	svcpl	0x00495458
    6884:	4f495047 	svcmi	0x00495047
    6888:	70614d5f 	rsbvc	r4, r1, pc, asr sp
    688c:	676e6970 			; <UNDEFINED> instruction: 0x676e6970
    6890:	7b29745f 	blvc	a63a14 <_Min_Stack_Size+0xa63614>
    6894:	49545845 	ldmdbmi	r4, {r0, r2, r6, fp, ip, lr}^
    6898:	202c3431 	eorcs	r3, ip, r1, lsr r4
    689c:	4f495047 	svcmi	0x00495047
    68a0:	47202c44 	strmi	r2, [r0, -r4, asr #24]!
    68a4:	5f4f4950 	svcpl	0x004f4950
    68a8:	5f4e4950 	svcpl	0x004e4950
    68ac:	202c3431 	eorcs	r3, ip, r1, lsr r4
    68b0:	49545845 	ldmdbmi	r4, {r0, r2, r6, fp, ip, lr}^
    68b4:	495f3431 	ldmdbmi	pc, {r0, r4, r5, sl, ip, sp}^	; <UNPREDICTABLE>
    68b8:	007d5152 	rsbseq	r5, sp, r2, asr r1
    68bc:	49555f5f 	ldmdbmi	r5, {r0, r1, r2, r3, r4, r6, r8, r9, sl, fp, ip, lr}^
    68c0:	4c5f544e 	cfldrdmi	mvd5, [pc], {78}	; 0x4e
    68c4:	54534145 	ldrbpl	r4, [r3], #-325	; 0xfffffebb
    68c8:	4d5f3436 	cfldrdmi	mvd3, [pc, #-216]	; 67f8 <_Min_Stack_Size+0x63f8>
    68cc:	5f5f5841 	svcpl	0x005f5841
    68d0:	66783020 	ldrbtvs	r3, [r8], -r0, lsr #32
    68d4:	66666666 	strbtvs	r6, [r6], -r6, ror #12
    68d8:	66666666 	strbtvs	r6, [r6], -r6, ror #12
    68dc:	66666666 	strbtvs	r6, [r6], -r6, ror #12
    68e0:	55666666 	strbpl	r6, [r6, #-1638]!	; 0xfffff99a
    68e4:	5f004c4c 	svcpl	0x00004c4c
    68e8:	4152465f 	cmpmi	r2, pc, asr r6
    68ec:	495f5443 	ldmdbmi	pc, {r0, r1, r6, sl, ip, lr}^	; <UNPREDICTABLE>
    68f0:	5f544942 	svcpl	0x00544942
    68f4:	0030205f 	eorseq	r2, r0, pc, asr r0
    68f8:	49545845 	ldmdbmi	r4, {r0, r2, r6, fp, ip, lr}^
    68fc:	495f3131 	ldmdbmi	pc, {r0, r4, r5, r8, ip, sp}^	; <UNPREDICTABLE>
    6900:	34205152 	strtcc	r5, [r0], #-338	; 0xfffffeae
    6904:	46410030 			; <UNDEFINED> instruction: 0x46410030
    6908:	415f4f49 	cmpmi	pc, r9, asr #30
    690c:	5f4f4946 	svcpl	0x004f4946
    6910:	49545845 	ldmdbmi	r4, {r0, r2, r6, fp, ip, lr}^
    6914:	495f5243 	ldmdbmi	pc, {r0, r1, r6, r9, ip, lr}^	; <UNPREDICTABLE>
    6918:	7865646e 	stmdavc	r5!, {r1, r2, r3, r5, r6, sl, sp, lr}^
    691c:	4e5f5f00 	cdpmi	15, 5, cr5, cr15, cr0, {0}
    6920:	494c5745 	stmdbmi	ip, {r0, r2, r6, r8, r9, sl, ip, lr}^
    6924:	41505f42 	cmpmi	r0, r2, asr #30
    6928:	4c484354 	mcrrmi	3, 5, r4, r8, cr4
    692c:	4c455645 	mcrrmi	6, 4, r5, r5, cr5
    6930:	30205f5f 	eorcc	r5, r0, pc, asr pc
    6934:	54584500 	ldrbpl	r4, [r8], #-1280	; 0xfffffb00
    6938:	494c5f49 	stmdbmi	ip, {r0, r3, r6, r8, r9, sl, fp, ip, lr}^
    693c:	5f33454e 	svcpl	0x0033454e
    6940:	20334150 	eorscs	r4, r3, r0, asr r1
    6944:	54584528 	ldrbpl	r4, [r8], #-1320	; 0xfffffad8
    6948:	50475f49 	subpl	r5, r7, r9, asr #30
    694c:	4d5f4f49 	ldclmi	15, cr4, [pc, #-292]	; 6830 <_Min_Stack_Size+0x6430>
    6950:	69707061 	ldmdbvs	r0!, {r0, r5, r6, ip, sp, lr}^
    6954:	745f676e 	ldrbvc	r6, [pc], #-1902	; 695c <_Min_Stack_Size+0x655c>
    6958:	58457b29 	stmdapl	r5, {r0, r3, r5, r8, r9, fp, ip, sp, lr}^
    695c:	2c334954 			; <UNDEFINED> instruction: 0x2c334954
    6960:	49504720 	ldmdbmi	r0, {r5, r8, r9, sl, lr}^
    6964:	202c414f 	eorcs	r4, ip, pc, asr #2
    6968:	4f495047 	svcmi	0x00495047
    696c:	4e49505f 	mcrmi	0, 2, r5, cr9, cr15, {2}
    6970:	202c335f 	eorcs	r3, ip, pc, asr r3
    6974:	49545845 	ldmdbmi	r4, {r0, r2, r6, fp, ip, lr}^
    6978:	52495f33 	subpl	r5, r9, #51, 30	; 0xcc
    697c:	5f007d51 	svcpl	0x00007d51
    6980:	44524f5f 	ldrbmi	r4, [r2], #-3935	; 0xfffff0a1
    6984:	4c5f5245 	lfmmi	f5, 2, [pc], {69}	; 0x45
    6988:	4c545449 	cfldrdmi	mvd5, [r4], {73}	; 0x49
    698c:	4e455f45 	cdpmi	15, 4, cr5, cr5, cr5, {2}
    6990:	4e414944 	vmlsmi.f16	s9, s2, s8	; <UNPREDICTABLE>
    6994:	31205f5f 			; <UNDEFINED> instruction: 0x31205f5f
    6998:	00343332 	eorseq	r3, r4, r2, lsr r3
    699c:	69735f5f 	ldmdbvs	r3!, {r0, r1, r2, r3, r4, r6, r8, r9, sl, fp, ip, lr}^
    69a0:	745f657a 	ldrbvc	r6, [pc], #-1402	; 69a8 <_Min_Stack_Size+0x65a8>
    69a4:	435f5f00 	cmpmi	pc, #0, 30
    69a8:	55535f43 	ldrbpl	r5, [r3, #-3907]	; 0xfffff0bd
    69ac:	524f5050 	subpl	r5, pc, #80	; 0x50
    69b0:	495f5354 	ldmdbmi	pc, {r2, r4, r6, r8, r9, ip, lr}^	; <UNPREDICTABLE>
    69b4:	4e494c4e 	cdpmi	12, 4, cr4, cr9, cr14, {2}
    69b8:	00312045 	eorseq	r2, r1, r5, asr #32
    69bc:	4f445f5f 	svcmi	0x00445f5f
    69c0:	2c205354 	stccs	3, cr5, [r0], #-336	; 0xfffffeb0
    69c4:	2e2e2e20 	cdpcs	14, 2, cr2, cr14, cr0, {1}
    69c8:	445f5f00 	ldrbmi	r5, [pc], #-3840	; 69d0 <_Min_Stack_Size+0x65d0>
    69cc:	34364345 	ldrtcc	r4, [r6], #-837	; 0xfffffcbb
    69d0:	4e414d5f 	mcrmi	13, 2, r4, cr1, cr15, {2}
    69d4:	49445f54 	stmdbmi	r4, {r2, r4, r6, r8, r9, sl, fp, ip, lr}^
    69d8:	205f5f47 	subscs	r5, pc, r7, asr #30
    69dc:	5f003631 	svcpl	0x00003631
    69e0:	4e454552 	mcrmi	5, 2, r4, cr5, cr2, {2}
    69e4:	45475f54 	strbmi	r5, [r7, #-3924]	; 0xfffff0ac
    69e8:	54414454 	strbpl	r4, [r1], #-1108	; 0xfffffbac
    69ec:	52455f45 	subpl	r5, r5, #276	; 0x114
    69f0:	28505f52 	ldmdacs	r0, {r1, r4, r6, r8, r9, sl, fp, ip, lr}^
    69f4:	29727470 	ldmdbcs	r2!, {r4, r5, r6, sl, ip, sp, lr}^
    69f8:	28262820 	stmdacs	r6!, {r5, fp, sp}
    69fc:	72747028 	rsbsvc	r7, r4, #40	; 0x28
    6a00:	5f3e2d29 	svcpl	0x003e2d29
    6a04:	6373696d 	cmnvs	r3, #1785856	; 0x1b4000
    6a08:	675f3e2d 	ldrbvs	r3, [pc, -sp, lsr #28]
    6a0c:	61647465 	cmnvs	r4, r5, ror #8
    6a10:	655f6574 	ldrbvs	r6, [pc, #-1396]	; 64a4 <_Min_Stack_Size+0x60a4>
    6a14:	29297272 	stmdbcs	r9!, {r1, r4, r5, r6, r9, ip, sp, lr}
    6a18:	465f5f00 	ldrbmi	r5, [pc], -r0, lsl #30
    6a1c:	4d5f544c 	cfldrdmi	mvd5, [pc, #-304]	; 68f4 <_Min_Stack_Size+0x64f4>
    6a20:	315f4e49 	cmpcc	pc, r9, asr #28
    6a24:	58455f30 	stmdapl	r5, {r4, r5, r8, r9, sl, fp, ip, lr}^
    6a28:	205f5f50 	subscs	r5, pc, r0, asr pc	; <UNPREDICTABLE>
    6a2c:	37332d28 	ldrcc	r2, [r3, -r8, lsr #26]!
    6a30:	58450029 	stmdapl	r5, {r0, r3, r5}^
    6a34:	4c5f4954 	mrrcmi	9, 5, r4, pc, cr4	; <UNPREDICTABLE>
    6a38:	31454e49 	cmpcc	r5, r9, asr #28
    6a3c:	43505f31 	cmpmi	r0, #49, 30	; 0xc4
    6a40:	28203131 	stmdacs	r0!, {r0, r4, r5, r8, ip, sp}
    6a44:	49545845 	ldmdbmi	r4, {r0, r2, r6, fp, ip, lr}^
    6a48:	4950475f 	ldmdbmi	r0, {r0, r1, r2, r3, r4, r6, r8, r9, sl, lr}^
    6a4c:	614d5f4f 	cmpvs	sp, pc, asr #30
    6a50:	6e697070 	mcrvs	0, 3, r7, cr9, cr0, {3}
    6a54:	29745f67 	ldmdbcs	r4!, {r0, r1, r2, r5, r6, r8, r9, sl, fp, ip, lr}^
    6a58:	5458457b 	ldrbpl	r4, [r8], #-1403	; 0xfffffa85
    6a5c:	2c313149 	ldfcss	f3, [r1], #-292	; 0xfffffedc
    6a60:	49504720 	ldmdbmi	r0, {r5, r8, r9, sl, lr}^
    6a64:	202c434f 	eorcs	r4, ip, pc, asr #6
    6a68:	4f495047 	svcmi	0x00495047
    6a6c:	4e49505f 	mcrmi	0, 2, r5, cr9, cr15, {2}
    6a70:	2c31315f 	ldfcss	f3, [r1], #-380	; 0xfffffe84
    6a74:	54584520 	ldrbpl	r4, [r8], #-1312	; 0xfffffae0
    6a78:	5f313149 	svcpl	0x00313149
    6a7c:	7d515249 	lfmvc	f5, 2, [r1, #-292]	; 0xfffffedc
    6a80:	54584500 	ldrbpl	r4, [r8], #-1280	; 0xfffffb00
    6a84:	494c5f49 	stmdbmi	ip, {r0, r3, r6, r8, r9, sl, fp, ip, lr}^
    6a88:	5f32454e 	svcpl	0x0032454e
    6a8c:	20324450 	eorscs	r4, r2, r0, asr r4
    6a90:	54584528 	ldrbpl	r4, [r8], #-1320	; 0xfffffad8
    6a94:	50475f49 	subpl	r5, r7, r9, asr #30
    6a98:	4d5f4f49 	ldclmi	15, cr4, [pc, #-292]	; 697c <_Min_Stack_Size+0x657c>
    6a9c:	69707061 	ldmdbvs	r0!, {r0, r5, r6, ip, sp, lr}^
    6aa0:	745f676e 	ldrbvc	r6, [pc], #-1902	; 6aa8 <_Min_Stack_Size+0x66a8>
    6aa4:	58457b29 	stmdapl	r5, {r0, r3, r5, r8, r9, fp, ip, sp, lr}^
    6aa8:	2c324954 			; <UNDEFINED> instruction: 0x2c324954
    6aac:	49504720 	ldmdbmi	r0, {r5, r8, r9, sl, lr}^
    6ab0:	202c444f 	eorcs	r4, ip, pc, asr #8
    6ab4:	4f495047 	svcmi	0x00495047
    6ab8:	4e49505f 	mcrmi	0, 2, r5, cr9, cr15, {2}
    6abc:	202c325f 	eorcs	r3, ip, pc, asr r2
    6ac0:	49545845 	ldmdbmi	r4, {r0, r2, r6, fp, ip, lr}^
    6ac4:	52495f32 	subpl	r5, r9, #50, 30	; 0xc8
    6ac8:	5f007d51 	svcpl	0x00007d51
    6acc:	414c555f 	cmpmi	ip, pc, asr r5
    6ad0:	4d554343 	ldclmi	3, cr4, [r5, #-268]	; 0xfffffef4
    6ad4:	4942495f 	stmdbmi	r2, {r0, r1, r2, r3, r4, r6, r8, fp, lr}^
    6ad8:	205f5f54 	subscs	r5, pc, r4, asr pc	; <UNPREDICTABLE>
    6adc:	5f003233 	svcpl	0x00003233
    6ae0:	5248535f 	subpl	r5, r8, #2080374785	; 0x7c000001
    6ae4:	414d5f54 	cmpmi	sp, r4, asr pc
    6ae8:	205f5f58 	subscs	r5, pc, r8, asr pc	; <UNPREDICTABLE>
    6aec:	66377830 			; <UNDEFINED> instruction: 0x66377830
    6af0:	55006666 	strpl	r6, [r0, #-1638]	; 0xfffff99a
    6af4:	5f544e49 	svcpl	0x00544e49
    6af8:	54534146 	ldrbpl	r4, [r3], #-326	; 0xfffffeba
    6afc:	414d5f38 	cmpmi	sp, r8, lsr pc
    6b00:	5f282058 	svcpl	0x00282058
    6b04:	4e49555f 	mcrmi	5, 2, r5, cr9, cr15, {2}
    6b08:	41465f54 	cmpmi	r6, r4, asr pc
    6b0c:	5f385453 	svcpl	0x00385453
    6b10:	5f58414d 	svcpl	0x0058414d
    6b14:	5f00295f 	svcpl	0x0000295f
    6b18:	4c4c555f 	cfstr64mi	mvdx5, [ip], {95}	; 0x5f
    6b1c:	55434341 	strbpl	r4, [r3, #-833]	; 0xfffffcbf
    6b20:	50455f4d 	subpl	r5, r5, sp, asr #30
    6b24:	4f4c4953 	svcmi	0x004c4953
    6b28:	205f5f4e 	subscs	r5, pc, lr, asr #30
    6b2c:	50317830 	eorspl	r7, r1, r0, lsr r8
    6b30:	5532332d 	ldrpl	r3, [r2, #-813]!	; 0xfffffcd3
    6b34:	004b4c4c 	subeq	r4, fp, ip, asr #24
    6b38:	5a49535f 	bpl	125b8bc <_Min_Stack_Size+0x125b4bc>
    6b3c:	5f545f45 	svcpl	0x00545f45
    6b40:	49464544 	stmdbmi	r6, {r2, r6, r8, sl, lr}^
    6b44:	2044454e 	subcs	r4, r4, lr, asr #10
    6b48:	445f5f00 	ldrbmi	r5, [pc], #-3840	; 6b50 <_Min_Stack_Size+0x6750>
    6b4c:	42465f51 	submi	r5, r6, #324	; 0x144
    6b50:	5f5f5449 	svcpl	0x005f5449
    6b54:	00333620 	eorseq	r3, r3, r0, lsr #12
    6b58:	4e475f5f 	mcrmi	15, 2, r5, cr7, cr15, {2}
    6b5c:	49565f55 	ldmdbmi	r6, {r0, r2, r4, r6, r8, r9, sl, fp, ip, lr}^
    6b60:	4c424953 	mcrrmi	9, 5, r4, r2, cr3	; <UNPREDICTABLE>
    6b64:	00302045 	eorseq	r2, r0, r5, asr #32
    6b68:	41535f5f 	cmpmi	r3, pc, asr pc
    6b6c:	4d554343 	ldclmi	3, cr4, [r5, #-268]	; 0xfffffef4
    6b70:	4942495f 	stmdbmi	r2, {r0, r1, r2, r3, r4, r6, r8, fp, lr}^
    6b74:	205f5f54 	subscs	r5, pc, r4, asr pc	; <UNPREDICTABLE>
    6b78:	50470038 	subpl	r0, r7, r8, lsr r0
    6b7c:	5f424f49 	svcpl	0x00424f49
    6b80:	45534142 	ldrbmi	r4, [r3, #-322]	; 0xfffffebe
    6b84:	34783020 	ldrbtcc	r3, [r8], #-32	; 0xffffffe0
    6b88:	30313030 	eorscc	r3, r1, r0, lsr r0
    6b8c:	55303043 	ldrpl	r3, [r0, #-67]!	; 0xffffffbd
    6b90:	775f004c 	ldrbvc	r0, [pc, -ip, asr #32]
    6b94:	6d6f7463 	cfstrdvs	mvd7, [pc, #-396]!	; 6a10 <_Min_Stack_Size+0x6610>
    6b98:	74735f62 	ldrbtvc	r5, [r3], #-3938	; 0xfffff09e
    6b9c:	00657461 	rsbeq	r7, r5, r1, ror #8
    6ba0:	54505f5f 	ldrbpl	r5, [r0], #-3935	; 0xfffff0a1
    6ba4:	46494452 			; <UNDEFINED> instruction: 0x46494452
    6ba8:	20545f46 	subscs	r5, r4, r6, asr #30
    6bac:	555f5f00 	ldrbpl	r5, [pc, #-3840]	; 5cb4 <_Min_Stack_Size+0x58b4>
    6bb0:	495f5148 	ldmdbmi	pc, {r3, r6, r8, ip, lr}^	; <UNPREDICTABLE>
    6bb4:	5f544942 	svcpl	0x00544942
    6bb8:	0030205f 	eorseq	r2, r0, pc, asr r0
    6bbc:	49545845 	ldmdbmi	r4, {r0, r2, r6, fp, ip, lr}^
    6bc0:	4e494c5f 	mcrmi	12, 2, r4, cr9, cr15, {2}
    6bc4:	505f3545 	subspl	r3, pc, r5, asr #10
    6bc8:	28203543 	stmdacs	r0!, {r0, r1, r6, r8, sl, ip, sp}
    6bcc:	49545845 	ldmdbmi	r4, {r0, r2, r6, fp, ip, lr}^
    6bd0:	4950475f 	ldmdbmi	r0, {r0, r1, r2, r3, r4, r6, r8, r9, sl, lr}^
    6bd4:	614d5f4f 	cmpvs	sp, pc, asr #30
    6bd8:	6e697070 	mcrvs	0, 3, r7, cr9, cr0, {3}
    6bdc:	29745f67 	ldmdbcs	r4!, {r0, r1, r2, r5, r6, r8, r9, sl, fp, ip, lr}^
    6be0:	5458457b 	ldrbpl	r4, [r8], #-1403	; 0xfffffa85
    6be4:	202c3549 	eorcs	r3, ip, r9, asr #10
    6be8:	4f495047 	svcmi	0x00495047
    6bec:	47202c43 	strmi	r2, [r0, -r3, asr #24]!
    6bf0:	5f4f4950 	svcpl	0x004f4950
    6bf4:	5f4e4950 	svcpl	0x004e4950
    6bf8:	45202c35 	strmi	r2, [r0, #-3125]!	; 0xfffff3cb
    6bfc:	35495458 	strbcc	r5, [r9, #-1112]	; 0xfffffba8
    6c00:	5152495f 	cmppl	r2, pc, asr r9
    6c04:	5845007d 	stmdapl	r5, {r0, r2, r3, r4, r5, r6}^
    6c08:	4c5f4954 	mrrcmi	9, 5, r4, pc, cr4	; <UNPREDICTABLE>
    6c0c:	34454e49 	strbcc	r4, [r5], #-3657	; 0xfffff1b7
    6c10:	3441505f 	strbcc	r5, [r1], #-95	; 0xffffffa1
    6c14:	58452820 	stmdapl	r5, {r5, fp, sp}^
    6c18:	475f4954 			; <UNDEFINED> instruction: 0x475f4954
    6c1c:	5f4f4950 	svcpl	0x004f4950
    6c20:	7070614d 	rsbsvc	r6, r0, sp, asr #2
    6c24:	5f676e69 	svcpl	0x00676e69
    6c28:	457b2974 	ldrbmi	r2, [fp, #-2420]!	; 0xfffff68c
    6c2c:	34495458 	strbcc	r5, [r9], #-1112	; 0xfffffba8
    6c30:	5047202c 	subpl	r2, r7, ip, lsr #32
    6c34:	2c414f49 	mcrrcs	15, 4, r4, r1, cr9
    6c38:	49504720 	ldmdbmi	r0, {r5, r8, r9, sl, lr}^
    6c3c:	49505f4f 	ldmdbmi	r0, {r0, r1, r2, r3, r6, r8, r9, sl, fp, ip, lr}^
    6c40:	2c345f4e 	ldccs	15, cr5, [r4], #-312	; 0xfffffec8
    6c44:	54584520 	ldrbpl	r4, [r8], #-1312	; 0xfffffae0
    6c48:	495f3449 	ldmdbmi	pc, {r0, r3, r6, sl, ip, sp}^	; <UNPREDICTABLE>
    6c4c:	007d5152 	rsbseq	r5, sp, r2, asr r1
    6c50:	4f495047 	svcmi	0x00495047
    6c54:	4e49505f 	mcrmi	0, 2, r5, cr9, cr15, {2}
    6c58:	2820355f 	stmdacs	r0!, {r0, r1, r2, r3, r4, r6, r8, sl, ip, sp}
    6c5c:	6e697528 	cdpvs	5, 6, cr7, cr9, cr8, {1}
    6c60:	5f363174 	svcpl	0x00363174
    6c64:	78302974 	ldmdavc	r0!, {r2, r4, r5, r6, r8, fp, sp}
    6c68:	30323030 	eorscc	r3, r2, r0, lsr r0
    6c6c:	645f0029 	ldrbvs	r0, [pc], #-41	; 6c74 <_Min_Stack_Size+0x6874>
    6c70:	685f6f73 	ldmdavs	pc, {r0, r1, r4, r5, r6, r8, r9, sl, fp, sp, lr}^	; <UNPREDICTABLE>
    6c74:	6c646e61 	stclvs	14, cr6, [r4], #-388	; 0xfffffe7c
    6c78:	5f5f0065 	svcpl	0x005f0065
    6c7c:	5f544e49 	svcpl	0x00544e49
    6c80:	54534146 	ldrbpl	r4, [r3], #-326	; 0xfffffeba
    6c84:	545f3631 	ldrbpl	r3, [pc], #-1585	; 6c8c <_Min_Stack_Size+0x688c>
    6c88:	5f455059 	svcpl	0x00455059
    6c8c:	6e69205f 	mcrvs	0, 3, r2, cr9, cr15, {2}
    6c90:	555f0074 	ldrbpl	r0, [pc, #-116]	; 6c24 <_Min_Stack_Size+0x6824>
    6c94:	4d544e49 	ldclmi	14, cr4, [r4, #-292]	; 0xfffffedc
    6c98:	545f5841 	ldrbpl	r5, [pc], #-2113	; 6ca0 <_Min_Stack_Size+0x68a0>
    6c9c:	4345445f 	movtmi	r4, #21599	; 0x545f
    6ca0:	4552414c 	ldrbmi	r4, [r2, #-332]	; 0xfffffeb4
    6ca4:	5f002044 	svcpl	0x00002044
    6ca8:	4341535f 	movtmi	r5, #4959	; 0x135f
    6cac:	5f4d5543 	svcpl	0x004d5543
    6cb0:	5f4e494d 	svcpl	0x004e494d
    6cb4:	2d28205f 	stccs	0, cr2, [r8, #-380]!	; 0xfffffe84
    6cb8:	50315830 	eorspl	r5, r1, r0, lsr r8
    6cbc:	2d4b4837 	stclcs	8, cr4, [fp, #-220]	; 0xffffff24
    6cc0:	50315830 	eorspl	r5, r1, r0, lsr r8
    6cc4:	294b4837 	stmdbcs	fp, {r0, r1, r2, r4, r5, fp, lr}^
    6cc8:	61725f00 	cmnvs	r2, r0, lsl #30
    6ccc:	3834646e 	ldmdacc	r4!, {r1, r2, r3, r5, r6, sl, sp, lr}
    6cd0:	555f5f00 	ldrbpl	r5, [pc, #-3840]	; 5dd8 <_Min_Stack_Size+0x59d8>
    6cd4:	5f544e49 	svcpl	0x00544e49
    6cd8:	5341454c 	movtpl	r4, #5452	; 0x154c
    6cdc:	5f363154 	svcpl	0x00363154
    6ce0:	45505954 	ldrbmi	r5, [r0, #-2388]	; 0xfffff6ac
    6ce4:	73205f5f 			; <UNDEFINED> instruction: 0x73205f5f
    6ce8:	74726f68 	ldrbtvc	r6, [r2], #-3944	; 0xfffff098
    6cec:	736e7520 	cmnvc	lr, #32, 10	; 0x8000000
    6cf0:	656e6769 	strbvs	r6, [lr, #-1897]!	; 0xfffff897
    6cf4:	6e692064 	cdpvs	0, 6, cr2, cr9, cr4, {3}
    6cf8:	5f5f0074 	svcpl	0x005f0074
    6cfc:	5f4d5241 	svcpl	0x004d5241
    6d00:	54414546 	strbpl	r4, [r1], #-1350	; 0xfffffaba
    6d04:	5f455255 	svcpl	0x00455255
    6d08:	00414d46 	subeq	r4, r1, r6, asr #26
    6d0c:	414c5f5f 	cmpmi	ip, pc, asr pc
    6d10:	4d554343 	ldclmi	3, cr4, [r5, #-268]	; 0xfffffef4
    6d14:	58414d5f 	stmdapl	r1, {r0, r1, r2, r3, r4, r6, r8, sl, fp, lr}^
    6d18:	30205f5f 	eorcc	r5, r0, pc, asr pc
    6d1c:	46463758 			; <UNDEFINED> instruction: 0x46463758
    6d20:	46464646 	strbmi	r4, [r6], -r6, asr #12
    6d24:	46464646 	strbmi	r4, [r6], -r6, asr #12
    6d28:	46464646 	strbmi	r4, [r6], -r6, asr #12
    6d2c:	332d5046 			; <UNDEFINED> instruction: 0x332d5046
    6d30:	004b4c31 	subeq	r4, fp, r1, lsr ip
    6d34:	48435f5f 	stmdami	r3, {r0, r1, r2, r3, r4, r6, r8, r9, sl, fp, ip, lr}^
    6d38:	36315241 	ldrtcc	r5, [r1], -r1, asr #4
    6d3c:	5059545f 	subspl	r5, r9, pc, asr r4
    6d40:	205f5f45 	subscs	r5, pc, r5, asr #30
    6d44:	726f6873 	rsbvc	r6, pc, #7536640	; 0x730000
    6d48:	6e752074 	mrcvs	0, 3, r2, cr5, cr4, {3}
    6d4c:	6e676973 			; <UNDEFINED> instruction: 0x6e676973
    6d50:	69206465 	stmdbvs	r0!, {r0, r2, r5, r6, sl, sp, lr}
    6d54:	4700746e 	strmi	r7, [r0, -lr, ror #8]
    6d58:	5f4f4950 	svcpl	0x004f4950
    6d5c:	74726f50 	ldrbtvc	r6, [r2], #-3920	; 0xfffff0b0
    6d60:	49504700 	ldmdbmi	r0, {r8, r9, sl, lr}^
    6d64:	49505f4f 	ldmdbmi	r0, {r0, r1, r2, r3, r6, r8, r9, sl, fp, ip, lr}^
    6d68:	20365f4e 	eorscs	r5, r6, lr, asr #30
    6d6c:	69752828 	ldmdbvs	r5!, {r3, r5, fp, sp}^
    6d70:	3631746e 	ldrtcc	r7, [r1], -lr, ror #8
    6d74:	3029745f 	eorcc	r7, r9, pc, asr r4
    6d78:	34303078 	ldrtcc	r3, [r0], #-120	; 0xffffff88
    6d7c:	5f002930 	svcpl	0x00002930
    6d80:	544c465f 	strbpl	r4, [ip], #-1631	; 0xfffff9a1
    6d84:	5f583233 	svcpl	0x00583233
    6d88:	5f474944 	svcpl	0x00474944
    6d8c:	3531205f 	ldrcc	r2, [r1, #-95]!	; 0xffffffa1
    6d90:	735f5f00 	cmpvc	pc, #0, 30
    6d94:	656e6769 	strbvs	r6, [lr, #-1897]!	; 0xfffff897
    6d98:	69732064 	ldmdbvs	r3!, {r2, r5, r6, sp}^
    6d9c:	64656e67 	strbtvs	r6, [r5], #-3687	; 0xfffff199
    6da0:	555f5f00 	ldrbpl	r5, [pc, #-3840]	; 5ea8 <_Min_Stack_Size+0x5aa8>
    6da4:	465f5154 			; <UNDEFINED> instruction: 0x465f5154
    6da8:	5f544942 	svcpl	0x00544942
    6dac:	3231205f 	eorscc	r2, r1, #95	; 0x5f
    6db0:	564e0038 			; <UNDEFINED> instruction: 0x564e0038
    6db4:	495f4349 	ldmdbmi	pc, {r0, r3, r6, r8, r9, lr}^	; <UNPREDICTABLE>
    6db8:	32524553 	subscc	r4, r2, #348127232	; 0x14c00000
    6dbc:	28282a20 	stmdacs	r8!, {r5, r9, fp, sp}
    6dc0:	616c6f76 	smcvs	50934	; 0xc6f6
    6dc4:	656c6974 	strbvs	r6, [ip, #-2420]!	; 0xfffff68c
    6dc8:	6e697520 	cdpvs	5, 6, cr7, cr9, cr0, {1}
    6dcc:	5f323374 	svcpl	0x00323374
    6dd0:	292a2074 	stmdbcs	sl!, {r2, r4, r5, r6, sp}
    6dd4:	49564e20 	ldmdbmi	r6, {r5, r9, sl, fp, lr}^
    6dd8:	41425f43 	cmpmi	r2, r3, asr #30
    6ddc:	2b204553 	blcs	818330 <_Min_Stack_Size+0x817f30>
    6de0:	30783020 	rsbscc	r3, r8, r0, lsr #32
    6de4:	5f002938 	svcpl	0x00002938
    6de8:	4c4c555f 	cfstr64mi	mvdx5, [ip], {95}	; 0x5f
    6dec:	55434341 	strbpl	r4, [r3, #-833]	; 0xfffffcbf
    6df0:	42495f4d 	submi	r5, r9, #308	; 0x134
    6df4:	5f5f5449 	svcpl	0x005f5449
    6df8:	00323320 	eorseq	r3, r2, r0, lsr #6
    6dfc:	4e495f5f 	mcrmi	15, 2, r5, cr9, cr15, {2}
    6e00:	41465f54 	cmpmi	r6, r4, asr pc
    6e04:	36315453 			; <UNDEFINED> instruction: 0x36315453
    6e08:	58414d5f 	stmdapl	r1, {r0, r1, r2, r3, r4, r6, r8, sl, fp, lr}^
    6e0c:	30205f5f 	eorcc	r5, r0, pc, asr pc
    6e10:	66663778 			; <UNDEFINED> instruction: 0x66663778
    6e14:	66666666 	strbtvs	r6, [r6], -r6, ror #12
    6e18:	5f5f0066 	svcpl	0x005f0066
    6e1c:	65766168 	ldrbvs	r6, [r6, #-360]!	; 0xfffffe98
    6e20:	6e6f6c5f 	mcrvs	12, 3, r6, cr15, cr15, {2}
    6e24:	6e6f6c67 	cdpvs	12, 6, cr6, cr15, cr7, {3}
    6e28:	20343667 	eorscs	r3, r4, r7, ror #12
    6e2c:	414d0031 	cmpmi	sp, r1, lsr r0
    6e30:	5f005250 	svcpl	0x00005250
    6e34:	736b6c62 	cmnvc	fp, #25088	; 0x6200
    6e38:	00657a69 	rsbeq	r7, r5, r9, ror #20
    6e3c:	4e49555f 	mcrmi	5, 2, r5, cr9, cr15, {2}
    6e40:	545f3854 	ldrbpl	r3, [pc], #-2132	; 6e48 <_Min_Stack_Size+0x6a48>
    6e44:	4345445f 	movtmi	r4, #21599	; 0x545f
    6e48:	4552414c 	ldrbmi	r4, [r2, #-332]	; 0xfffffeb4
    6e4c:	45002044 	strmi	r2, [r0, #-68]	; 0xffffffbc
    6e50:	32495458 	subcc	r5, r9, #88, 8	; 0x58000000
    6e54:	5152495f 	cmppl	r2, pc, asr r9
    6e58:	646e6148 	strbtvs	r6, [lr], #-328	; 0xfffffeb8
    6e5c:	0072656c 	rsbseq	r6, r2, ip, ror #10
    6e60:	4e49555f 	mcrmi	5, 2, r5, cr9, cr15, {2}
    6e64:	52545054 	subspl	r5, r4, #84	; 0x54
    6e68:	445f545f 	ldrbmi	r5, [pc], #-1119	; 6e70 <_Min_Stack_Size+0x6a70>
    6e6c:	414c4345 	cmpmi	ip, r5, asr #6
    6e70:	20444552 	subcs	r4, r4, r2, asr r5
    6e74:	54584500 	ldrbpl	r4, [r8], #-1280	; 0xfffffb00
    6e78:	5f353149 	svcpl	0x00353149
    6e7c:	20515249 	subscs	r5, r1, r9, asr #4
    6e80:	5f003034 	svcpl	0x00003034
    6e84:	41484357 	cmpmi	r8, r7, asr r3
    6e88:	5f545f52 	svcpl	0x00545f52
    6e8c:	49464544 	stmdbmi	r6, {r2, r6, r8, sl, lr}^
    6e90:	2044454e 	subcs	r4, r4, lr, asr #10
    6e94:	61625f00 	cmnvs	r2, r0, lsl #30
    6e98:	5f006573 	svcpl	0x00006573
    6e9c:	414c555f 	cmpmi	ip, pc, asr r5
    6ea0:	4d554343 	ldclmi	3, cr4, [r5, #-268]	; 0xfffffef4
    6ea4:	58414d5f 	stmdapl	r1, {r0, r1, r2, r3, r4, r6, r8, sl, fp, lr}^
    6ea8:	30205f5f 	eorcc	r5, r0, pc, asr pc
    6eac:	46464658 			; <UNDEFINED> instruction: 0x46464658
    6eb0:	46464646 	strbmi	r4, [r6], -r6, asr #12
    6eb4:	46464646 	strbmi	r4, [r6], -r6, asr #12
    6eb8:	46464646 	strbmi	r4, [r6], -r6, asr #12
    6ebc:	332d5046 			; <UNDEFINED> instruction: 0x332d5046
    6ec0:	4b4c5532 	blmi	131c390 <_Min_Stack_Size+0x131bf90>
    6ec4:	745f5f00 	ldrbvc	r5, [pc], #-3840	; 6ecc <_Min_Stack_Size+0x6acc>
    6ec8:	6f6c7972 	svcvs	0x006c7972
    6ecc:	5f736b63 	svcpl	0x00736b63
    6ed0:	6c637865 	stclvs	8, cr7, [r3], #-404	; 0xfffffe6c
    6ed4:	76697375 			; <UNDEFINED> instruction: 0x76697375
    6ed8:	2e2e2865 	cdpcs	8, 2, cr2, cr14, cr5, {3}
    6edc:	5f20292e 	svcpl	0x0020292e
    6ee0:	636f6c5f 	cmnvs	pc, #24320	; 0x5f00
    6ee4:	6e615f6b 	cdpvs	15, 6, cr5, cr1, cr11, {3}
    6ee8:	61746f6e 	cmnvs	r4, lr, ror #30
    6eec:	65286574 	strvs	r6, [r8, #-1396]!	; 0xfffffa8c
    6ef0:	756c6378 	strbvc	r6, [ip, #-888]!	; 0xfffffc88
    6ef4:	65766973 	ldrbvs	r6, [r6, #-2419]!	; 0xfffff68d
    6ef8:	7972745f 	ldmdbvc	r2!, {r0, r1, r2, r3, r4, r6, sl, ip, sp, lr}^
    6efc:	6b636f6c 	blvs	18e2cb4 <_Min_Stack_Size+0x18e28b4>
    6f00:	6e75665f 	mrcvs	6, 3, r6, cr5, cr15, {2}
    6f04:	6f697463 	svcvs	0x00697463
    6f08:	5f5f286e 	svcpl	0x005f286e
    6f0c:	415f4156 	cmpmi	pc, r6, asr r1	; <UNPREDICTABLE>
    6f10:	5f534752 	svcpl	0x00534752
    6f14:	0029295f 	eoreq	r2, r9, pc, asr r9
    6f18:	4e495f5f 	mcrmi	15, 2, r5, cr9, cr15, {2}
    6f1c:	5f363154 	svcpl	0x00363154
    6f20:	29632843 	stmdbcs	r3!, {r0, r1, r6, fp, sp}^
    6f24:	53006320 	movwpl	r6, #800	; 0x320
    6f28:	32334d54 	eorscc	r4, r3, #84, 26	; 0x1500
    6f2c:	33303146 	teqcc	r0, #-2147483631	; 0x80000011
    6f30:	475f3643 	ldrbmi	r3, [pc, -r3, asr #12]
    6f34:	5f4f4950 	svcpl	0x004f4950
    6f38:	56495244 	strbpl	r5, [r9], -r4, asr #4
    6f3c:	485f5245 	ldmdami	pc, {r0, r2, r6, r9, ip, lr}^	; <UNPREDICTABLE>
    6f40:	5f00205f 	svcpl	0x0000205f
    6f44:	4e454552 	mcrmi	5, 2, r4, cr5, cr2, {2}
    6f48:	41525f54 	cmpmi	r2, r4, asr pc
    6f4c:	4e5f444e 	cdpmi	4, 5, cr4, cr15, cr14, {2}
    6f50:	28545845 	ldmdacs	r4, {r0, r2, r6, fp, ip, lr}^
    6f54:	29727470 	ldmdbcs	r2!, {r4, r5, r6, sl, ip, sp, lr}^
    6f58:	70282820 	eorvc	r2, r8, r0, lsr #16
    6f5c:	2d297274 	sfmcs	f7, 4, [r9, #-464]!	; 0xfffffe30
    6f60:	34725f3e 	ldrbtcc	r5, [r2], #-3902	; 0xfffff0c2
    6f64:	5f3e2d38 	svcpl	0x003e2d38
    6f68:	646e6172 	strbtvs	r6, [lr], #-370	; 0xfffffe8e
    6f6c:	78656e5f 	stmdavc	r5!, {r0, r1, r2, r3, r4, r6, r9, sl, fp, sp, lr}^
    6f70:	4e002974 			; <UNDEFINED> instruction: 0x4e002974
    6f74:	5f434956 	svcpl	0x00434956
    6f78:	37515249 	ldrbcc	r5, [r1, -r9, asr #4]
    6f7c:	5458455f 	ldrbpl	r4, [r8], #-1375	; 0xfffffaa1
    6f80:	445f3149 	ldrbmi	r3, [pc], #-329	; 6f88 <_Min_Stack_Size+0x6b88>
    6f84:	62617369 	rsbvs	r7, r1, #-1543503871	; 0xa4000001
    6f88:	2928656c 	stmdbcs	r8!, {r2, r3, r5, r6, r8, sl, sp, lr}
    6f8c:	564e2820 	strbpl	r2, [lr], -r0, lsr #16
    6f90:	495f4349 	ldmdbmi	pc, {r0, r3, r6, r8, r9, lr}^	; <UNPREDICTABLE>
    6f94:	30524543 	subscc	r4, r2, r3, asr #10
    6f98:	203d7c20 	eorscs	r7, sp, r0, lsr #24
    6f9c:	3c3c3128 	ldfccs	f3, [ip], #-160	; 0xffffff60
    6fa0:	00292937 	eoreq	r2, r9, r7, lsr r9
    6fa4:	49545845 	ldmdbmi	r4, {r0, r2, r6, fp, ip, lr}^
    6fa8:	52495f30 	subpl	r5, r9, #48, 30	; 0xc0
    6fac:	00362051 	eorseq	r2, r6, r1, asr r0
    6fb0:	4c555f5f 	mrrcmi	15, 5, r5, r5, cr15	; <UNPREDICTABLE>
    6fb4:	43415246 	movtmi	r5, #4678	; 0x1246
    6fb8:	494d5f54 	stmdbmi	sp, {r2, r4, r6, r8, r9, sl, fp, ip, lr}^
    6fbc:	205f5f4e 	subscs	r5, pc, lr, asr #30
    6fc0:	55302e30 	ldrpl	r2, [r0, #-3632]!	; 0xfffff1d0
    6fc4:	5f00524c 	svcpl	0x0000524c
    6fc8:	74727473 	ldrbtvc	r7, [r2], #-1139	; 0xfffffb8d
    6fcc:	6c5f6b6f 	mrrcvs	11, 6, r6, pc, cr15	; <UNPREDICTABLE>
    6fd0:	00747361 	rsbseq	r7, r4, r1, ror #6
    6fd4:	51445f5f 	cmppl	r4, pc, asr pc
    6fd8:	4942495f 	stmdbmi	r2, {r0, r1, r2, r3, r4, r6, r8, fp, lr}^
    6fdc:	205f5f54 	subscs	r5, pc, r4, asr pc	; <UNPREDICTABLE>
    6fe0:	5f5f0030 	svcpl	0x005f0030
    6fe4:	33544e49 	cmpcc	r4, #1168	; 0x490
    6fe8:	59545f32 	ldmdbpl	r4, {r1, r4, r5, r8, r9, sl, fp, ip, lr}^
    6fec:	5f5f4550 	svcpl	0x005f4550
    6ff0:	6e6f6c20 	cdpvs	12, 6, cr6, cr15, cr0, {1}
    6ff4:	6e692067 	cdpvs	0, 6, cr2, cr9, cr7, {3}
    6ff8:	5f5f0074 	svcpl	0x005f0074
    6ffc:	61776c61 	cmnvs	r7, r1, ror #24
    7000:	695f7379 	ldmdbvs	pc, {r0, r3, r4, r5, r6, r8, r9, ip, sp, lr}^	; <UNPREDICTABLE>
    7004:	6e696c6e 	cdpvs	12, 6, cr6, cr9, cr14, {3}
    7008:	5f5f2065 	svcpl	0x005f2065
    700c:	696c6e69 	stmdbvs	ip!, {r0, r3, r5, r6, r9, sl, fp, sp, lr}^
    7010:	5f5f656e 	svcpl	0x005f656e
    7014:	615f5f20 	cmpvs	pc, r0, lsr #30
    7018:	69727474 	ldmdbvs	r2!, {r2, r4, r5, r6, sl, ip, sp, lr}^
    701c:	65747562 	ldrbvs	r7, [r4, #-1378]!	; 0xfffffa9e
    7020:	28285f5f 	stmdacs	r8!, {r0, r1, r2, r3, r4, r6, r8, r9, sl, fp, ip, lr}
    7024:	6c615f5f 	stclvs	15, cr5, [r1], #-380	; 0xfffffe84
    7028:	73796177 	cmnvc	r9, #-1073741795	; 0xc000001d
    702c:	6c6e695f 			; <UNDEFINED> instruction: 0x6c6e695f
    7030:	5f656e69 	svcpl	0x00656e69
    7034:	0029295f 	eoreq	r2, r9, pc, asr r9
    7038:	72626d5f 	rsbvc	r6, r2, #6080	; 0x17c0
    703c:	63776f74 	cmnvs	r7, #116, 30	; 0x1d0
    7040:	6174735f 	cmnvs	r4, pc, asr r3
    7044:	5f006574 	svcpl	0x00006574
    7048:	6e6f635f 	mcrvs	3, 3, r6, cr15, cr15, {2}
    704c:	6e696174 	mcrvs	1, 3, r6, cr9, cr4, {3}
    7050:	666f7265 	strbtvs	r7, [pc], -r5, ror #4
    7054:	732c7828 			; <UNDEFINED> instruction: 0x732c7828
    7058:	20296d2c 	eorcs	r6, r9, ip, lsr #26
    705c:	63207b28 			; <UNDEFINED> instruction: 0x63207b28
    7060:	74736e6f 	ldrbtvc	r6, [r3], #-3695	; 0xfffff191
    7064:	6c6f7620 	stclvs	6, cr7, [pc], #-128	; 6fec <_Min_Stack_Size+0x6bec>
    7068:	6c697461 	cfstrdvs	mvd7, [r9], #-388	; 0xfffffe7c
    706c:	5f5f2065 	svcpl	0x005f2065
    7070:	65707974 	ldrbvs	r7, [r0, #-2420]!	; 0xfffff68c
    7074:	2828666f 	stmdacs	r8!, {r0, r1, r2, r3, r5, r6, r9, sl, sp, lr}
    7078:	2a207328 	bcs	823d20 <_Min_Stack_Size+0x823920>
    707c:	2d293029 	stccs	0, cr3, [r9, #-164]!	; 0xffffff5c
    7080:	20296d3e 	eorcs	r6, r9, lr, lsr sp
    7084:	785f5f2a 	ldmdavc	pc, {r1, r3, r5, r8, r9, sl, fp, ip, lr}^	; <UNPREDICTABLE>
    7088:	28203d20 	stmdacs	r0!, {r5, r8, sl, fp, ip, sp}
    708c:	203b2978 	eorscs	r2, fp, r8, ror r9
    7090:	45445f5f 	strbmi	r5, [r4, #-3935]	; 0xfffff0a1
    7094:	4c415551 	cfstr64mi	mvdx5, [r1], {81}	; 0x51
    7098:	28594649 	ldmdacs	r9, {r0, r3, r6, r9, sl, lr}^
    709c:	2c2a2073 	stccs	0, cr2, [sl], #-460	; 0xfffffe34
    70a0:	6f632820 	svcvs	0x00632820
    70a4:	2074736e 	rsbscs	r7, r4, lr, ror #6
    70a8:	616c6f76 	smcvs	50934	; 0xc6f6
    70ac:	656c6974 	strbvs	r6, [ip, #-2420]!	; 0xfffff68c
    70b0:	61686320 	cmnvs	r8, r0, lsr #6
    70b4:	292a2072 	stmdbcs	sl!, {r1, r4, r5, r6, sp}
    70b8:	20785f5f 	rsbscs	r5, r8, pc, asr pc
    70bc:	5f5f202d 	svcpl	0x005f202d
    70c0:	7366666f 	cmnvc	r6, #116391936	; 0x6f00000
    70c4:	666f7465 	strbtvs	r7, [pc], -r5, ror #8
    70c8:	202c7328 	eorcs	r7, ip, r8, lsr #6
    70cc:	3b29296d 	blcc	a51688 <_Min_Stack_Size+0xa51288>
    70d0:	5f00297d 	svcpl	0x0000297d
    70d4:	544e4955 	strbpl	r4, [lr], #-2389	; 0xfffff6ab
    70d8:	545f3233 	ldrbpl	r3, [pc], #-563	; 70e0 <_Min_Stack_Size+0x6ce0>
    70dc:	4345445f 	movtmi	r4, #21599	; 0x545f
    70e0:	4552414c 	ldrbmi	r4, [r2, #-332]	; 0xfffffeb4
    70e4:	5f002044 	svcpl	0x00002044
    70e8:	5f445342 	svcpl	0x00445342
    70ec:	455a4953 	ldrbmi	r4, [sl, #-2387]	; 0xfffff6ad
    70f0:	205f545f 	subscs	r5, pc, pc, asr r4	; <UNPREDICTABLE>
    70f4:	54584500 	ldrbpl	r4, [r8], #-1280	; 0xfffffb00
    70f8:	494c5f49 	stmdbmi	ip, {r0, r3, r6, r8, r9, sl, fp, ip, lr}^
    70fc:	5f32454e 	svcpl	0x0032454e
    7100:	20324350 	eorscs	r4, r2, r0, asr r3
    7104:	54584528 	ldrbpl	r4, [r8], #-1320	; 0xfffffad8
    7108:	50475f49 	subpl	r5, r7, r9, asr #30
    710c:	4d5f4f49 	ldclmi	15, cr4, [pc, #-292]	; 6ff0 <_Min_Stack_Size+0x6bf0>
    7110:	69707061 	ldmdbvs	r0!, {r0, r5, r6, ip, sp, lr}^
    7114:	745f676e 	ldrbvc	r6, [pc], #-1902	; 711c <_Min_Stack_Size+0x6d1c>
    7118:	58457b29 	stmdapl	r5, {r0, r3, r5, r8, r9, fp, ip, sp, lr}^
    711c:	2c324954 			; <UNDEFINED> instruction: 0x2c324954
    7120:	49504720 	ldmdbmi	r0, {r5, r8, r9, sl, lr}^
    7124:	202c434f 	eorcs	r4, ip, pc, asr #6
    7128:	4f495047 	svcmi	0x00495047
    712c:	4e49505f 	mcrmi	0, 2, r5, cr9, cr15, {2}
    7130:	202c325f 	eorcs	r3, ip, pc, asr r2
    7134:	49545845 	ldmdbmi	r4, {r0, r2, r6, fp, ip, lr}^
    7138:	52495f32 	subpl	r5, r9, #50, 30	; 0xc8
    713c:	5f007d51 	svcpl	0x00007d51
    7140:	5f6f6e5f 	svcpl	0x006f6e5f
    7144:	6b636f6c 	blvs	18e2efc <_Min_Stack_Size+0x18e2afc>
    7148:	616e615f 	cmnvs	lr, pc, asr r1
    714c:	6973796c 	ldmdbvs	r3!, {r2, r3, r5, r6, r8, fp, ip, sp, lr}^
    7150:	5f5f2073 	svcpl	0x005f2073
    7154:	6b636f6c 	blvs	18e2f0c <_Min_Stack_Size+0x18e2b0c>
    7158:	6e6e615f 	mcrvs	1, 3, r6, cr14, cr15, {2}
    715c:	7461746f 	strbtvc	r7, [r1], #-1135	; 0xfffffb91
    7160:	6f6e2865 	svcvs	0x006e2865
    7164:	7268745f 	rsbvc	r7, r8, #1593835520	; 0x5f000000
    7168:	5f646165 	svcpl	0x00646165
    716c:	65666173 	strbvs	r6, [r6, #-371]!	; 0xfffffe8d
    7170:	615f7974 	cmpvs	pc, r4, ror r9	; <UNPREDICTABLE>
    7174:	796c616e 	stmdbvc	ip!, {r1, r2, r3, r5, r6, r8, sp, lr}^
    7178:	29736973 	ldmdbcs	r3!, {r0, r1, r4, r5, r6, r8, fp, sp, lr}^
    717c:	6c665f00 	stclvs	15, cr5, [r6], #-0
    7180:	5f6b636f 	svcpl	0x006b636f
    7184:	43520074 	cmpmi	r2, #116	; 0x74
    7188:	53555f43 	cmppl	r5, #268	; 0x10c
    718c:	32545241 	subscc	r5, r4, #268435460	; 0x10000004
    7190:	4b4c435f 	blmi	1317f14 <_Min_Stack_Size+0x1317b14>
    7194:	284e455f 	stmdacs	lr, {r0, r1, r2, r3, r4, r6, r8, sl, lr}^
    7198:	52282029 	eorpl	r2, r8, #41	; 0x29
    719c:	3e2d4343 	cdpcc	3, 2, cr4, cr13, cr3, {2}
    71a0:	31425041 	cmpcc	r2, r1, asr #32
    71a4:	20524e45 	subscs	r4, r2, r5, asr #28
    71a8:	28203d7c 	stmdacs	r0!, {r2, r3, r4, r5, r6, r8, sl, fp, ip, sp}
    71ac:	313c3c31 	teqcc	ip, r1, lsr ip
    71b0:	00292937 	eoreq	r2, r9, r7, lsr r9
    71b4:	49465f5f 	stmdbmi	r6, {r0, r1, r2, r3, r4, r6, r8, r9, sl, fp, ip, lr}^
    71b8:	5f00454c 	svcpl	0x0000454c
    71bc:	4e454552 	mcrmi	5, 2, r4, cr5, cr2, {2}
    71c0:	504d5f54 	subpl	r5, sp, r4, asr pc
    71c4:	4552465f 	ldrbmi	r4, [r2, #-1631]	; 0xfffff9a1
    71c8:	53494c45 	movtpl	r4, #40005	; 0x9c45
    71cc:	74702854 	ldrbtvc	r2, [r0], #-2132	; 0xfffff7ac
    71d0:	28202972 	stmdacs	r0!, {r1, r4, r5, r6, r8, fp, sp}
    71d4:	72747028 	rsbsvc	r7, r4, #40	; 0x28
    71d8:	5f3e2d29 	svcpl	0x003e2d29
    71dc:	3e2d706d 	cdpcc	0, 2, cr7, cr13, cr13, {3}
    71e0:	6572665f 	ldrbvs	r6, [r2, #-1631]!	; 0xfffff9a1
    71e4:	73696c65 	cmnvc	r9, #25856	; 0x6500
    71e8:	5f002974 	svcpl	0x00002974
    71ec:	454d4954 	strbmi	r4, [sp, #-2388]	; 0xfffff6ac
    71f0:	205f545f 	subscs	r5, pc, pc, asr r4	; <UNPREDICTABLE>
    71f4:	6e695f5f 	mcrvs	15, 3, r5, cr9, cr15, {2}
    71f8:	656c5f74 	strbvs	r5, [ip, #-3956]!	; 0xfffff08c
    71fc:	36747361 	ldrbtcc	r7, [r4], -r1, ror #6
    7200:	00745f34 	rsbseq	r5, r4, r4, lsr pc
    7204:	4f4c435f 	svcmi	0x004c435f
    7208:	44494b43 	strbmi	r4, [r9], #-2883	; 0xfffff4bd
    720c:	205f545f 	subscs	r5, pc, pc, asr r4	; <UNPREDICTABLE>
    7210:	69736e75 	ldmdbvs	r3!, {r0, r2, r4, r5, r6, r9, sl, fp, sp, lr}^
    7214:	64656e67 	strbtvs	r6, [r5], #-3687	; 0xfffff199
    7218:	6e6f6c20 	cdpvs	12, 6, cr6, cr15, cr0, {1}
    721c:	49550067 	ldmdbmi	r5, {r0, r1, r2, r5, r6}^
    7220:	3631544e 	ldrtcc	r5, [r1], -lr, asr #8
    7224:	7828435f 	stmdavc	r8!, {r0, r1, r2, r3, r4, r6, r8, r9, lr}
    7228:	5f5f2029 	svcpl	0x005f2029
    722c:	544e4955 	strbpl	r4, [lr], #-2389	; 0xfffff6ab
    7230:	435f3631 	cmpmi	pc, #51380224	; 0x3100000
    7234:	00297828 	eoreq	r7, r9, r8, lsr #16
    7238:	54555f5f 	ldrbpl	r5, [r5], #-3935	; 0xfffff0a1
    723c:	42495f51 	submi	r5, r9, #324	; 0x144
    7240:	5f5f5449 	svcpl	0x005f5449
    7244:	45003020 	strmi	r3, [r0, #-32]	; 0xffffffe0
    7248:	32495458 	subcc	r5, r9, #88, 8	; 0x58000000
    724c:	5f003220 	svcpl	0x00003220
    7250:	5f41535f 	svcpl	0x0041535f
    7254:	54494246 	strbpl	r4, [r9], #-582	; 0xfffffdba
    7258:	31205f5f 			; <UNDEFINED> instruction: 0x31205f5f
    725c:	5f5f0035 	svcpl	0x005f0035
    7260:	5f544e49 	svcpl	0x00544e49
    7264:	41484357 	cmpmi	r8, r7, asr r3
    7268:	5f545f52 	svcpl	0x00545f52
    726c:	5f002048 	svcpl	0x00002048
    7270:	544c465f 	strbpl	r4, [ip], #-1631	; 0xfffff9a1
    7274:	5f583233 	svcpl	0x00583233
    7278:	5f58414d 	svcpl	0x0058414d
    727c:	2e31205f 	mrccs	0, 1, r2, cr1, cr15, {2}
    7280:	36373937 			; <UNDEFINED> instruction: 0x36373937
    7284:	33313339 	teqcc	r1, #-469762048	; 0xe4000000
    7288:	32363834 	eorscc	r3, r6, #52, 16	; 0x340000
    728c:	37353133 			; <UNDEFINED> instruction: 0x37353133
    7290:	30332b65 	eorscc	r2, r3, r5, ror #22
    7294:	32334638 	eorscc	r4, r3, #56, 12	; 0x3800000
    7298:	5f5f0078 	svcpl	0x005f0078
    729c:	43554e47 	cmpmi	r5, #1136	; 0x470
    72a0:	454b494c 	strbmi	r4, [fp, #-2380]	; 0xfffff6b4
    72a4:	4955425f 	ldmdbmi	r5, {r0, r1, r2, r3, r4, r6, r9, lr}^
    72a8:	4e49544c 	cdpmi	4, 4, cr5, cr9, cr12, {2}
    72ac:	4141565f 	cmpmi	r1, pc, asr r6
    72b0:	5453494c 	ldrbpl	r4, [r3], #-2380	; 0xfffff6b4
    72b4:	5f003120 	svcpl	0x00003120
    72b8:	544c465f 	strbpl	r4, [ip], #-1631	; 0xfffff9a1
    72bc:	4d5f3233 	lfmmi	f3, 2, [pc, #-204]	; 71f8 <_Min_Stack_Size+0x6df8>
    72c0:	5f5f4e49 	svcpl	0x005f4e49
    72c4:	312e3120 			; <UNDEFINED> instruction: 0x312e3120
    72c8:	39343537 	ldmdbcc	r4!, {r0, r1, r2, r4, r5, r8, sl, ip, sp}
    72cc:	30353334 	eorscc	r3, r5, r4, lsr r3
    72d0:	32323238 	eorscc	r3, r2, #56, 4	; 0x80000003
    72d4:	65353738 	ldrvs	r3, [r5, #-1848]!	; 0xfffff8c8
    72d8:	4638332d 	ldrtmi	r3, [r8], -sp, lsr #6
    72dc:	5f003233 	svcpl	0x00003233
    72e0:	00383472 	eorseq	r3, r8, r2, ror r4
    72e4:	41555f5f 	cmpmi	r5, pc, asr pc
    72e8:	4d554343 	ldclmi	3, cr4, [r5, #-268]	; 0xfffffef4
    72ec:	4942495f 	stmdbmi	r2, {r0, r1, r2, r3, r4, r6, r8, fp, lr}^
    72f0:	205f5f54 	subscs	r5, pc, r4, asr pc	; <UNPREDICTABLE>
    72f4:	5f003631 	svcpl	0x00003631
    72f8:	464c455f 			; <UNDEFINED> instruction: 0x464c455f
    72fc:	31205f5f 			; <UNDEFINED> instruction: 0x31205f5f
    7300:	544e4900 	strbpl	r4, [lr], #-2304	; 0xfffff700
    7304:	4d5f3233 	lfmmi	f3, 2, [pc, #-204]	; 7240 <_Min_Stack_Size+0x6e40>
    7308:	28204e49 	stmdacs	r0!, {r0, r3, r6, r9, sl, fp, lr}
    730c:	495f5f2d 	ldmdbmi	pc, {r0, r2, r3, r5, r8, r9, sl, fp, ip, lr}^	; <UNPREDICTABLE>
    7310:	3233544e 	eorscc	r5, r3, #1308622848	; 0x4e000000
    7314:	58414d5f 	stmdapl	r1, {r0, r1, r2, r3, r4, r6, r8, sl, fp, lr}^
    7318:	2d205f5f 	stccs	15, cr5, [r0, #-380]!	; 0xfffffe84
    731c:	00293120 	eoreq	r3, r9, r0, lsr #2
    7320:	48545f5f 	ldmdami	r4, {r0, r1, r2, r3, r4, r6, r8, r9, sl, fp, ip, lr}^
    7324:	45424d55 	strbmi	r4, [r2, #-3413]	; 0xfffff2ab
    7328:	205f5f4c 	subscs	r5, pc, ip, asr #30
    732c:	58450031 	stmdapl	r5, {r0, r4, r5}^
    7330:	5f394954 	svcpl	0x00394954
    7334:	52495f35 	subpl	r5, r9, #53, 30	; 0xd4
    7338:	6e614851 	mcrvs	8, 3, r4, cr1, cr1, {2}
    733c:	72656c64 	rsbvc	r6, r5, #100, 24	; 0x6400
    7340:	4e495500 	cdpmi	5, 4, cr5, cr9, cr0, {0}
    7344:	435f3854 	cmpmi	pc, #84, 16	; 0x540000
    7348:	20297828 	eorcs	r7, r9, r8, lsr #16
    734c:	49555f5f 	ldmdbmi	r5, {r0, r1, r2, r3, r4, r6, r8, r9, sl, fp, ip, lr}^
    7350:	5f38544e 	svcpl	0x0038544e
    7354:	29782843 	ldmdbcs	r8!, {r0, r1, r6, fp, sp}^
    7358:	4e495f00 	cdpmi	15, 4, cr5, cr9, cr0, {0}
    735c:	545f3854 	ldrbpl	r3, [pc], #-2132	; 7364 <_Min_Stack_Size+0x6f64>
    7360:	4345445f 	movtmi	r4, #21599	; 0x545f
    7364:	4552414c 	ldrbmi	r4, [r2, #-332]	; 0xfffffeb4
    7368:	5f002044 	svcpl	0x00002044
    736c:	5f51515f 	svcpl	0x0051515f
    7370:	54494249 	strbpl	r4, [r9], #-585	; 0xfffffdb7
    7374:	30205f5f 	eorcc	r5, r0, pc, asr pc
    7378:	535f5f00 	cmppl	pc, #0, 30
    737c:	5f455a49 	svcpl	0x00455a49
    7380:	5f58414d 	svcpl	0x0058414d
    7384:	7830205f 	ldmdavc	r0!, {r0, r1, r2, r3, r4, r6, sp}
    7388:	66666666 	strbtvs	r6, [r6], -r6, ror #12
    738c:	66666666 	strbtvs	r6, [r6], -r6, ror #12
    7390:	414d0055 	qdaddmi	r0, r5, sp
    7394:	00325250 	eorseq	r5, r2, r0, asr r2
    7398:	544e4955 	strbpl	r4, [lr], #-2389	; 0xfffff6ab
    739c:	435f3436 	cmpmi	pc, #905969664	; 0x36000000
    73a0:	20297828 	eorcs	r7, r9, r8, lsr #16
    73a4:	49555f5f 	ldmdbmi	r5, {r0, r1, r2, r3, r4, r6, r8, r9, sl, fp, ip, lr}^
    73a8:	3436544e 	ldrtcc	r5, [r6], #-1102	; 0xfffffbb2
    73ac:	7828435f 	stmdavc	r8!, {r0, r1, r2, r3, r4, r6, r8, r9, lr}
    73b0:	5f5f0029 	svcpl	0x005f0029
    73b4:	43414c4c 	movtmi	r4, #7244	; 0x1c4c
    73b8:	5f4d5543 	svcpl	0x004d5543
    73bc:	54494246 	strbpl	r4, [r9], #-582	; 0xfffffdba
    73c0:	33205f5f 			; <UNDEFINED> instruction: 0x33205f5f
    73c4:	645f0031 	ldrbvs	r0, [pc], #-49	; 73cc <_Min_Stack_Size+0x6fcc>
    73c8:	00617461 	rsbeq	r7, r1, r1, ror #8
    73cc:	544e4955 	strbpl	r4, [lr], #-2389	; 0xfffff6ab
    73d0:	4d5f3631 	ldclmi	6, cr3, [pc, #-196]	; 7314 <_Min_Stack_Size+0x6f14>
    73d4:	28205841 	stmdacs	r0!, {r0, r6, fp, ip, lr}
    73d8:	49555f5f 	ldmdbmi	r5, {r0, r1, r2, r3, r4, r6, r8, r9, sl, fp, ip, lr}^
    73dc:	3631544e 	ldrtcc	r5, [r1], -lr, asr #8
    73e0:	58414d5f 	stmdapl	r1, {r0, r1, r2, r3, r4, r6, r8, sl, fp, lr}^
    73e4:	00295f5f 	eoreq	r5, r9, pc, asr pc
    73e8:	4c465f5f 	mcrrmi	15, 5, r5, r6, cr15
    73ec:	414d5f54 	cmpmi	sp, r4, asr pc
    73f0:	30315f58 	eorscc	r5, r1, r8, asr pc
    73f4:	5058455f 	subspl	r4, r8, pc, asr r5
    73f8:	33205f5f 			; <UNDEFINED> instruction: 0x33205f5f
    73fc:	49550038 	ldmdbmi	r5, {r3, r4, r5}^
    7400:	4c5f544e 	cfldrdmi	mvd5, [pc], {78}	; 0x4e
    7404:	54534145 	ldrbpl	r4, [r3], #-325	; 0xfffffebb
    7408:	414d5f38 	cmpmi	sp, r8, lsr pc
    740c:	5f282058 	svcpl	0x00282058
    7410:	4e49555f 	mcrmi	5, 2, r5, cr9, cr15, {2}
    7414:	454c5f54 	strbmi	r5, [ip, #-3924]	; 0xfffff0ac
    7418:	38545341 	ldmdacc	r4, {r0, r6, r8, r9, ip, lr}^
    741c:	58414d5f 	stmdapl	r1, {r0, r1, r2, r3, r4, r6, r8, sl, fp, lr}^
    7420:	00295f5f 	eoreq	r5, r9, pc, asr pc
    7424:	53555f5f 	cmppl	r5, #380	; 0x17c
    7428:	42495f51 	submi	r5, r9, #324	; 0x144
    742c:	5f5f5449 	svcpl	0x005f5449
    7430:	5f003020 	svcpl	0x00003020
    7434:	554e475f 	strbpl	r4, [lr, #-1887]	; 0xfffff8a1
    7438:	494d5f43 	stmdbmi	sp, {r0, r1, r6, r8, r9, sl, fp, ip, lr}^
    743c:	5f524f4e 	svcpl	0x00524f4e
    7440:	0033205f 	eorseq	r2, r3, pc, asr r0
    7444:	6f6c5f5f 	svcvs	0x006c5f5f
    7448:	725f6b63 	subsvc	r6, pc, #101376	; 0x18c00
    744c:	61656c65 	cmnvs	r5, r5, ror #24
    7450:	725f6573 	subsvc	r6, pc, #482344960	; 0x1cc00000
    7454:	72756365 	rsbsvc	r6, r5, #-1811939327	; 0x94000001
    7458:	65766973 	ldrbvs	r6, [r6, #-2419]!	; 0xfffff68d
    745c:	636f6c28 	cmnvs	pc, #40, 24	; 0x2800
    7460:	2820296b 	stmdacs	r0!, {r0, r1, r3, r5, r6, r8, fp, sp}
    7464:	696f7628 	stmdbvs	pc!, {r3, r5, r9, sl, ip, sp, lr}^	; <UNPREDICTABLE>
    7468:	30202964 	eorcc	r2, r0, r4, ror #18
    746c:	5f5f0029 	svcpl	0x005f0029
    7470:	544e4955 	strbpl	r4, [lr], #-2389	; 0xfffff6ab
    7474:	41454c5f 	cmpmi	r5, pc, asr ip
    7478:	32335453 	eorscc	r5, r3, #1392508928	; 0x53000000
    747c:	5059545f 	subspl	r5, r9, pc, asr r4
    7480:	205f5f45 	subscs	r5, pc, r5, asr #30
    7484:	676e6f6c 	strbvs	r6, [lr, -ip, ror #30]!
    7488:	736e7520 	cmnvc	lr, #32, 10	; 0x8000000
    748c:	656e6769 	strbvs	r6, [lr, #-1897]!	; 0xfffff897
    7490:	6e692064 	cdpvs	0, 6, cr2, cr9, cr4, {3}
    7494:	495f0074 	ldmdbmi	pc, {r2, r4, r5, r6}^	; <UNPREDICTABLE>
    7498:	3233544e 	eorscc	r5, r3, #1308622848	; 0x4e000000
    749c:	445f545f 	ldrbmi	r5, [pc], #-1119	; 74a4 <_Min_Stack_Size+0x70a4>
    74a0:	414c4345 	cmpmi	ip, r5, asr #6
    74a4:	20444552 	subcs	r4, r4, r2, asr r5
    74a8:	415f5f00 	cmpmi	pc, r0, lsl #30
    74ac:	465f4d52 			; <UNDEFINED> instruction: 0x465f4d52
    74b0:	55544145 	ldrbpl	r4, [r4, #-325]	; 0xfffffebb
    74b4:	4e5f4552 	mrcmi	5, 2, r4, cr15, cr2, {2}
    74b8:	52454d55 	subpl	r4, r5, #5440	; 0x1540
    74bc:	4d5f4349 	ldclmi	3, cr4, [pc, #-292]	; 73a0 <_Min_Stack_Size+0x6fa0>
    74c0:	494d5841 	stmdbmi	sp, {r0, r6, fp, ip, lr}^
    74c4:	525f004e 	subspl	r0, pc, #78	; 0x4e
    74c8:	34444e41 	strbcc	r4, [r4], #-3649	; 0xfffff1bf
    74cc:	554d5f38 	strbpl	r5, [sp, #-3896]	; 0xfffff0c8
    74d0:	315f544c 	cmpcc	pc, ip, asr #8
    74d4:	78302820 	ldmdavc	r0!, {r5, fp, sp}
    74d8:	63656564 	cmnvs	r5, #100, 10	; 0x19000000
    74dc:	5f5f0029 	svcpl	0x005f0029
    74e0:	4d544e49 	ldclmi	14, cr4, [r4, #-292]	; 0xfffffedc
    74e4:	545f5841 	ldrbpl	r5, [pc], #-2113	; 74ec <_Min_Stack_Size+0x70ec>
    74e8:	5f455059 	svcpl	0x00455059
    74ec:	6f6c205f 	svcvs	0x006c205f
    74f0:	6c20676e 	stcvs	7, cr6, [r0], #-440	; 0xfffffe48
    74f4:	20676e6f 	rsbcs	r6, r7, pc, ror #28
    74f8:	00746e69 	rsbseq	r6, r4, r9, ror #28
    74fc:	544e4955 	strbpl	r4, [lr], #-2389	; 0xfffff6ab
    7500:	5341465f 	movtpl	r4, #5727	; 0x165f
    7504:	5f323354 	svcpl	0x00323354
    7508:	2058414d 	subscs	r4, r8, sp, asr #2
    750c:	555f5f28 	ldrbpl	r5, [pc, #-3880]	; 65ec <_Min_Stack_Size+0x61ec>
    7510:	5f544e49 	svcpl	0x00544e49
    7514:	54534146 	ldrbpl	r4, [r3], #-326	; 0xfffffeba
    7518:	4d5f3233 	lfmmi	f3, 2, [pc, #-204]	; 7454 <_Min_Stack_Size+0x7054>
    751c:	5f5f5841 	svcpl	0x005f5841
    7520:	5f5f0029 	svcpl	0x005f0029
    7524:	5f434347 	svcpl	0x00434347
    7528:	4d4f5441 	cfstrdmi	mvd5, [pc, #-260]	; 742c <_Min_Stack_Size+0x702c>
    752c:	495f4349 	ldmdbmi	pc, {r0, r3, r6, r8, r9, lr}^	; <UNPREDICTABLE>
    7530:	4c5f544e 	cfldrdmi	mvd5, [pc], {78}	; 0x4e
    7534:	5f4b434f 	svcpl	0x004b434f
    7538:	45455246 	strbmi	r5, [r5, #-582]	; 0xfffffdba
    753c:	5f003220 	svcpl	0x00003220
    7540:	6863775f 	stmdavs	r3!, {r0, r1, r2, r3, r4, r6, r8, r9, sl, ip, sp, lr}^
    7544:	525f0062 	subspl	r0, pc, #98	; 0x62
    7548:	34444e41 	strbcc	r4, [r4], #-3649	; 0xfffff1bf
    754c:	45535f38 	ldrbmi	r5, [r3, #-3896]	; 0xfffff0c8
    7550:	305f4445 	subscc	r4, pc, r5, asr #8
    7554:	78302820 	ldmdavc	r0!, {r5, fp, sp}
    7558:	65303333 	ldrvs	r3, [r0, #-819]!	; 0xfffffccd
    755c:	58450029 	stmdapl	r5, {r0, r3, r5}^
    7560:	4c5f4954 	mrrcmi	9, 5, r4, pc, cr4	; <UNPREDICTABLE>
    7564:	31454e49 	cmpcc	r5, r9, asr #28
    7568:	41505f35 	cmpmi	r0, r5, lsr pc
    756c:	28203531 	stmdacs	r0!, {r0, r4, r5, r8, sl, ip, sp}
    7570:	49545845 	ldmdbmi	r4, {r0, r2, r6, fp, ip, lr}^
    7574:	4950475f 	ldmdbmi	r0, {r0, r1, r2, r3, r4, r6, r8, r9, sl, lr}^
    7578:	614d5f4f 	cmpvs	sp, pc, asr #30
    757c:	6e697070 	mcrvs	0, 3, r7, cr9, cr0, {3}
    7580:	29745f67 	ldmdbcs	r4!, {r0, r1, r2, r5, r6, r8, r9, sl, fp, ip, lr}^
    7584:	5458457b 	ldrbpl	r4, [r8], #-1403	; 0xfffffa85
    7588:	2c353149 	ldfcss	f3, [r5], #-292	; 0xfffffedc
    758c:	49504720 	ldmdbmi	r0, {r5, r8, r9, sl, lr}^
    7590:	202c414f 	eorcs	r4, ip, pc, asr #2
    7594:	4f495047 	svcmi	0x00495047
    7598:	4e49505f 	mcrmi	0, 2, r5, cr9, cr15, {2}
    759c:	2c35315f 	ldfcss	f3, [r5], #-380	; 0xfffffe84
    75a0:	54584520 	ldrbpl	r4, [r8], #-1312	; 0xfffffae0
    75a4:	5f353149 	svcpl	0x00353149
    75a8:	7d515249 	lfmvc	f5, 2, [r1, #-292]	; 0xfffffedc
    75ac:	43475f00 	movtmi	r5, #32512	; 0x7f00
    75b0:	414d5f43 	cmpmi	sp, r3, asr #30
    75b4:	4c415f58 	mcrrmi	15, 5, r5, r1, cr8
    75b8:	5f4e4749 	svcpl	0x004e4749
    75bc:	5f002054 	svcpl	0x00002054
    75c0:	6e6f4c5f 	mcrvs	12, 3, r4, cr15, cr15, {2}
    75c4:	6f6c2067 	svcvs	0x006c2067
    75c8:	5f00676e 	svcpl	0x0000676e
    75cc:	6e695f5f 	mcrvs	15, 3, r5, cr9, cr15, {2}
    75d0:	656c5f74 	strbvs	r5, [ip, #-3956]!	; 0xfffff08c
    75d4:	33747361 	cmncc	r4, #-2080374783	; 0x84000001
    75d8:	5f745f32 	svcpl	0x00745f32
    75dc:	69666564 	stmdbvs	r6!, {r2, r5, r6, r8, sl, sp, lr}^
    75e0:	2064656e 	rsbcs	r6, r4, lr, ror #10
    75e4:	5f5f0031 	svcpl	0x005f0031
    75e8:	5f4d5241 	svcpl	0x004d5241
    75ec:	54414546 	strbpl	r4, [r1], #-1350	; 0xfffffaba
    75f0:	5f455255 	svcpl	0x00455255
    75f4:	36315046 	ldrtcc	r5, [r1], -r6, asr #32
    75f8:	4143535f 	cmpmi	r3, pc, asr r3
    75fc:	5f52414c 	svcpl	0x0052414c
    7600:	54495241 	strbpl	r5, [r9], #-577	; 0xfffffdbf
    7604:	54454d48 	strbpl	r4, [r5], #-3400	; 0xfffff2b8
    7608:	47004349 	strmi	r4, [r0, -r9, asr #6]
    760c:	5f4f4950 	svcpl	0x004f4950
    7610:	45444f4d 	strbmi	r4, [r4, #-3917]	; 0xfffff0b3
    7614:	504e495f 	subpl	r4, lr, pc, asr r9
    7618:	465f5455 			; <UNDEFINED> instruction: 0x465f5455
    761c:	30204f4c 	eorcc	r4, r0, ip, asr #30
    7620:	30303078 	eorscc	r3, r0, r8, ror r0
    7624:	30303030 	eorscc	r3, r0, r0, lsr r0
    7628:	5f007531 	svcpl	0x00007531
    762c:	4c445453 	cfstrdmi	mvd5, [r4], {83}	; 0x53
    7630:	485f4249 	ldmdami	pc, {r0, r3, r6, r9, lr}^	; <UNPREDICTABLE>
    7634:	5f00205f 	svcpl	0x0000205f
    7638:	4c42445f 	cfstrdmi	mvd4, [r2], {95}	; 0x5f
    763c:	5341485f 	movtpl	r4, #6239	; 0x185f
    7640:	4955515f 	ldmdbmi	r5, {r0, r1, r2, r3, r4, r6, r8, ip, lr}^
    7644:	4e5f5445 	cdpmi	4, 5, cr5, cr15, cr5, {2}
    7648:	5f5f4e41 	svcpl	0x005f4e41
    764c:	47003120 	strmi	r3, [r0, -r0, lsr #2]
    7650:	434f4950 	movtmi	r4, #63824	; 0xf950
    7654:	5341425f 	movtpl	r4, #4703	; 0x125f
    7658:	78302045 	ldmdavc	r0!, {r0, r2, r6, sp}
    765c:	31303034 	teqcc	r0, r4, lsr r0
    7660:	30303031 	eorscc	r3, r0, r1, lsr r0
    7664:	47004c55 	smlsdmi	r0, r5, ip, r4
    7668:	5f4f4950 	svcpl	0x004f4950
    766c:	5f4e4950 	svcpl	0x004e4950
    7670:	28282037 	stmdacs	r8!, {r0, r1, r2, r4, r5, sp}
    7674:	746e6975 	strbtvc	r6, [lr], #-2421	; 0xfffff68b
    7678:	745f3631 	ldrbvc	r3, [pc], #-1585	; 7680 <_Min_Stack_Size+0x7280>
    767c:	30783029 	rsbscc	r3, r8, r9, lsr #32
    7680:	29303830 	ldmdbcs	r0!, {r4, r5, fp, ip, sp}
    7684:	544e4900 	strbpl	r4, [lr], #-2304	; 0xfffff700
    7688:	435f3233 	cmpmi	pc, #805306371	; 0x30000003
    768c:	20297828 	eorcs	r7, r9, r8, lsr #16
    7690:	4e495f5f 	mcrmi	15, 2, r5, cr9, cr15, {2}
    7694:	5f323354 	svcpl	0x00323354
    7698:	29782843 	ldmdbcs	r8!, {r0, r1, r6, fp, sp}^
    769c:	705f5f00 	subsvc	r5, pc, r0, lsl #30
    76a0:	61767274 	cmnvs	r6, r4, ror r2
    76a4:	2065756c 	rsbcs	r7, r5, ip, ror #10
    76a8:	4f4e5f00 	svcmi	0x004e5f00
    76ac:	494c4e49 	stmdbmi	ip, {r0, r3, r6, r9, sl, fp, lr}^
    76b0:	535f454e 	cmppl	pc, #327155712	; 0x13800000
    76b4:	49544154 	ldmdbmi	r4, {r2, r4, r6, r8, lr}^
    76b8:	4e5f2043 	cdpmi	0, 5, cr2, cr15, cr3, {2}
    76bc:	4c4e494f 	mcrrmi	9, 4, r4, lr, cr15	; <UNPREDICTABLE>
    76c0:	20454e49 	subcs	r4, r5, r9, asr #28
    76c4:	74617473 	strbtvc	r7, [r1], #-1139	; 0xfffffb8d
    76c8:	5f006369 	svcpl	0x00006369
    76cc:	4843414d 	stmdami	r3, {r0, r2, r3, r6, r8, lr}^
    76d0:	5f454e49 	svcpl	0x00454e49
    76d4:	5059545f 	subspl	r5, r9, pc, asr r4
    76d8:	485f5345 	ldmdami	pc, {r0, r2, r6, r8, r9, ip, lr}^	; <UNPREDICTABLE>
    76dc:	5f5f0020 	svcpl	0x005f0020
    76e0:	736e6f63 	cmnvc	lr, #396	; 0x18c
    76e4:	6f632074 	svcvs	0x00632074
    76e8:	0074736e 	rsbseq	r7, r4, lr, ror #6
    76ec:	4349564e 	movtmi	r5, #38478	; 0x964e
    76f0:	5152495f 	cmppl	r2, pc, asr r9
    76f4:	455f3034 	ldrbmi	r3, [pc, #-52]	; 76c8 <_Min_Stack_Size+0x72c8>
    76f8:	39495458 	stmdbcc	r9, {r3, r4, r6, sl, ip, lr}^
    76fc:	5f35315f 	svcpl	0x0035315f
    7700:	62616e45 	rsbvs	r6, r1, #1104	; 0x450
    7704:	2928656c 	stmdbcs	r8!, {r2, r3, r5, r6, r8, sl, sp, lr}
    7708:	564e2820 	strbpl	r2, [lr], -r0, lsr #16
    770c:	495f4349 	ldmdbmi	pc, {r0, r3, r6, r8, r9, lr}^	; <UNPREDICTABLE>
    7710:	31524553 	cmpcc	r2, r3, asr r5
    7714:	203d7c20 	eorscs	r7, sp, r0, lsr #24
    7718:	3c3c3128 	ldfccs	f3, [ip], #-160	; 0xffffff60
    771c:	00292938 	eoreq	r2, r9, r8, lsr r9
    7720:	544e4955 	strbpl	r4, [lr], #-2389	; 0xfffff6ab
    7724:	41454c5f 	cmpmi	r5, pc, asr ip
    7728:	32335453 	eorscc	r5, r3, #1392508928	; 0x53000000
    772c:	58414d5f 	stmdapl	r1, {r0, r1, r2, r3, r4, r6, r8, sl, fp, lr}^
    7730:	5f5f2820 	svcpl	0x005f2820
    7734:	544e4955 	strbpl	r4, [lr], #-2389	; 0xfffff6ab
    7738:	41454c5f 	cmpmi	r5, pc, asr ip
    773c:	32335453 	eorscc	r5, r3, #1392508928	; 0x53000000
    7740:	58414d5f 	stmdapl	r1, {r0, r1, r2, r3, r4, r6, r8, sl, fp, lr}^
    7744:	00295f5f 	eoreq	r5, r9, pc, asr pc
    7748:	4349564e 	movtmi	r5, #38478	; 0x964e
    774c:	5152495f 	cmppl	r2, pc, asr r9
    7750:	58455f38 	stmdapl	r5, {r3, r4, r5, r8, r9, sl, fp, ip, lr}^
    7754:	5f324954 	svcpl	0x00324954
    7758:	61736944 	cmnvs	r3, r4, asr #18
    775c:	28656c62 	stmdacs	r5!, {r1, r5, r6, sl, fp, sp, lr}^
    7760:	4e282029 	cdpmi	0, 2, cr2, cr8, cr9, {1}
    7764:	5f434956 	svcpl	0x00434956
    7768:	52454349 	subpl	r4, r5, #603979777	; 0x24000001
    776c:	3d7c2030 	ldclcc	0, cr2, [ip, #-192]!	; 0xffffff40
    7770:	3c312820 	ldccc	8, cr2, [r1], #-128	; 0xffffff80
    7774:	2929383c 	stmdbcs	r9!, {r2, r3, r4, r5, fp, ip, sp}
    7778:	49504700 	ldmdbmi	r0, {r8, r9, sl, lr}^
    777c:	69505f4f 	ldmdbvs	r0, {r0, r1, r2, r3, r6, r8, r9, sl, fp, ip, lr}^
    7780:	4352006e 	cmpmi	r2, #110	; 0x6e
    7784:	53555f43 	cmppl	r5, #268	; 0x10c
    7788:	33545241 	cmpcc	r4, #268435460	; 0x10000004
    778c:	4b4c435f 	blmi	1318510 <_Min_Stack_Size+0x1318110>
    7790:	284e455f 	stmdacs	lr, {r0, r1, r2, r3, r4, r6, r8, sl, lr}^
    7794:	52282029 	eorpl	r2, r8, #41	; 0x29
    7798:	3e2d4343 	cdpcc	3, 2, cr4, cr13, cr3, {2}
    779c:	31425041 	cmpcc	r2, r1, asr #32
    77a0:	20524e45 	subscs	r4, r2, r5, asr #28
    77a4:	28203d7c 	stmdacs	r0!, {r2, r3, r4, r5, r6, r8, sl, fp, ip, sp}
    77a8:	313c3c31 	teqcc	ip, r1, lsr ip
    77ac:	00292938 	eoreq	r2, r9, r8, lsr r9
    77b0:	4e475f5f 	mcrmi	15, 2, r5, cr7, cr15, {2}
    77b4:	505f4355 	subspl	r4, pc, r5, asr r3	; <UNPREDICTABLE>
    77b8:	45524552 	ldrbmi	r4, [r2, #-1362]	; 0xfffffaae
    77bc:	285f5f51 	ldmdacs	pc, {r0, r4, r6, r8, r9, sl, fp, ip, lr}^	; <UNPREDICTABLE>
    77c0:	6d2c616d 	stfvss	f6, [ip, #-436]!	; 0xfffffe4c
    77c4:	5f202969 	svcpl	0x00202969
    77c8:	554e475f 	strbpl	r4, [lr, #-1887]	; 0xfffff8a1
    77cc:	52505f43 	subspl	r5, r0, #268	; 0x10c
    77d0:	51455245 	cmppl	r5, r5, asr #4
    77d4:	2c616d28 	stclcs	13, cr6, [r1], #-160	; 0xffffff60
    77d8:	29696d20 	stmdbcs	r9!, {r5, r8, sl, fp, sp, lr}^
    77dc:	49504700 	ldmdbmi	r0, {r8, r9, sl, lr}^
    77e0:	425f414f 	subsmi	r4, pc, #-1073741805	; 0xc0000013
    77e4:	20455341 	subcs	r5, r5, r1, asr #6
    77e8:	30347830 	eorscc	r7, r4, r0, lsr r8
    77ec:	38303130 	ldmdacc	r0!, {r4, r5, r8, ip, sp}
    77f0:	4c553030 	mrrcmi	0, 3, r3, r5, cr0
    77f4:	535f5f00 	cmppl	pc, #0, 30
    77f8:	55434341 	strbpl	r4, [r3, #-833]	; 0xfffffcbf
    77fc:	414d5f4d 	cmpmi	sp, sp, asr #30
    7800:	205f5f58 	subscs	r5, pc, r8, asr pc	; <UNPREDICTABLE>
    7804:	46375830 			; <UNDEFINED> instruction: 0x46375830
    7808:	2d504646 	ldclcs	6, cr4, [r0, #-280]	; 0xfffffee8
    780c:	004b4837 	subeq	r4, fp, r7, lsr r8
    7810:	4e495f5f 	mcrmi	15, 2, r5, cr9, cr15, {2}
    7814:	52545054 	subspl	r5, r4, #84	; 0x54
    7818:	5059545f 	subspl	r5, r9, pc, asr r4
    781c:	205f5f45 	subscs	r5, pc, r5, asr #30
    7820:	00746e69 	rsbseq	r6, r4, r9, ror #28
    7824:	49545845 	ldmdbmi	r4, {r0, r2, r6, fp, ip, lr}^
    7828:	52495f38 	subpl	r5, r9, #56, 30	; 0xe0
    782c:	33322051 	teqcc	r2, #81	; 0x51
    7830:	555f5f00 	ldrbpl	r5, [pc, #-3840]	; 6938 <_Min_Stack_Size+0x6538>
    7834:	50544e49 	subspl	r4, r4, r9, asr #28
    7838:	545f5254 	ldrbpl	r5, [pc], #-596	; 7840 <_Min_Stack_Size+0x7440>
    783c:	5f455059 	svcpl	0x00455059
    7840:	6e75205f 	mrcvs	0, 3, r2, cr5, cr15, {2}
    7844:	6e676973 			; <UNDEFINED> instruction: 0x6e676973
    7848:	69206465 	stmdbvs	r0!, {r0, r2, r5, r6, sl, sp, lr}
    784c:	5f00746e 	svcpl	0x0000746e
    7850:	4745525f 	smlsldmi	r5, r5, pc, r2	; <UNPREDICTABLE>
    7854:	45545349 	ldrbmi	r5, [r4, #-841]	; 0xfffffcb7
    7858:	52505f52 	subspl	r5, r0, #328	; 0x148
    785c:	58494645 	stmdapl	r9, {r0, r2, r6, r9, sl, lr}^
    7860:	00205f5f 	eoreq	r5, r0, pc, asr pc
    7864:	4c465f5f 	mcrrmi	15, 5, r5, r6, cr15
    7868:	5f323354 	svcpl	0x00323354
    786c:	5f58414d 	svcpl	0x0058414d
    7870:	2e33205f 	mrccs	0, 1, r2, cr3, cr15, {2}
    7874:	38323034 	ldmdacc	r2!, {r2, r4, r5, ip, sp}
    7878:	36343332 			; <UNDEFINED> instruction: 0x36343332
    787c:	35383336 	ldrcc	r3, [r8, #-822]!	; 0xfffffcca
    7880:	36383832 			; <UNDEFINED> instruction: 0x36383832
    7884:	38332b65 	ldmdacc	r3!, {r0, r2, r5, r6, r8, r9, fp, sp}
    7888:	00323346 	eorseq	r3, r2, r6, asr #6
    788c:	42445f5f 	submi	r5, r4, #380	; 0x17c
    7890:	49445f4c 	stmdbmi	r4, {r2, r3, r6, r8, r9, sl, fp, ip, lr}^
    7894:	205f5f47 	subscs	r5, pc, r7, asr #30
    7898:	5f003531 	svcpl	0x00003531
    789c:	464c555f 			; <UNDEFINED> instruction: 0x464c555f
    78a0:	54434152 	strbpl	r4, [r3], #-338	; 0xfffffeae
    78a4:	5350455f 	cmppl	r0, #398458880	; 0x17c00000
    78a8:	4e4f4c49 	cdpmi	12, 4, cr4, cr15, cr9, {2}
    78ac:	30205f5f 	eorcc	r5, r0, pc, asr pc
    78b0:	2d503178 	ldfcse	f3, [r0, #-480]	; 0xfffffe20
    78b4:	4c553233 	lfmmi	f3, 2, [r5], {51}	; 0x33
    78b8:	5f5f0052 	svcpl	0x005f0052
    78bc:	49534352 	ldmdbmi	r3, {r1, r4, r6, r8, r9, lr}^
    78c0:	29732844 	ldmdbcs	r3!, {r2, r6, fp, sp}^
    78c4:	72747320 	rsbsvc	r7, r4, #32, 6	; 0x80000000
    78c8:	20746375 	rsbscs	r6, r4, r5, ror r3
    78cc:	61685f5f 	cmnvs	r8, pc, asr pc
    78d0:	47006b63 	strmi	r6, [r0, -r3, ror #22]
    78d4:	5f4f4950 	svcpl	0x004f4950
    78d8:	45444f4d 	strbmi	r4, [r4, #-3917]	; 0xfffff0b3
    78dc:	54554f5f 	ldrbpl	r4, [r5], #-3935	; 0xfffff0a1
    78e0:	5f545550 	svcpl	0x00545550
    78e4:	30205050 	eorcc	r5, r0, r0, asr r0
    78e8:	30303078 	eorscc	r3, r0, r8, ror r0
    78ec:	30303030 	eorscc	r3, r0, r0, lsr r0
    78f0:	45007534 	strmi	r7, [r0, #-1332]	; 0xfffffacc
    78f4:	5f495458 	svcpl	0x00495458
    78f8:	454e494c 	strbmi	r4, [lr, #-2380]	; 0xfffff6b4
    78fc:	43505f38 	cmpmi	r0, #56, 30	; 0xe0
    7900:	45282038 	strmi	r2, [r8, #-56]!	; 0xffffffc8
    7904:	5f495458 	svcpl	0x00495458
    7908:	4f495047 	svcmi	0x00495047
    790c:	70614d5f 	rsbvc	r4, r1, pc, asr sp
    7910:	676e6970 			; <UNDEFINED> instruction: 0x676e6970
    7914:	7b29745f 	blvc	a64a98 <_Min_Stack_Size+0xa64698>
    7918:	49545845 	ldmdbmi	r4, {r0, r2, r6, fp, ip, lr}^
    791c:	47202c38 			; <UNDEFINED> instruction: 0x47202c38
    7920:	434f4950 	movtmi	r4, #63824	; 0xf950
    7924:	5047202c 	subpl	r2, r7, ip, lsr #32
    7928:	505f4f49 	subspl	r4, pc, r9, asr #30
    792c:	385f4e49 	ldmdacc	pc, {r0, r3, r6, r9, sl, fp, lr}^	; <UNPREDICTABLE>
    7930:	5845202c 	stmdapl	r5, {r2, r3, r5, sp}^
    7934:	5f384954 	svcpl	0x00384954
    7938:	7d515249 	lfmvc	f5, 2, [r1, #-292]	; 0xfffffedc
    793c:	45525f00 	ldrbmi	r5, [r2, #-3840]	; 0xfffff100
    7940:	5f544e45 	svcpl	0x00544e45
    7944:	4134364c 	teqmi	r4, ip, asr #12
    7948:	4655425f 			; <UNDEFINED> instruction: 0x4655425f
    794c:	72747028 	rsbsvc	r7, r4, #40	; 0x28
    7950:	28282029 	stmdacs	r8!, {r0, r3, r5, sp}
    7954:	29727470 	ldmdbcs	r2!, {r4, r5, r6, sl, ip, sp, lr}^
    7958:	6d5f3e2d 	ldclvs	14, cr3, [pc, #-180]	; 78ac <_Min_Stack_Size+0x74ac>
    795c:	2d637369 	stclcs	3, cr7, [r3, #-420]!	; 0xfffffe5c
    7960:	366c5f3e 	uqasxcc	r5, ip, lr
    7964:	625f6134 	subsvs	r6, pc, #52, 2
    7968:	00296675 	eoreq	r6, r9, r5, ror r6
    796c:	49535f5f 	ldmdbmi	r3, {r0, r1, r2, r3, r4, r6, r8, r9, sl, fp, ip, lr}^
    7970:	464f455a 			; <UNDEFINED> instruction: 0x464f455a
    7974:	5a49535f 	bpl	125c6f8 <_Min_Stack_Size+0x125c2f8>
    7978:	5f545f45 	svcpl	0x00545f45
    797c:	0034205f 	eorseq	r2, r4, pc, asr r0
    7980:	6f6c5f5f 	svcvs	0x006c5f5f
    7984:	635f6b63 	cmpvs	pc, #101376	; 0x18c00
    7988:	65736f6c 	ldrbvs	r6, [r3, #-3948]!	; 0xfffff094
    798c:	6365725f 	cmnvs	r5, #-268435451	; 0xf0000005
    7990:	69737275 	ldmdbvs	r3!, {r0, r2, r4, r5, r6, r9, ip, sp, lr}^
    7994:	6c286576 	cfstr32vs	mvfx6, [r8], #-472	; 0xfffffe28
    7998:	296b636f 	stmdbcs	fp!, {r0, r1, r2, r3, r5, r6, r8, r9, sp, lr}^
    799c:	76282820 	strtvc	r2, [r8], -r0, lsr #16
    79a0:	2964696f 	stmdbcs	r4!, {r0, r1, r2, r3, r5, r6, r8, fp, sp, lr}^
    79a4:	00293020 	eoreq	r3, r9, r0, lsr #32
    79a8:	4349564e 	movtmi	r5, #38478	; 0x964e
    79ac:	4553495f 	ldrbmi	r4, [r3, #-2399]	; 0xfffff6a1
    79b0:	2a203152 	bcs	813f00 <_Min_Stack_Size+0x813b00>
    79b4:	6f762828 	svcvs	0x00762828
    79b8:	6974616c 	ldmdbvs	r4!, {r2, r3, r5, r6, r8, sp, lr}^
    79bc:	7520656c 	strvc	r6, [r0, #-1388]!	; 0xfffffa94
    79c0:	33746e69 	cmncc	r4, #1680	; 0x690
    79c4:	20745f32 	rsbscs	r5, r4, r2, lsr pc
    79c8:	4e20292a 	vmulmi.f16	s4, s0, s21	; <UNPREDICTABLE>
    79cc:	5f434956 	svcpl	0x00434956
    79d0:	45534142 	ldrbmi	r4, [r3, #-322]	; 0xfffffebe
    79d4:	30202b20 	eorcc	r2, r0, r0, lsr #22
    79d8:	29343078 	ldmdbcs	r4!, {r3, r4, r5, r6, ip, sp}
    79dc:	555f5f00 	ldrbpl	r5, [pc, #-3840]	; 6ae4 <_Min_Stack_Size+0x66e4>
    79e0:	36544e49 	ldrbcc	r4, [r4], -r9, asr #28
    79e4:	59545f34 	ldmdbpl	r4, {r2, r4, r5, r8, r9, sl, fp, ip, lr}^
    79e8:	5f5f4550 	svcpl	0x005f4550
    79ec:	6e6f6c20 	cdpvs	12, 6, cr6, cr15, cr0, {1}
    79f0:	6f6c2067 	svcvs	0x006c2067
    79f4:	7520676e 	strvc	r6, [r0, #-1902]!	; 0xfffff892
    79f8:	6769736e 	strbvs	r7, [r9, -lr, ror #6]!
    79fc:	2064656e 	rsbcs	r6, r4, lr, ror #10
    7a00:	00746e69 	rsbseq	r6, r4, r9, ror #28
    7a04:	45445f5f 	strbmi	r5, [r4, #-3935]	; 0xfffff0a1
    7a08:	38323143 	ldmdacc	r2!, {r0, r1, r6, r8, ip, sp}
    7a0c:	4e494d5f 	mcrmi	13, 2, r4, cr9, cr15, {2}
    7a10:	31205f5f 			; <UNDEFINED> instruction: 0x31205f5f
    7a14:	31362d45 	teqcc	r6, r5, asr #26
    7a18:	4c443334 	mcrrmi	3, 3, r3, r4, cr4
    7a1c:	495f5f00 	ldmdbmi	pc, {r8, r9, sl, fp, ip, lr}^	; <UNPREDICTABLE>
    7a20:	3436544e 	ldrtcc	r5, [r6], #-1102	; 0xfffffbb2
    7a24:	6328435f 			; <UNDEFINED> instruction: 0x6328435f
    7a28:	20632029 	rsbcs	r2, r3, r9, lsr #32
    7a2c:	4c202323 	stcmi	3, cr2, [r0], #-140	; 0xffffff74
    7a30:	4148004c 	cmpmi	r8, ip, asr #32
    7a34:	495f4556 	ldmdbmi	pc, {r1, r2, r4, r6, r8, sl, lr}^	; <UNPREDICTABLE>
    7a38:	4654494e 	ldrbmi	r4, [r4], -lr, asr #18
    7a3c:	5f494e49 	svcpl	0x00494e49
    7a40:	41525241 	cmpmi	r2, r1, asr #4
    7a44:	00312059 	eorseq	r2, r1, r9, asr r0
    7a48:	6f6c5f5f 	svcvs	0x006c5f5f
    7a4c:	62616b63 	rsbvs	r6, r1, #101376	; 0x18c00
    7a50:	5f20656c 	svcpl	0x0020656c
    7a54:	636f6c5f 	cmnvs	pc, #24320	; 0x5f00
    7a58:	6e615f6b 	cdpvs	15, 6, cr5, cr1, cr11, {3}
    7a5c:	61746f6e 	cmnvs	r4, lr, ror #30
    7a60:	6c286574 	cfstr32vs	mvfx6, [r8], #-464	; 0xfffffe30
    7a64:	616b636f 	cmnvs	fp, pc, ror #6
    7a68:	29656c62 	stmdbcs	r5!, {r1, r5, r6, sl, fp, sp, lr}^
    7a6c:	49504700 	ldmdbmi	r0, {r8, r9, sl, lr}^
    7a70:	49505f4f 	ldmdbmi	r0, {r0, r1, r2, r3, r6, r8, r9, sl, fp, ip, lr}^
    7a74:	34315f4e 	ldrtcc	r5, [r1], #-3918	; 0xfffff0b2
    7a78:	75282820 	strvc	r2, [r8, #-2080]!	; 0xfffff7e0
    7a7c:	31746e69 	cmncc	r4, r9, ror #28
    7a80:	29745f36 	ldmdbcs	r4!, {r1, r2, r4, r5, r8, r9, sl, fp, ip, lr}^
    7a84:	30347830 	eorscc	r7, r4, r0, lsr r8
    7a88:	00293030 	eoreq	r3, r9, r0, lsr r0
    7a8c:	4e455f5f 	mcrmi	15, 2, r5, cr5, cr15, {2}
    7a90:	45445f44 	strbmi	r5, [r4, #-3908]	; 0xfffff0bc
    7a94:	20534c43 	subscs	r4, r3, r3, asr #24
    7a98:	4c5f5f00 	mrrcmi	15, 0, r5, pc, cr0	; <UNPREDICTABLE>
    7a9c:	5f4c4244 	svcpl	0x004c4244
    7aa0:	5f4e494d 	svcpl	0x004e494d
    7aa4:	2e32205f 	mrccs	0, 1, r2, cr2, cr15, {2}
    7aa8:	30353232 	eorscc	r3, r5, r2, lsr r2
    7aac:	35383337 	ldrcc	r3, [r8, #-823]!	; 0xfffffcc9
    7ab0:	37303538 			; <UNDEFINED> instruction: 0x37303538
    7ab4:	34313032 	ldrtcc	r3, [r1], #-50	; 0xffffffce
    7ab8:	30332d65 	eorscc	r2, r3, r5, ror #26
    7abc:	5f004c38 	svcpl	0x00004c38
    7ac0:	4343415f 	movtmi	r4, #12639	; 0x315f
    7ac4:	495f4d55 	ldmdbmi	pc, {r0, r2, r4, r6, r8, sl, fp, lr}^	; <UNPREDICTABLE>
    7ac8:	5f544942 	svcpl	0x00544942
    7acc:	3631205f 			; <UNDEFINED> instruction: 0x3631205f
    7ad0:	736e7500 	cmnvc	lr, #0, 10
    7ad4:	656e6769 	strbvs	r6, [lr, #-1897]!	; 0xfffff897
    7ad8:	46410064 	strbmi	r0, [r1], -r4, rrx
    7adc:	425f4f49 	subsmi	r4, pc, #292	; 0x124
    7ae0:	20455341 	subcs	r5, r5, r1, asr #6
    7ae4:	30347830 	eorscc	r7, r4, r0, lsr r8
    7ae8:	30303130 	eorscc	r3, r0, r0, lsr r1
    7aec:	4c553030 	mrrcmi	0, 3, r3, r5, cr0
    7af0:	626d5f00 	rsbvs	r5, sp, #0, 30
    7af4:	5f6e656c 	svcpl	0x006e656c
    7af8:	74617473 	strbtvc	r7, [r1], #-1139	; 0xfffffb8d
    7afc:	5f5f0065 	svcpl	0x005f0065
    7b00:	5f736168 	svcpl	0x00736168
    7b04:	6c697562 	cfstr64vs	mvdx7, [r9], #-392	; 0xfffffe78
    7b08:	286e6974 	stmdacs	lr!, {r2, r4, r5, r6, r8, fp, sp, lr}^
    7b0c:	30202978 	eorcc	r2, r0, r8, ror r9
    7b10:	705f5f00 	subsvc	r5, pc, r0, lsl #30
    7b14:	75675f74 	strbvc	r5, [r7, #-3956]!	; 0xfffff08c
    7b18:	65647261 	strbvs	r7, [r4, #-609]!	; 0xfffffd9f
    7b1c:	79625f64 	stmdbvc	r2!, {r2, r5, r6, r8, r9, sl, fp, ip, lr}^
    7b20:	20297828 	eorcs	r7, r9, r8, lsr #16
    7b24:	6f6c5f5f 	svcvs	0x006c5f5f
    7b28:	615f6b63 	cmpvs	pc, r3, ror #22
    7b2c:	746f6e6e 	strbtvc	r6, [pc], #-3694	; 7b34 <_Min_Stack_Size+0x7734>
    7b30:	28657461 	stmdacs	r5!, {r0, r5, r6, sl, ip, sp, lr}^
    7b34:	675f7470 			; <UNDEFINED> instruction: 0x675f7470
    7b38:	64726175 	ldrbtvs	r6, [r2], #-373	; 0xfffffe8b
    7b3c:	625f6465 	subsvs	r6, pc, #1694498816	; 0x65000000
    7b40:	29782879 	ldmdbcs	r8!, {r0, r3, r4, r5, r6, fp, sp}^
    7b44:	5f5f0029 	svcpl	0x005f0029
    7b48:	72617567 	rsbvc	r7, r1, #432013312	; 0x19c00000
    7b4c:	5f646564 	svcpl	0x00646564
    7b50:	78287962 	stmdavc	r8!, {r1, r5, r6, r8, fp, ip, sp, lr}
    7b54:	5f5f2029 	svcpl	0x005f2029
    7b58:	6b636f6c 	blvs	18e3910 <_Min_Stack_Size+0x18e3510>
    7b5c:	6e6e615f 	mcrvs	1, 3, r6, cr14, cr15, {2}
    7b60:	7461746f 	strbtvc	r7, [r1], #-1135	; 0xfffffb91
    7b64:	75672865 	strbvc	r2, [r7, #-2149]!	; 0xfffff79b
    7b68:	65647261 	strbvs	r7, [r4, #-609]!	; 0xfffffd9f
    7b6c:	79625f64 	stmdbvc	r2!, {r2, r5, r6, r8, r9, sl, fp, ip, lr}^
    7b70:	29297828 	stmdbcs	r9!, {r3, r5, fp, ip, sp, lr}
    7b74:	54584500 	ldrbpl	r4, [r8], #-1280	; 0xfffffb00
    7b78:	5f323149 	svcpl	0x00323149
    7b7c:	20515249 	subscs	r5, r1, r9, asr #4
    7b80:	5f003034 	svcpl	0x00003034
    7b84:	554e475f 	strbpl	r4, [lr, #-1887]	; 0xfffff8a1
    7b88:	4b494c43 	blmi	125ac9c <_Min_Stack_Size+0x125a89c>
    7b8c:	5f5f5f45 	svcpl	0x005f5f45
    7b90:	5346464f 	movtpl	r4, #26191	; 0x664f
    7b94:	464f5445 	strbmi	r5, [pc], -r5, asr #8
    7b98:	5f003120 	svcpl	0x00003120
    7b9c:	4e49555f 	mcrmi	5, 2, r5, cr9, cr15, {2}
    7ba0:	5f363154 	svcpl	0x00363154
    7ba4:	29632843 	stmdbcs	r3!, {r0, r1, r6, fp, sp}^
    7ba8:	5f006320 	svcpl	0x00006320
    7bac:	6d79735f 	ldclvs	3, cr7, [r9, #-380]!	; 0xfffffe84
    7bb0:	6d6f635f 	stclvs	3, cr6, [pc, #-380]!	; 7a3c <_Min_Stack_Size+0x763c>
    7bb4:	28746170 	ldmdacs	r4!, {r4, r5, r6, r8, sp, lr}^
    7bb8:	2c6d7973 			; <UNDEFINED> instruction: 0x2c6d7973
    7bbc:	6c706d69 	ldclvs	13, cr6, [r0], #-420	; 0xfffffe5c
    7bc0:	7265762c 	rsbvc	r7, r5, #44, 12	; 0x2c00000
    7bc4:	20296469 	eorcs	r6, r9, r9, ror #8
    7bc8:	73615f5f 	cmnvc	r1, #380	; 0x17c
    7bcc:	285f5f6d 	ldmdacs	pc, {r0, r2, r3, r5, r6, r8, r9, sl, fp, ip, lr}^	; <UNPREDICTABLE>
    7bd0:	79732e22 	ldmdbvc	r3!, {r1, r5, r9, sl, fp, sp}^
    7bd4:	7265766d 	rsbvc	r7, r5, #114294784	; 0x6d00000
    7bd8:	23202220 			; <UNDEFINED> instruction: 0x23202220
    7bdc:	6c706d69 	ldclvs	13, cr6, [r0], #-420	; 0xfffffe5c
    7be0:	202c2220 	eorcs	r2, ip, r0, lsr #4
    7be4:	73232022 			; <UNDEFINED> instruction: 0x73232022
    7be8:	22206d79 	eorcs	r6, r0, #7744	; 0x1e40
    7bec:	23202240 			; <UNDEFINED> instruction: 0x23202240
    7bf0:	69726576 	ldmdbvs	r2!, {r1, r2, r4, r5, r6, r8, sl, sp, lr}^
    7bf4:	5f002964 	svcpl	0x00002964
    7bf8:	5f43435f 	svcpl	0x0043435f
    7bfc:	50505553 	subspl	r5, r0, r3, asr r5
    7c00:	5354524f 	cmppl	r4, #-268435452	; 0xf0000004
    7c04:	495f5f5f 	ldmdbmi	pc, {r0, r1, r2, r3, r4, r6, r8, r9, sl, fp, ip, lr}^	; <UNPREDICTABLE>
    7c08:	4e494c4e 	cdpmi	12, 4, cr4, cr9, cr14, {2}
    7c0c:	205f5f45 	subscs	r5, pc, r5, asr #30
    7c10:	5f5f0031 	svcpl	0x005f0031
    7c14:	5f414455 	svcpl	0x00414455
    7c18:	54494249 	strbpl	r4, [r9], #-585	; 0xfffffdb7
    7c1c:	33205f5f 			; <UNDEFINED> instruction: 0x33205f5f
    7c20:	5f5f0032 	svcpl	0x005f0032
    7c24:	5341454c 	movtpl	r4, #5452	; 0x154c
    7c28:	20363154 	eorscs	r3, r6, r4, asr r1
    7c2c:	00226822 	eoreq	r6, r2, r2, lsr #16
    7c30:	72705f5f 	rsbsvc	r5, r0, #380	; 0x17c
    7c34:	66746e69 	ldrbtvs	r6, [r4], -r9, ror #28
    7c38:	656b696c 	strbvs	r6, [fp, #-2412]!	; 0xfffff694
    7c3c:	746d6628 	strbtvc	r6, [sp], #-1576	; 0xfffff9d8
    7c40:	2c677261 	sfmcs	f7, 2, [r7], #-388	; 0xfffffe7c
    7c44:	73726966 	cmnvc	r2, #1671168	; 0x198000
    7c48:	72617674 	rsbvc	r7, r1, #116, 12	; 0x7400000
    7c4c:	29677261 	stmdbcs	r7!, {r0, r5, r6, r9, ip, sp, lr}^
    7c50:	615f5f20 	cmpvs	pc, r0, lsr #30
    7c54:	69727474 	ldmdbvs	r2!, {r2, r4, r5, r6, sl, ip, sp, lr}^
    7c58:	65747562 	ldrbvs	r7, [r4, #-1378]!	; 0xfffffa9e
    7c5c:	28285f5f 	stmdacs	r8!, {r0, r1, r2, r3, r4, r6, r8, r9, sl, fp, ip, lr}
    7c60:	6f665f5f 	svcvs	0x00665f5f
    7c64:	74616d72 	strbtvc	r6, [r1], #-3442	; 0xfffff28e
    7c68:	28205f5f 	stmdacs	r0!, {r0, r1, r2, r3, r4, r6, r8, r9, sl, fp, ip, lr}
    7c6c:	72705f5f 	rsbsvc	r5, r0, #380	; 0x17c
    7c70:	66746e69 	ldrbtvs	r6, [r4], -r9, ror #28
    7c74:	202c5f5f 	eorcs	r5, ip, pc, asr pc
    7c78:	61746d66 	cmnvs	r4, r6, ror #26
    7c7c:	202c6772 	eorcs	r6, ip, r2, ror r7
    7c80:	73726966 	cmnvc	r2, #1671168	; 0x198000
    7c84:	72617674 	rsbvc	r7, r1, #116, 12	; 0x7400000
    7c88:	29677261 	stmdbcs	r7!, {r0, r5, r6, r9, ip, sp, lr}^
    7c8c:	5f002929 	svcpl	0x00002929
    7c90:	5f4f4e5f 	svcpl	0x004f4e5f
    7c94:	494c4e49 	stmdbmi	ip, {r0, r3, r6, r9, sl, fp, lr}^
    7c98:	5f5f454e 	svcpl	0x005f454e
    7c9c:	5f003120 	svcpl	0x00003120
    7ca0:	7361665f 	cmnvc	r1, #99614720	; 0x5f00000
    7ca4:	6c616374 	stclvs	3, cr6, [r1], #-464	; 0xfffffe30
    7ca8:	5f5f206c 	svcpl	0x005f206c
    7cac:	72747461 	rsbsvc	r7, r4, #1627389952	; 0x61000000
    7cb0:	74756269 	ldrbtvc	r6, [r5], #-617	; 0xfffffd97
    7cb4:	285f5f65 	ldmdacs	pc, {r0, r2, r5, r6, r8, r9, sl, fp, ip, lr}^	; <UNPREDICTABLE>
    7cb8:	665f5f28 	ldrbvs	r5, [pc], -r8, lsr #30
    7cbc:	63747361 	cmnvs	r4, #-2080374783	; 0x84000001
    7cc0:	5f6c6c61 	svcpl	0x006c6c61
    7cc4:	0029295f 	eoreq	r2, r9, pc, asr r9
    7cc8:	36544e49 	ldrbcc	r4, [r4], -r9, asr #28
    7ccc:	494d5f34 	stmdbmi	sp, {r2, r4, r5, r8, r9, sl, fp, ip, lr}^
    7cd0:	2d28204e 	stccs	0, cr2, [r8, #-312]!	; 0xfffffec8
    7cd4:	4e495f5f 	mcrmi	15, 2, r5, cr9, cr15, {2}
    7cd8:	5f343654 	svcpl	0x00343654
    7cdc:	5f58414d 	svcpl	0x0058414d
    7ce0:	202d205f 	eorcs	r2, sp, pc, asr r0
    7ce4:	5f002931 	svcpl	0x00002931
    7ce8:	636f6c5f 	cmnvs	pc, #24320	; 0x5f00
    7cec:	6e615f6b 	cdpvs	15, 6, cr5, cr1, cr11, {3}
    7cf0:	61746f6e 	cmnvs	r4, lr, ror #30
    7cf4:	78286574 	stmdavc	r8!, {r2, r4, r5, r6, r8, sl, sp, lr}
    7cf8:	5f002029 	svcpl	0x00002029
    7cfc:	4554494c 	ldrbmi	r4, [r4, #-2380]	; 0xfffff6b4
    7d00:	4958455f 	ldmdbmi	r8, {r0, r1, r2, r3, r4, r6, r8, sl, lr}^
    7d04:	00312054 	eorseq	r2, r1, r4, asr r0
    7d08:	54415f5f 	strbpl	r5, [r1], #-3935	; 0xfffff0a1
    7d0c:	43494d4f 	movtmi	r4, #40271	; 0x9d4f
    7d10:	4c45525f 	sfmmi	f5, 2, [r5], {95}	; 0x5f
    7d14:	44455841 	strbmi	r5, [r5], #-2113	; 0xfffff7bf
    7d18:	5f003020 	svcpl	0x00003020
    7d1c:	52545441 	subspl	r5, r4, #1090519040	; 0x41000000
    7d20:	54554249 	ldrbpl	r4, [r5], #-585	; 0xfffffdb7
    7d24:	74612845 	strbtvc	r2, [r1], #-2117	; 0xfffff7bb
    7d28:	29737274 	ldmdbcs	r3!, {r2, r4, r5, r6, r9, ip, sp, lr}^
    7d2c:	615f5f20 	cmpvs	pc, r0, lsr #30
    7d30:	69727474 	ldmdbvs	r2!, {r2, r4, r5, r6, sl, ip, sp, lr}^
    7d34:	65747562 	ldrbvs	r7, [r4, #-1378]!	; 0xfffffa9e
    7d38:	28205f5f 	stmdacs	r0!, {r0, r1, r2, r3, r4, r6, r8, r9, sl, fp, ip, lr}
    7d3c:	72747461 	rsbsvc	r7, r4, #1627389952	; 0x61000000
    7d40:	45002973 	strmi	r2, [r0, #-2419]	; 0xfffff68d
    7d44:	5f495458 	svcpl	0x00495458
    7d48:	454e494c 	strbmi	r4, [lr, #-2380]	; 0xfffff6b4
    7d4c:	505f3531 	subspl	r3, pc, r1, lsr r5	; <UNPREDICTABLE>
    7d50:	20353142 	eorscs	r3, r5, r2, asr #2
    7d54:	54584528 	ldrbpl	r4, [r8], #-1320	; 0xfffffad8
    7d58:	50475f49 	subpl	r5, r7, r9, asr #30
    7d5c:	4d5f4f49 	ldclmi	15, cr4, [pc, #-292]	; 7c40 <_Min_Stack_Size+0x7840>
    7d60:	69707061 	ldmdbvs	r0!, {r0, r5, r6, ip, sp, lr}^
    7d64:	745f676e 	ldrbvc	r6, [pc], #-1902	; 7d6c <_Min_Stack_Size+0x796c>
    7d68:	58457b29 	stmdapl	r5, {r0, r3, r5, r8, r9, fp, ip, sp, lr}^
    7d6c:	35314954 	ldrcc	r4, [r1, #-2388]!	; 0xfffff6ac
    7d70:	5047202c 	subpl	r2, r7, ip, lsr #32
    7d74:	2c424f49 	mcrrcs	15, 4, r4, r2, cr9
    7d78:	49504720 	ldmdbmi	r0, {r5, r8, r9, sl, lr}^
    7d7c:	49505f4f 	ldmdbmi	r0, {r0, r1, r2, r3, r6, r8, r9, sl, fp, ip, lr}^
    7d80:	35315f4e 	ldrcc	r5, [r1, #-3918]!	; 0xfffff0b2
    7d84:	5845202c 	stmdapl	r5, {r2, r3, r5, sp}^
    7d88:	35314954 	ldrcc	r4, [r1, #-2388]!	; 0xfffff6ac
    7d8c:	5152495f 	cmppl	r2, pc, asr r9
    7d90:	5f5f007d 	svcpl	0x005f007d
    7d94:	54534146 	ldrbpl	r4, [r3], #-326	; 0xfffffeba
    7d98:	47002038 	smladxmi	r0, r8, r0, r2
    7d9c:	5f4f4950 	svcpl	0x004f4950
    7da0:	55544552 	ldrbpl	r4, [r4, #-1362]	; 0xfffffaae
    7da4:	4c5f4e52 	mrrcmi	14, 5, r4, pc, cr2	; <UNPREDICTABLE>
    7da8:	454b434f 	strbmi	r4, [fp, #-847]	; 0xfffffcb1
    7dac:	00312044 	eorseq	r2, r1, r4, asr #32
    7db0:	4f494641 	svcmi	0x00494641
    7db4:	7079545f 	rsbsvc	r5, r9, pc, asr r4
    7db8:	66654465 	strbtvs	r4, [r5], -r5, ror #8
    7dbc:	445f5f00 	ldrbmi	r5, [pc], #-3840	; 7dc4 <_Min_Stack_Size+0x79c4>
    7dc0:	485f4c42 	ldmdami	pc, {r1, r6, sl, fp, lr}^	; <UNPREDICTABLE>
    7dc4:	495f5341 	ldmdbmi	pc, {r0, r6, r8, r9, ip, lr}^	; <UNPREDICTABLE>
    7dc8:	4e49464e 	cdpmi	6, 4, cr4, cr9, cr14, {2}
    7dcc:	5f595449 	svcpl	0x00595449
    7dd0:	0031205f 	eorseq	r2, r1, pc, asr r0
    7dd4:	49545845 	ldmdbmi	r4, {r0, r2, r6, fp, ip, lr}^
    7dd8:	4e494c5f 	mcrmi	12, 2, r4, cr9, cr15, {2}
    7ddc:	505f3245 	subspl	r3, pc, r5, asr #4
    7de0:	28203241 	stmdacs	r0!, {r0, r6, r9, ip, sp}
    7de4:	49545845 	ldmdbmi	r4, {r0, r2, r6, fp, ip, lr}^
    7de8:	4950475f 	ldmdbmi	r0, {r0, r1, r2, r3, r4, r6, r8, r9, sl, lr}^
    7dec:	614d5f4f 	cmpvs	sp, pc, asr #30
    7df0:	6e697070 	mcrvs	0, 3, r7, cr9, cr0, {3}
    7df4:	29745f67 	ldmdbcs	r4!, {r0, r1, r2, r5, r6, r8, r9, sl, fp, ip, lr}^
    7df8:	5458457b 	ldrbpl	r4, [r8], #-1403	; 0xfffffa85
    7dfc:	202c3249 	eorcs	r3, ip, r9, asr #4
    7e00:	4f495047 	svcmi	0x00495047
    7e04:	47202c41 	strmi	r2, [r0, -r1, asr #24]!
    7e08:	5f4f4950 	svcpl	0x004f4950
    7e0c:	5f4e4950 	svcpl	0x004e4950
    7e10:	45202c32 	strmi	r2, [r0, #-3122]!	; 0xfffff3ce
    7e14:	32495458 	subcc	r5, r9, #88, 8	; 0x58000000
    7e18:	5152495f 	cmppl	r2, pc, asr r9
    7e1c:	5f5f007d 	svcpl	0x005f007d
    7e20:	5f474953 	svcpl	0x00474953
    7e24:	4d4f5441 	cfstrdmi	mvd5, [pc, #-260]	; 7d28 <_Min_Stack_Size+0x7928>
    7e28:	4d5f4349 	ldclmi	3, cr4, [pc, #-292]	; 7d0c <_Min_Stack_Size+0x790c>
    7e2c:	5f5f5841 	svcpl	0x005f5841
    7e30:	37783020 	ldrbcc	r3, [r8, -r0, lsr #32]!
    7e34:	66666666 	strbtvs	r6, [r6], -r6, ror #12
    7e38:	00666666 	rsbeq	r6, r6, r6, ror #12
    7e3c:	4c465f5f 	mcrrmi	15, 5, r5, r6, cr15
    7e40:	5f343654 	svcpl	0x00343654
    7e44:	544e414d 	strbpl	r4, [lr], #-333	; 0xfffffeb3
    7e48:	4749445f 	smlsldmi	r4, r9, pc, r4	; <UNPREDICTABLE>
    7e4c:	35205f5f 	strcc	r5, [r0, #-3935]!	; 0xfffff0a1
    7e50:	525f0033 	subspl	r0, pc, #51	; 0x33
    7e54:	544e4545 	strbpl	r4, [lr], #-1349	; 0xfffffabb
    7e58:	4548435f 	strbmi	r4, [r8, #-863]	; 0xfffffca1
    7e5c:	525f4b43 	subspl	r4, pc, #68608	; 0x10c00
    7e60:	34444e41 	strbcc	r4, [r4], #-3649	; 0xfffff1bf
    7e64:	61762838 	cmnvs	r6, r8, lsr r8
    7e68:	5f202972 	svcpl	0x00202972
    7e6c:	4e454552 	mcrmi	5, 2, r4, cr5, cr2, {2}
    7e70:	48435f54 	stmdami	r3, {r2, r4, r6, r8, r9, sl, fp, ip, lr}^
    7e74:	284b4345 	stmdacs	fp, {r0, r2, r6, r8, r9, lr}^
    7e78:	2c726176 	ldfcse	f6, [r2], #-472	; 0xfffffe28
    7e7c:	34725f20 	ldrbtcc	r5, [r2], #-3872	; 0xfffff0e0
    7e80:	73202c38 			; <UNDEFINED> instruction: 0x73202c38
    7e84:	63757274 	cmnvs	r5, #116, 4	; 0x40000007
    7e88:	725f2074 	subsvc	r2, pc, #116	; 0x74
    7e8c:	34646e61 	strbtcc	r6, [r4], #-3681	; 0xfffff19f
    7e90:	2c2a2038 	stccs	0, cr2, [sl], #-224	; 0xffffff20
    7e94:	7a697320 	bvc	1a64b1c <_Min_Stack_Size+0x1a6471c>
    7e98:	20666f65 	rsbcs	r6, r6, r5, ror #30
    7e9c:	7628282a 	strtvc	r2, [r8], -sl, lsr #16
    7ea0:	2d297261 	sfmcs	f7, 4, [r9, #-388]!	; 0xfffffe7c
    7ea4:	34725f3e 	ldrbtcc	r5, [r2], #-3902	; 0xfffff0c2
    7ea8:	202c2938 	eorcs	r2, ip, r8, lsr r9
    7eac:	4545525f 	strbmi	r5, [r5, #-607]	; 0xfffffda1
    7eb0:	495f544e 	ldmdbmi	pc, {r1, r2, r3, r6, sl, ip, lr}^	; <UNPREDICTABLE>
    7eb4:	5f54494e 	svcpl	0x0054494e
    7eb8:	444e4152 	strbmi	r4, [lr], #-338	; 0xfffffeae
    7ebc:	28283834 	stmdacs	r8!, {r2, r4, r5, fp, ip, sp}
    7ec0:	29726176 	ldmdbcs	r2!, {r1, r2, r4, r5, r6, r8, sp, lr}^
    7ec4:	45002929 	strmi	r2, [r0, #-2345]	; 0xfffff6d7
    7ec8:	33495458 	movtcc	r5, #37976	; 0x9458
    7ecc:	5152495f 	cmppl	r2, pc, asr r9
    7ed0:	646e6148 	strbtvs	r6, [lr], #-328	; 0xfffffeb8
    7ed4:	0072656c 	rsbseq	r6, r2, ip, ror #10
    7ed8:	49545845 	ldmdbmi	r4, {r0, r2, r6, fp, ip, lr}^
    7edc:	52495f37 	subpl	r5, r9, #55, 30	; 0xdc
    7ee0:	33322051 	teqcc	r2, #81	; 0x51
    7ee4:	725f5f00 	subsvc	r5, pc, #0, 30
    7ee8:	65676e61 	strbvs	r6, [r7, #-3681]!	; 0xfffff19f
    7eec:	7428666f 	strtvc	r6, [r8], #-1647	; 0xfffff991
    7ef0:	2c657079 	stclcs	0, cr7, [r5], #-484	; 0xfffffe1c
    7ef4:	72617473 	rsbvc	r7, r1, #1929379840	; 0x73000000
    7ef8:	6e652c74 	mcrvs	12, 3, r2, cr5, cr4, {3}
    7efc:	28202964 	stmdacs	r0!, {r2, r5, r6, r8, fp, sp}
    7f00:	666f5f5f 	uqsaxvs	r5, pc, pc	; <UNPREDICTABLE>
    7f04:	74657366 	strbtvc	r7, [r5], #-870	; 0xfffffc9a
    7f08:	7428666f 	strtvc	r6, [r8], #-1647	; 0xfffff991
    7f0c:	2c657079 	stclcs	0, cr7, [r5], #-484	; 0xfffffe1c
    7f10:	646e6520 	strbtvs	r6, [lr], #-1312	; 0xfffffae0
    7f14:	202d2029 	eorcs	r2, sp, r9, lsr #32
    7f18:	666f5f5f 	uqsaxvs	r5, pc, pc	; <UNPREDICTABLE>
    7f1c:	74657366 	strbtvc	r7, [r5], #-870	; 0xfffffc9a
    7f20:	7428666f 	strtvc	r6, [r8], #-1647	; 0xfffff991
    7f24:	2c657079 	stclcs	0, cr7, [r5], #-484	; 0xfffffe1c
    7f28:	61747320 	cmnvs	r4, r0, lsr #6
    7f2c:	29297472 	stmdbcs	r9!, {r1, r4, r5, r6, sl, ip, sp, lr}
    7f30:	62757300 	rsbsvs	r7, r5, #0, 6
    7f34:	6174706f 	cmnvs	r4, pc, rrx
    7f38:	5f006772 	svcpl	0x00006772
    7f3c:	4553555f 	ldrbmi	r5, [r3, #-1375]	; 0xfffffaa1
    7f40:	4e495f53 	mcrmi	15, 2, r5, cr9, cr3, {2}
    7f44:	49465449 	stmdbmi	r6, {r0, r3, r6, sl, ip, lr}^
    7f48:	5f5f494e 	svcpl	0x005f494e
    7f4c:	5f003120 	svcpl	0x00003120
    7f50:	636f6c5f 	cmnvs	pc, #24320	; 0x5f00
    7f54:	6e695f6b 	cdpvs	15, 6, cr5, cr9, cr11, {3}
    7f58:	6c287469 	cfstrsvs	mvf7, [r8], #-420	; 0xfffffe5c
    7f5c:	296b636f 	stmdbcs	fp!, {r0, r1, r2, r3, r5, r6, r8, r9, sp, lr}^
    7f60:	76282820 	strtvc	r2, [r8], -r0, lsr #16
    7f64:	2964696f 	stmdbcs	r4!, {r0, r1, r2, r3, r5, r6, r8, fp, sp, lr}^
    7f68:	00293020 	eoreq	r3, r9, r0, lsr #32
    7f6c:	45445f5f 	strbmi	r5, [r4, #-3935]	; 0xfffff0a1
    7f70:	5f343643 	svcpl	0x00343643
    7f74:	5f4e494d 	svcpl	0x004e494d
    7f78:	4531205f 	ldrmi	r2, [r1, #-95]!	; 0xffffffa1
    7f7c:	3338332d 	teqcc	r8, #-1275068416	; 0xb4000000
    7f80:	5f004444 	svcpl	0x00004444
    7f84:	65656e5f 	strbvs	r6, [r5, #-3679]!	; 0xfffff1a1
    7f88:	74705f64 	ldrbtvc	r5, [r0], #-3940	; 0xfffff09c
    7f8c:	66696472 			; <UNDEFINED> instruction: 0x66696472
    7f90:	00745f66 	rsbseq	r5, r4, r6, ror #30
    7f94:	4c555f5f 	mrrcmi	15, 5, r5, r5, cr15	; <UNPREDICTABLE>
    7f98:	43415246 	movtmi	r5, #4678	; 0x1246
    7f9c:	414d5f54 	cmpmi	sp, r4, asr pc
    7fa0:	205f5f58 	subscs	r5, pc, r8, asr pc	; <UNPREDICTABLE>
    7fa4:	46465830 			; <UNDEFINED> instruction: 0x46465830
    7fa8:	46464646 	strbmi	r4, [r6], -r6, asr #12
    7fac:	2d504646 	ldclcs	6, cr4, [r0, #-280]	; 0xfffffee8
    7fb0:	4c553233 	lfmmi	f3, 2, [r5], {51}	; 0x33
    7fb4:	5f5f0052 	svcpl	0x005f0052
    7fb8:	5f4c4244 	svcpl	0x004c4244
    7fbc:	49434544 	stmdbmi	r3, {r2, r6, r8, sl, lr}^
    7fc0:	5f4c414d 	svcpl	0x004c414d
    7fc4:	5f474944 	svcpl	0x00474944
    7fc8:	3731205f 			; <UNDEFINED> instruction: 0x3731205f
    7fcc:	616d5f00 	cmnvs	sp, r0, lsl #30
    7fd0:	73647778 	cmnvc	r4, #120, 14	; 0x1e00000
    7fd4:	685f5f00 	ldmdavs	pc, {r8, r9, sl, fp, ip, lr}^	; <UNPREDICTABLE>
    7fd8:	5f657661 	svcpl	0x00657661
    7fdc:	676e6f6c 	strbvs	r6, [lr, -ip, ror #30]!
    7fe0:	31203233 			; <UNDEFINED> instruction: 0x31203233
    7fe4:	544e4900 	strbpl	r4, [lr], #-2304	; 0xfffff700
    7fe8:	41454c5f 	cmpmi	r5, pc, asr ip
    7fec:	5f385453 	svcpl	0x00385453
    7ff0:	204e494d 	subcs	r4, lr, sp, asr #18
    7ff4:	5f5f2d28 	svcpl	0x005f2d28
    7ff8:	5f544e49 	svcpl	0x00544e49
    7ffc:	5341454c 	movtpl	r4, #5452	; 0x154c
    8000:	4d5f3854 	ldclmi	8, cr3, [pc, #-336]	; 7eb8 <_Min_Stack_Size+0x7ab8>
    8004:	5f5f5841 	svcpl	0x005f5841
    8008:	31202d20 			; <UNDEFINED> instruction: 0x31202d20
    800c:	475f0029 	ldrbmi	r0, [pc, -r9, lsr #32]
    8010:	41424f4c 	cmpmi	r2, ip, asr #30
    8014:	45525f4c 	ldrbmi	r5, [r2, #-3916]	; 0xfffff0b4
    8018:	20544e45 	subscs	r4, r4, r5, asr #28
    801c:	6f6c675f 	svcvs	0x006c675f
    8020:	5f6c6162 	svcpl	0x006c6162
    8024:	75706d69 	ldrbvc	r6, [r0, #-3433]!	; 0xfffff297
    8028:	705f6572 	subsvc	r6, pc, r2, ror r5	; <UNPREDICTABLE>
    802c:	5f007274 	svcpl	0x00007274
    8030:	4c4c554e 	cfstr64mi	mvdx5, [ip], {78}	; 0x4e
    8034:	5f003020 	svcpl	0x00003020
    8038:	656c665f 	strbvs	r6, [ip, #-1631]!	; 0xfffff9a1
    803c:	72726178 	rsbsvc	r6, r2, #120, 2
    8040:	5d305b20 	vldmdbpl	r0!, {d5-d20}
    8044:	745f5f00 	ldrbvc	r5, [pc], #-3840	; 804c <_Min_Stack_Size+0x7c4c>
    8048:	65795f6d 	ldrbvs	r5, [r9, #-3949]!	; 0xfffff093
    804c:	5f007261 	svcpl	0x00007261
    8050:	4e454552 	mcrmi	5, 2, r4, cr5, cr2, {2}
    8054:	4e495f54 	mcrmi	15, 2, r5, cr9, cr4, {2}
    8058:	505f5449 	subspl	r5, pc, r9, asr #8
    805c:	5a5f5254 	bpl	17dc9b4 <_Min_Stack_Size+0x17dc5b4>
    8060:	454f5245 	strbmi	r5, [pc, #-581]	; 7e23 <_Min_Stack_Size+0x7a23>
    8064:	61762844 	cmnvs	r6, r4, asr #16
    8068:	7b202972 	blvc	812638 <_Min_Stack_Size+0x812238>
    806c:	61762820 	cmnvs	r6, r0, lsr #16
    8070:	3e2d2972 			; <UNDEFINED> instruction: 0x3e2d2972
    8074:	6474735f 	ldrbtvs	r7, [r4], #-863	; 0xfffffca1
    8078:	3d206e69 	stccc	14, cr6, [r0, #-420]!	; 0xfffffe5c
    807c:	5f5f2820 	svcpl	0x005f2820
    8080:	454c4946 	strbmi	r4, [ip, #-2374]	; 0xfffff6ba
    8084:	26292a20 	strtcs	r2, [r9], -r0, lsr #20
    8088:	66735f5f 	uhsaxvs	r5, r3, pc	; <UNPREDICTABLE>
    808c:	6b61665f 	blvs	1861a10 <_Min_Stack_Size+0x1861610>
    8090:	74735f65 	ldrbtvc	r5, [r3], #-3941	; 0xfffff09b
    8094:	3b6e6964 	blcc	1ba262c <_Min_Stack_Size+0x1ba222c>
    8098:	61762820 	cmnvs	r6, r0, lsr #16
    809c:	3e2d2972 			; <UNDEFINED> instruction: 0x3e2d2972
    80a0:	6474735f 	ldrbtvs	r7, [r4], #-863	; 0xfffffca1
    80a4:	2074756f 	rsbscs	r7, r4, pc, ror #10
    80a8:	5f28203d 	svcpl	0x0028203d
    80ac:	4c49465f 	mcrrmi	6, 5, r4, r9, cr15
    80b0:	292a2045 	stmdbcs	sl!, {r0, r2, r6, sp}
    80b4:	735f5f26 	cmpvc	pc, #38, 30	; 0x98
    80b8:	61665f66 	cmnvs	r6, r6, ror #30
    80bc:	735f656b 	cmpvc	pc, #448790528	; 0x1ac00000
    80c0:	756f6474 	strbvc	r6, [pc, #-1140]!	; 7c54 <_Min_Stack_Size+0x7854>
    80c4:	28203b74 	stmdacs	r0!, {r2, r4, r5, r6, r8, r9, fp, ip, sp}
    80c8:	29726176 	ldmdbcs	r2!, {r1, r2, r4, r5, r6, r8, sp, lr}^
    80cc:	735f3e2d 	cmpvc	pc, #720	; 0x2d0
    80d0:	72656474 	rsbvc	r6, r5, #116, 8	; 0x74000000
    80d4:	203d2072 	eorscs	r2, sp, r2, ror r0
    80d8:	465f5f28 	ldrbmi	r5, [pc], -r8, lsr #30
    80dc:	20454c49 	subcs	r4, r5, r9, asr #24
    80e0:	5f26292a 	svcpl	0x0026292a
    80e4:	5f66735f 	svcpl	0x0066735f
    80e8:	656b6166 	strbvs	r6, [fp, #-358]!	; 0xfffffe9a
    80ec:	6474735f 	ldrbtvs	r7, [r4], #-863	; 0xfffffca1
    80f0:	3b727265 	blcc	1ca4a8c <_Min_Stack_Size+0x1ca468c>
    80f4:	5f007d20 	svcpl	0x00007d20
    80f8:	544e495f 	strbpl	r4, [lr], #-2399	; 0xfffff6a1
    80fc:	4d5f3631 	ldclmi	6, cr3, [pc, #-196]	; 8040 <_Min_Stack_Size+0x7c40>
    8100:	5f5f5841 	svcpl	0x005f5841
    8104:	37783020 	ldrbcc	r3, [r8, -r0, lsr #32]!
    8108:	00666666 	rsbeq	r6, r6, r6, ror #12
    810c:	59535f5f 	ldmdbpl	r3, {r0, r1, r2, r3, r4, r6, r8, r9, sl, fp, ip, lr}^
    8110:	4f435f53 	svcmi	0x00435f53
    8114:	4749464e 	strbmi	r4, [r9, -lr, asr #12]
    8118:	5f5f485f 	svcpl	0x005f485f
    811c:	5f5f0020 	svcpl	0x005f0020
    8120:	4f564544 	svcmi	0x00564544
    8124:	4954414c 	ldmdbmi	r4, {r2, r3, r6, r8, lr}^
    8128:	7428454c 	strtvc	r4, [r8], #-1356	; 0xfffffab4
    812c:	2c657079 	stclcs	0, cr7, [r5], #-484	; 0xfffffe1c
    8130:	29726176 	ldmdbcs	r2!, {r1, r2, r4, r5, r6, r8, sp, lr}^
    8134:	74282820 	strtvc	r2, [r8], #-2080	; 0xfffff7e0
    8138:	29657079 	stmdbcs	r5!, {r0, r3, r4, r5, r6, ip, sp, lr}^
    813c:	755f5f28 	ldrbvc	r5, [pc, #-3880]	; 721c <_Min_Stack_Size+0x6e1c>
    8140:	70746e69 	rsbsvc	r6, r4, r9, ror #28
    8144:	745f7274 	ldrbvc	r7, [pc], #-628	; 814c <_Min_Stack_Size+0x7d4c>
    8148:	6f762829 	svcvs	0x00762829
    814c:	6974616c 	ldmdbvs	r4!, {r2, r3, r5, r6, r8, sp, lr}^
    8150:	7620656c 	strtvc	r6, [r0], -ip, ror #10
    8154:	2064696f 	rsbcs	r6, r4, pc, ror #18
    8158:	7628292a 	strtvc	r2, [r8], -sl, lsr #18
    815c:	29297261 	stmdbcs	r9!, {r0, r5, r6, r9, ip, sp, lr}
    8160:	49504700 	ldmdbmi	r0, {r8, r9, sl, lr}^
    8164:	49505f4f 	ldmdbmi	r0, {r0, r1, r2, r3, r6, r8, r9, sl, fp, ip, lr}^
    8168:	35315f4e 	ldrcc	r5, [r1, #-3918]!	; 0xfffff0b2
    816c:	75282820 	strvc	r2, [r8, #-2080]!	; 0xfffff7e0
    8170:	31746e69 	cmncc	r4, r9, ror #28
    8174:	29745f36 	ldmdbcs	r4!, {r1, r2, r4, r5, r8, r9, sl, fp, ip, lr}^
    8178:	30387830 	eorscc	r7, r8, r0, lsr r8
    817c:	00293030 	eoreq	r3, r9, r0, lsr r0
    8180:	49545845 	ldmdbmi	r4, {r0, r2, r6, fp, ip, lr}^
    8184:	4e494c5f 	mcrmi	12, 2, r4, cr9, cr15, {2}
    8188:	5f303145 	svcpl	0x00303145
    818c:	30314350 	eorscc	r4, r1, r0, asr r3
    8190:	58452820 	stmdapl	r5, {r5, fp, sp}^
    8194:	475f4954 			; <UNDEFINED> instruction: 0x475f4954
    8198:	5f4f4950 	svcpl	0x004f4950
    819c:	7070614d 	rsbsvc	r6, r0, sp, asr #2
    81a0:	5f676e69 	svcpl	0x00676e69
    81a4:	457b2974 	ldrbmi	r2, [fp, #-2420]!	; 0xfffff68c
    81a8:	31495458 	cmpcc	r9, r8, asr r4
    81ac:	47202c30 			; <UNDEFINED> instruction: 0x47202c30
    81b0:	434f4950 	movtmi	r4, #63824	; 0xf950
    81b4:	5047202c 	subpl	r2, r7, ip, lsr #32
    81b8:	505f4f49 	subspl	r4, pc, r9, asr #30
    81bc:	315f4e49 	cmpcc	pc, r9, asr #28
    81c0:	45202c30 	strmi	r2, [r0, #-3120]!	; 0xfffff3d0
    81c4:	31495458 	cmpcc	r9, r8, asr r4
    81c8:	52495f30 	subpl	r5, r9, #48, 30	; 0xc0
    81cc:	5f007d51 	svcpl	0x00007d51
    81d0:	5053535f 	subspl	r5, r3, pc, asr r3
    81d4:	524f465f 	subpl	r4, pc, #99614720	; 0x5f00000
    81d8:	59464954 	stmdbpl	r6, {r2, r4, r6, r8, fp, lr}^
    81dc:	56454c5f 			; <UNDEFINED> instruction: 0x56454c5f
    81e0:	30204c45 	eorcc	r4, r0, r5, asr #24
    81e4:	475f5f00 	ldrbmi	r5, [pc, -r0, lsl #30]
    81e8:	4c43554e 	cfstr64mi	mvdx5, [r3], {78}	; 0x4e
    81ec:	5f454b49 	svcpl	0x00454b49
    81f0:	4c495542 	cfstr64mi	mvdx5, [r9], {66}	; 0x42
    81f4:	5f4e4954 	svcpl	0x004e4954
    81f8:	41445453 	cmpmi	r4, r3, asr r4
    81fc:	31204752 			; <UNDEFINED> instruction: 0x31204752
    8200:	725f5f00 	subsvc	r5, pc, #0, 30
    8204:	6c757365 	ldclvs	3, cr7, [r5], #-404	; 0xfffffe6c
    8208:	73755f74 	cmnvc	r5, #116, 30	; 0x1d0
    820c:	68635f65 	stmdavs	r3!, {r0, r2, r5, r6, r8, r9, sl, fp, ip, lr}^
    8210:	206b6365 	rsbcs	r6, fp, r5, ror #6
    8214:	74615f5f 	strbtvc	r5, [r1], #-3935	; 0xfffff0a1
    8218:	62697274 	rsbvs	r7, r9, #116, 4	; 0x40000007
    821c:	5f657475 	svcpl	0x00657475
    8220:	5f28285f 	svcpl	0x0028285f
    8224:	7261775f 	rsbvc	r7, r1, #24903680	; 0x17c0000
    8228:	6e755f6e 	cdpvs	15, 7, cr5, cr5, cr14, {3}
    822c:	64657375 	strbtvs	r7, [r5], #-885	; 0xfffffc8b
    8230:	7365725f 	cmnvc	r5, #-268435451	; 0xf0000005
    8234:	5f746c75 	svcpl	0x00746c75
    8238:	0029295f 	eoreq	r2, r9, pc, asr r9
    823c:	53585f5f 	cmppl	r8, #380	; 0x17c
    8240:	49565f49 	ldmdbmi	r6, {r0, r3, r6, r8, r9, sl, fp, ip, lr}^
    8244:	4c424953 	mcrrmi	9, 5, r4, r2, cr3	; <UNPREDICTABLE>
    8248:	00302045 	eorseq	r2, r0, r5, asr #32
    824c:	74726f43 	ldrbtvc	r6, [r2], #-3907	; 0xfffff0bd
    8250:	4d5f7865 	ldclmi	8, cr7, [pc, #-404]	; 80c4 <_Min_Stack_Size+0x7cc4>
    8254:	6e495f33 	mcrvs	15, 2, r5, cr9, cr3, {1}
    8258:	6e726574 	mrcvs	5, 3, r6, cr2, cr4, {3}
    825c:	65506c61 	ldrbvs	r6, [r0, #-3169]	; 0xfffff39f
    8260:	68706972 	ldmdavs	r0!, {r1, r4, r5, r6, r8, fp, sp, lr}^
    8264:	6c617265 	sfmvs	f7, 2, [r1], #-404	; 0xfffffe6c
    8268:	41425f73 	hvcmi	9715	; 0x25f3
    826c:	30204553 	eorcc	r4, r0, r3, asr r5
    8270:	30304578 	eorscc	r4, r0, r8, ror r5
    8274:	30303030 	eorscc	r3, r0, r0, lsr r0
    8278:	004c5530 	subeq	r5, ip, r0, lsr r5
    827c:	49545845 	ldmdbmi	r4, {r0, r2, r6, fp, ip, lr}^
    8280:	00372037 	eorseq	r2, r7, r7, lsr r0
    8284:	52525342 	subspl	r5, r2, #134217729	; 0x8000001
    8288:	475f5f00 	ldrbmi	r5, [pc, -r0, lsl #30]
    828c:	415f4343 	cmpmi	pc, r3, asr #6
    8290:	494d4f54 	stmdbmi	sp, {r2, r4, r6, r8, r9, sl, fp, lr}^
    8294:	45545f43 	ldrbmi	r5, [r4, #-3907]	; 0xfffff0bd
    8298:	415f5453 	cmpmi	pc, r3, asr r4	; <UNPREDICTABLE>
    829c:	535f444e 	cmppl	pc, #1308622848	; 0x4e000000
    82a0:	545f5445 	ldrbpl	r5, [pc], #-1093	; 82a8 <_Min_Stack_Size+0x7ea8>
    82a4:	56455552 			; <UNDEFINED> instruction: 0x56455552
    82a8:	31204c41 			; <UNDEFINED> instruction: 0x31204c41
    82ac:	465f5f00 	ldrbmi	r5, [pc], -r0, lsl #30
    82b0:	33545341 	cmpcc	r4, #67108865	; 0x4000001
    82b4:	47002032 	smladxmi	r0, r2, r0, r2
    82b8:	5f4f4950 	svcpl	0x004f4950
    82bc:	5f4e4950 	svcpl	0x004e4950
    82c0:	20746553 	rsbscs	r6, r4, r3, asr r5
    82c4:	5f5f0031 	svcpl	0x005f0031
    82c8:	5f474953 	svcpl	0x00474953
    82cc:	4d4f5441 	cfstrdmi	mvd5, [pc, #-260]	; 81d0 <_Min_Stack_Size+0x7dd0>
    82d0:	575f4349 	ldrbpl	r4, [pc, -r9, asr #6]
    82d4:	48544449 	ldmdami	r4, {r0, r3, r6, sl, lr}^
    82d8:	33205f5f 			; <UNDEFINED> instruction: 0x33205f5f
    82dc:	564e0032 			; <UNDEFINED> instruction: 0x564e0032
    82e0:	495f4349 	ldmdbmi	pc, {r0, r3, r6, r8, r9, lr}^	; <UNPREDICTABLE>
    82e4:	5f395152 	svcpl	0x00395152
    82e8:	49545845 	ldmdbmi	r4, {r0, r2, r6, fp, ip, lr}^
    82ec:	6e455f33 	mcrvs	15, 2, r5, cr5, cr3, {1}
    82f0:	656c6261 	strbvs	r6, [ip, #-609]!	; 0xfffffd9f
    82f4:	28202928 	stmdacs	r0!, {r3, r5, r8, fp, sp}
    82f8:	4349564e 	movtmi	r5, #38478	; 0x964e
    82fc:	4553495f 	ldrbmi	r4, [r3, #-2399]	; 0xfffff6a1
    8300:	7c203052 	stcvc	0, cr3, [r0], #-328	; 0xfffffeb8
    8304:	3128203d 			; <UNDEFINED> instruction: 0x3128203d
    8308:	29393c3c 	ldmdbcs	r9!, {r2, r3, r4, r5, sl, fp, ip, sp}
    830c:	5f5f0029 	svcpl	0x005f0029
    8310:	36544c46 	ldrbcc	r4, [r4], -r6, asr #24
    8314:	50455f34 	subpl	r5, r5, r4, lsr pc
    8318:	4f4c4953 	svcmi	0x004c4953
    831c:	205f5f4e 	subscs	r5, pc, lr, asr #30
    8320:	32322e32 	eorscc	r2, r2, #800	; 0x320
    8324:	36343430 			; <UNDEFINED> instruction: 0x36343430
    8328:	32393430 	eorscc	r3, r9, #48, 8	; 0x30000000
    832c:	31333035 	teqcc	r3, r5, lsr r0
    8330:	2d653133 	stfcse	f3, [r5, #-204]!	; 0xffffff34
    8334:	36463631 			; <UNDEFINED> instruction: 0x36463631
    8338:	525f0034 	subspl	r0, pc, #52	; 0x34
    833c:	544e4545 	strbpl	r4, [lr], #-1349	; 0xfffffabb
    8340:	494e495f 	stmdbmi	lr, {r0, r1, r2, r3, r4, r6, r8, fp, lr}^
    8344:	54415f54 	strbpl	r5, [r1], #-3924	; 0xfffff0ac
    8348:	54495845 	strbpl	r5, [r9], #-2117	; 0xfffff7bb
    834c:	58450020 	stmdapl	r5, {r5}^
    8350:	5f304954 	svcpl	0x00304954
    8354:	48515249 	ldmdami	r1, {r0, r3, r6, r9, ip, lr}^
    8358:	6c646e61 	stclvs	14, cr6, [r4], #-388	; 0xfffffe7c
    835c:	4e007265 	cdpmi	2, 0, cr7, cr0, cr5, {3}
    8360:	5f434956 	svcpl	0x00434956
    8364:	33515249 	cmpcc	r1, #-1879048188	; 0x90000004
    8368:	53555f39 	cmppl	r5, #57, 30	; 0xe4
    836c:	33545241 	cmpcc	r4, #268435460	; 0x10000004
    8370:	616e455f 	cmnvs	lr, pc, asr r5
    8374:	28656c62 	stmdacs	r5!, {r1, r5, r6, sl, fp, sp, lr}^
    8378:	4e282029 	cdpmi	0, 2, cr2, cr8, cr9, {1}
    837c:	5f434956 	svcpl	0x00434956
    8380:	52455349 	subpl	r5, r5, #603979777	; 0x24000001
    8384:	3d7c2031 	ldclcc	0, cr2, [ip, #-196]!	; 0xffffff3c
    8388:	31202820 			; <UNDEFINED> instruction: 0x31202820
    838c:	203c3c20 	eorscs	r3, ip, r0, lsr #24
    8390:	41535528 	cmpmi	r3, r8, lsr #10
    8394:	5f335452 	svcpl	0x00335452
    8398:	2d515249 	lfmcs	f5, 2, [r1, #-292]	; 0xfffffedc
    839c:	20293233 	eorcs	r3, r9, r3, lsr r2
    83a0:	5f002929 	svcpl	0x00002929
    83a4:	4154555f 	cmpmi	r4, pc, asr r5
    83a8:	4942495f 	stmdbmi	r2, {r0, r1, r2, r3, r4, r6, r8, fp, lr}^
    83ac:	205f5f54 	subscs	r5, pc, r4, asr pc	; <UNPREDICTABLE>
    83b0:	5f003436 	svcpl	0x00003436
    83b4:	7274735f 	rsbsvc	r7, r4, #2080374785	; 0x7c000001
    83b8:	5f676e6f 	svcpl	0x00676e6f
    83bc:	65666572 	strbvs	r6, [r6, #-1394]!	; 0xfffffa8e
    83c0:	636e6572 	cmnvs	lr, #478150656	; 0x1c800000
    83c4:	79732865 	ldmdbvc	r3!, {r0, r2, r5, r6, fp, sp}^
    83c8:	6c612c6d 	stclvs	12, cr2, [r1], #-436	; 0xfffffe4c
    83cc:	73736169 	cmnvc	r3, #1073741850	; 0x4000001a
    83d0:	20296d79 	eorcs	r6, r9, r9, ror sp
    83d4:	65747865 	ldrbvs	r7, [r4, #-2149]!	; 0xfffff79b
    83d8:	5f206e72 	svcpl	0x00206e72
    83dc:	7079745f 	rsbsvc	r7, r9, pc, asr r4
    83e0:	20666f65 	rsbcs	r6, r6, r5, ror #30
    83e4:	6d797328 	ldclvs	3, cr7, [r9, #-160]!	; 0xffffff60
    83e8:	6c612029 	stclvs	0, cr2, [r1], #-164	; 0xffffff5c
    83ec:	73736169 	cmnvc	r3, #1073741850	; 0x4000001a
    83f0:	5f206d79 	svcpl	0x00206d79
    83f4:	7474615f 	ldrbtvc	r6, [r4], #-351	; 0xfffffea1
    83f8:	75626972 	strbvc	r6, [r2, #-2418]!	; 0xfffff68e
    83fc:	5f5f6574 	svcpl	0x005f6574
    8400:	5f282820 	svcpl	0x00282820
    8404:	696c615f 	stmdbvs	ip!, {r0, r1, r2, r3, r4, r6, r8, sp, lr}^
    8408:	5f5f7361 	svcpl	0x005f7361
    840c:	73232820 			; <UNDEFINED> instruction: 0x73232820
    8410:	29296d79 	stmdbcs	r9!, {r0, r3, r4, r5, r6, r8, sl, fp, sp, lr}
    8414:	50470029 	subpl	r0, r7, r9, lsr #32
    8418:	545f4f49 	ldrbpl	r4, [pc], #-3913	; 8420 <_Min_Stack_Size+0x8020>
    841c:	44657079 	strbtmi	r7, [r5], #-121	; 0xffffff87
    8420:	5f006665 	svcpl	0x00006665
    8424:	4c4c555f 	cfstr64mi	mvdx5, [ip], {95}	; 0x5f
    8428:	43415246 	movtmi	r5, #4678	; 0x1246
    842c:	50455f54 	subpl	r5, r5, r4, asr pc
    8430:	4f4c4953 	svcmi	0x004c4953
    8434:	205f5f4e 	subscs	r5, pc, lr, asr #30
    8438:	50317830 	eorspl	r7, r1, r0, lsr r8
    843c:	5534362d 	ldrpl	r3, [r4, #-1581]!	; 0xfffff9d3
    8440:	00524c4c 	subseq	r4, r2, ip, asr #24
    8444:	4d49545f 	cfstrdmi	mvd5, [r9, #-380]	; 0xfffffe84
    8448:	545f5245 	ldrbpl	r5, [pc], #-581	; 8450 <_Min_Stack_Size+0x8050>
    844c:	6e75205f 	mrcvs	0, 3, r2, cr5, cr15, {2}
    8450:	6e676973 			; <UNDEFINED> instruction: 0x6e676973
    8454:	6c206465 	cfstrsvs	mvf6, [r0], #-404	; 0xfffffe6c
    8458:	00676e6f 	rsbeq	r6, r7, pc, ror #28
    845c:	66626c5f 			; <UNDEFINED> instruction: 0x66626c5f
    8460:	657a6973 	ldrbvs	r6, [sl, #-2419]!	; 0xfffff68d
    8464:	54415f00 	strbpl	r5, [r1], #-3840	; 0xfffff100
    8468:	54495845 	strbpl	r5, [r9], #-2117	; 0xfffff7bb
    846c:	5a49535f 	bpl	125d1f0 <_Min_Stack_Size+0x125cdf0>
    8470:	32332045 	eorscc	r2, r3, #69	; 0x45
    8474:	535f5f00 	cmppl	pc, #0, 30
    8478:	4f455a49 	svcmi	0x00455a49
    847c:	49575f46 	ldmdbmi	r7, {r1, r2, r6, r8, r9, sl, fp, ip, lr}^
    8480:	545f544e 	ldrbpl	r5, [pc], #-1102	; 8488 <_Min_Stack_Size+0x8088>
    8484:	34205f5f 	strtcc	r5, [r0], #-3935	; 0xfffff0a1
    8488:	49504700 	ldmdbmi	r0, {r8, r9, sl, lr}^
    848c:	69505f4f 	ldmdbvs	r0, {r0, r1, r2, r3, r6, r8, r9, sl, fp, ip, lr}^
    8490:	6d754e6e 	ldclvs	14, cr4, [r5, #-440]!	; 0xfffffe48
    8494:	00726562 	rsbseq	r6, r2, r2, ror #10
    8498:	52415f5f 	subpl	r5, r1, #380	; 0x17c
    849c:	45465f4d 	strbmi	r5, [r6, #-3917]	; 0xfffff0b3
    84a0:	52555441 	subspl	r5, r5, #1090519040	; 0x41000000
    84a4:	4e555f45 	cdpmi	15, 5, cr5, cr5, cr5, {2}
    84a8:	47494c41 	strbmi	r4, [r9, -r1, asr #24]
    84ac:	2044454e 	subcs	r4, r4, lr, asr #10
    84b0:	5f5f0031 	svcpl	0x005f0031
    84b4:	43445453 	movtmi	r5, #17491	; 0x4453
    84b8:	31205f5f 			; <UNDEFINED> instruction: 0x31205f5f
    84bc:	4c5f5f00 	mrrcmi	15, 0, r5, pc, cr0	; <UNPREDICTABLE>
    84c0:	5f4c4244 	svcpl	0x004c4244
    84c4:	49434544 	stmdbmi	r3, {r2, r6, r8, sl, lr}^
    84c8:	5f4c414d 	svcpl	0x004c414d
    84cc:	5f474944 	svcpl	0x00474944
    84d0:	3731205f 			; <UNDEFINED> instruction: 0x3731205f
    84d4:	475f5f00 	ldrbmi	r5, [pc, -r0, lsl #30]
    84d8:	4c43554e 	cfstr64mi	mvdx5, [r3], {78}	; 0x4e
    84dc:	5f454b49 	svcpl	0x00454b49
    84e0:	204d5341 	subcs	r5, sp, r1, asr #6
    84e4:	5f5f0033 	svcpl	0x005f0033
    84e8:	4343414c 	movtmi	r4, #12620	; 0x314c
    84ec:	4d5f4d55 	ldclmi	13, cr4, [pc, #-340]	; 83a0 <_Min_Stack_Size+0x7fa0>
    84f0:	5f5f4e49 	svcpl	0x005f4e49
    84f4:	302d2820 	eorcc	r2, sp, r0, lsr #16
    84f8:	33503158 	cmpcc	r0, #88, 2
    84fc:	2d4b4c31 	stclcs	12, cr4, [fp, #-196]	; 0xffffff3c
    8500:	50315830 	eorspl	r5, r1, r0, lsr r8
    8504:	4b4c3133 	blmi	13149d8 <_Min_Stack_Size+0x13145d8>
    8508:	5f5f0029 	svcpl	0x005f0029
    850c:	5f544e49 	svcpl	0x00544e49
    8510:	54534146 	ldrbpl	r4, [r3], #-326	; 0xfffffeba
    8514:	414d5f38 	cmpmi	sp, r8, lsr pc
    8518:	205f5f58 	subscs	r5, pc, r8, asr pc	; <UNPREDICTABLE>
    851c:	66377830 			; <UNDEFINED> instruction: 0x66377830
    8520:	66666666 	strbtvs	r6, [r6], -r6, ror #12
    8524:	5f006666 	svcpl	0x00006666
    8528:	544c465f 	strbpl	r4, [ip], #-1631	; 0xfffff9a1
    852c:	485f3233 	ldmdami	pc, {r0, r1, r4, r5, r9, ip, sp}^	; <UNPREDICTABLE>
    8530:	445f5341 	ldrbmi	r5, [pc], #-833	; 8538 <_Min_Stack_Size+0x8138>
    8534:	524f4e45 	subpl	r4, pc, #1104	; 0x450
    8538:	205f5f4d 	subscs	r5, pc, sp, asr #30
    853c:	5f5f0031 	svcpl	0x005f0031
    8540:	6e616373 	mcrvs	3, 3, r6, cr1, cr3, {3}
    8544:	6b696c66 	blvs	1a636e4 <_Min_Stack_Size+0x1a632e4>
    8548:	6d662865 	stclvs	8, cr2, [r6, #-404]!	; 0xfffffe6c
    854c:	67726174 			; <UNDEFINED> instruction: 0x67726174
    8550:	7269662c 	rsbvc	r6, r9, #44, 12	; 0x2c00000
    8554:	61767473 	cmnvs	r6, r3, ror r4
    8558:	67726172 			; <UNDEFINED> instruction: 0x67726172
    855c:	5f5f2029 	svcpl	0x005f2029
    8560:	72747461 	rsbsvc	r7, r4, #1627389952	; 0x61000000
    8564:	74756269 	ldrbtvc	r6, [r5], #-617	; 0xfffffd97
    8568:	285f5f65 	ldmdacs	pc, {r0, r2, r5, r6, r8, r9, sl, fp, ip, lr}^	; <UNPREDICTABLE>
    856c:	665f5f28 	ldrbvs	r5, [pc], -r8, lsr #30
    8570:	616d726f 	cmnvs	sp, pc, ror #4
    8574:	205f5f74 	subscs	r5, pc, r4, ror pc	; <UNPREDICTABLE>
    8578:	735f5f28 	cmpvc	pc, #40, 30	; 0xa0
    857c:	666e6163 	strbtvs	r6, [lr], -r3, ror #2
    8580:	202c5f5f 	eorcs	r5, ip, pc, asr pc
    8584:	61746d66 	cmnvs	r4, r6, ror #26
    8588:	202c6772 	eorcs	r6, ip, r2, ror r7
    858c:	73726966 	cmnvc	r2, #1671168	; 0x198000
    8590:	72617674 	rsbvc	r7, r1, #116, 12	; 0x7400000
    8594:	29677261 	stmdbcs	r7!, {r0, r5, r6, r9, ip, sp, lr}^
    8598:	5f002929 	svcpl	0x00002929
    859c:	4e454552 	mcrmi	5, 2, r4, cr5, cr2, {2}
    85a0:	4d535f54 	ldclmi	15, cr5, [r3, #-336]	; 0xfffffeb0
    85a4:	204c4c41 	subcs	r4, ip, r1, asr #24
    85a8:	49504700 	ldmdbmi	r0, {r8, r9, sl, lr}^
    85ac:	4f4d5f4f 	svcmi	0x004d5f4f
    85b0:	4f5f4544 	svcmi	0x005f4544
    85b4:	55505455 	ldrbpl	r5, [r0, #-1109]	; 0xfffffbab
    85b8:	46415f54 			; <UNDEFINED> instruction: 0x46415f54
    85bc:	2050505f 	subscs	r5, r0, pc, asr r0
    85c0:	30307830 	eorscc	r7, r0, r0, lsr r8
    85c4:	30303030 	eorscc	r3, r0, r0, lsr r0
    85c8:	00753630 	rsbseq	r3, r5, r0, lsr r6
    85cc:	4c555f5f 	mrrcmi	15, 5, r5, r5, cr15	; <UNPREDICTABLE>
    85d0:	4343414c 	movtmi	r4, #12620	; 0x314c
    85d4:	4d5f4d55 	ldclmi	13, cr4, [pc, #-340]	; 8488 <_Min_Stack_Size+0x8088>
    85d8:	5f5f4e49 	svcpl	0x005f4e49
    85dc:	302e3020 	eorcc	r3, lr, r0, lsr #32
    85e0:	4b4c4c55 	blmi	131b73c <_Min_Stack_Size+0x131b33c>
    85e4:	59535f00 	ldmdbpl	r3, {r8, r9, sl, fp, ip, lr}^
    85e8:	545f5f53 	ldrbpl	r5, [pc], #-3923	; 85f0 <_Min_Stack_Size+0x81f0>
    85ec:	53455059 	movtpl	r5, #20569	; 0x5059
    85f0:	0020485f 	eoreq	r4, r0, pc, asr r8
    85f4:	4e495f5f 	mcrmi	15, 2, r5, cr9, cr15, {2}
    85f8:	41465f54 	cmpmi	r6, r4, asr pc
    85fc:	32335453 	eorscc	r5, r3, #1392508928	; 0x53000000
    8600:	4449575f 	strbmi	r5, [r9], #-1887	; 0xfffff8a1
    8604:	5f5f4854 	svcpl	0x005f4854
    8608:	00323320 	eorseq	r3, r2, r0, lsr #6
    860c:	4e41525f 	mcrmi	2, 2, r5, cr1, cr15, {2}
    8610:	5f383444 	svcpl	0x00383444
    8614:	544c554d 	strbpl	r5, [ip], #-1357	; 0xfffffab3
    8618:	2820305f 	stmdacs	r0!, {r0, r1, r2, r3, r4, r6, ip, sp}
    861c:	36657830 			; <UNDEFINED> instruction: 0x36657830
    8620:	00296436 	eoreq	r6, r9, r6, lsr r4
    8624:	5f73695f 	svcpl	0x0073695f
    8628:	00617863 	rsbeq	r7, r1, r3, ror #16
    862c:	52435645 	subpl	r5, r3, #72351744	; 0x4500000
    8630:	454e5f00 	strbmi	r5, [lr, #-3840]	; 0xfffff100
    8634:	42494c57 	submi	r4, r9, #22272	; 0x5700
    8638:	4c4c415f 	stfmie	f4, [ip], {95}	; 0x5f
    863c:	5f41434f 	svcpl	0x0041434f
    8640:	5f002048 	svcpl	0x00002048
    8644:	544e495f 	strbpl	r4, [lr], #-2399	; 0xfffff6a1
    8648:	22203233 	eorcs	r3, r0, #805306371	; 0x30000003
    864c:	5f00226c 	svcpl	0x0000226c
    8650:	4d52415f 	ldfmie	f4, [r2, #-380]	; 0xfffffe84
    8654:	4d53415f 	ldfmie	f4, [r3, #-380]	; 0xfffffe84
    8658:	4e59535f 	mrcmi	3, 2, r5, cr9, cr15, {2}
    865c:	5f584154 	svcpl	0x00584154
    8660:	46494e55 			; <UNDEFINED> instruction: 0x46494e55
    8664:	5f444549 	svcpl	0x00444549
    8668:	0031205f 	eorseq	r2, r1, pc, asr r0
    866c:	74727473 	ldrbtvc	r7, [r2], #-1139	; 0xfffffb8d
    8670:	2066646f 	rsbcs	r6, r6, pc, ror #8
    8674:	74727473 	ldrbtvc	r7, [r2], #-1139	; 0xfffffb8d
    8678:	5f00666f 	svcpl	0x0000666f
    867c:	4e49555f 	mcrmi	5, 2, r5, cr9, cr15, {2}
    8680:	5f323354 	svcpl	0x00323354
    8684:	45505954 	ldrbmi	r5, [r0, #-2388]	; 0xfffff6ac
    8688:	6c205f5f 	stcvs	15, cr5, [r0], #-380	; 0xfffffe84
    868c:	20676e6f 	rsbcs	r6, r7, pc, ror #28
    8690:	69736e75 	ldmdbvs	r3!, {r0, r2, r4, r5, r6, r9, sl, fp, sp, lr}^
    8694:	64656e67 	strbtvs	r6, [r5], #-3687	; 0xfffff199
    8698:	746e6920 	strbtvc	r6, [lr], #-2336	; 0xfffff6e0
    869c:	475f5f00 	ldrbmi	r5, [pc, -r0, lsl #30]
    86a0:	4c43554e 	cfstr64mi	mvdx5, [r3], {78}	; 0x4e
    86a4:	5f454b49 	svcpl	0x00454b49
    86a8:	4854414d 	ldmdami	r4, {r0, r2, r3, r6, r8, lr}^
    86ac:	4955425f 	ldmdbmi	r5, {r0, r1, r2, r3, r4, r6, r9, lr}^
    86b0:	4e49544c 	cdpmi	4, 4, cr5, cr9, cr12, {2}
    86b4:	4e4f435f 	mcrmi	3, 2, r4, cr15, cr15, {2}
    86b8:	4e415453 	mcrmi	4, 2, r5, cr1, cr3, {2}
    86bc:	00205354 	eoreq	r5, r0, r4, asr r3
    86c0:	68745f5f 	ldmdavs	r4!, {r0, r1, r2, r3, r4, r6, r8, r9, sl, fp, ip, lr}^
    86c4:	32626d75 	rsbcc	r6, r2, #7488	; 0x1d40
    86c8:	31205f5f 			; <UNDEFINED> instruction: 0x31205f5f
    86cc:	41535500 	cmpmi	r3, r0, lsl #10
    86d0:	20325452 	eorscs	r5, r2, r2, asr r4
    86d4:	53552828 	cmppl	r5, #40, 16	; 0x280000
    86d8:	5f545241 	svcpl	0x00545241
    86dc:	65707954 	ldrbvs	r7, [r0, #-2388]!	; 0xfffff6ac
    86e0:	20666544 	rsbcs	r6, r6, r4, asr #10
    86e4:	5355292a 	cmppl	r5, #688128	; 0xa8000
    86e8:	32545241 	subscc	r5, r4, #268435460	; 0x10000004
    86ec:	5341425f 	movtpl	r4, #4703	; 0x125f
    86f0:	5f002945 	svcpl	0x00002945
    86f4:	6572706d 	ldrbvs	r7, [r2, #-109]!	; 0xffffff93
    86f8:	445f0063 	ldrbmi	r0, [pc], #-99	; 8700 <_Min_Stack_Size+0x8300>
    86fc:	55414645 	strbpl	r4, [r1, #-1605]	; 0xfffff9bb
    8700:	535f544c 	cmppl	pc, #76, 8	; 0x4c000000
    8704:	4352554f 	cmpmi	r2, #331350016	; 0x13c00000
    8708:	5f5f0045 	svcpl	0x005f0045
    870c:	5f434347 	svcpl	0x00434347
    8710:	45564148 	ldrbmi	r4, [r6, #-328]	; 0xfffffeb8
    8714:	4e59535f 	mrcmi	3, 2, r5, cr9, cr15, {2}
    8718:	4f435f43 	svcmi	0x00435f43
    871c:	5241504d 	subpl	r5, r1, #77	; 0x4d
    8720:	4e415f45 	cdpmi	15, 4, cr5, cr1, cr5, {2}
    8724:	57535f44 	ldrbpl	r5, [r3, -r4, asr #30]
    8728:	325f5041 	subscc	r5, pc, #65	; 0x41
    872c:	73003120 	movwvc	r3, #288	; 0x120
    8730:	74726f68 	ldrbtvc	r6, [r2], #-3944	; 0xfffff098
    8734:	00312b20 	eorseq	r2, r1, r0, lsr #22
    8738:	4343475f 	movtmi	r4, #14175	; 0x375f
    873c:	5a49535f 	bpl	125d4c0 <_Min_Stack_Size+0x125d0c0>
    8740:	20545f45 	subscs	r5, r4, r5, asr #30
    8744:	54584500 	ldrbpl	r4, [r8], #-1280	; 0xfffffb00
    8748:	5f353149 	svcpl	0x00353149
    874c:	495f3031 	ldmdbmi	pc, {r0, r4, r5, ip, sp}^	; <UNPREDICTABLE>
    8750:	61485152 	cmpvs	r8, r2, asr r1
    8754:	656c646e 	strbvs	r6, [ip, #-1134]!	; 0xfffffb92
    8758:	6d5f0072 	ldclvs	0, cr0, [pc, #-456]	; 8598 <_Min_Stack_Size+0x8198>
    875c:	00637369 	rsbeq	r7, r3, r9, ror #6
    8760:	4c555f5f 	mrrcmi	15, 5, r5, r5, cr15	; <UNPREDICTABLE>
    8764:	4152464c 	cmpmi	r2, ip, asr #12
    8768:	4d5f5443 	cfldrdmi	mvd5, [pc, #-268]	; 8664 <_Min_Stack_Size+0x8264>
    876c:	5f5f4e49 	svcpl	0x005f4e49
    8770:	302e3020 	eorcc	r3, lr, r0, lsr #32
    8774:	524c4c55 	subpl	r4, ip, #21760	; 0x5500
    8778:	5f545f00 	svcpl	0x00545f00
    877c:	41484357 	cmpmi	r8, r7, asr r3
    8780:	00205f52 	eoreq	r5, r0, r2, asr pc
    8784:	4c555f5f 	mrrcmi	15, 5, r5, r5, cr15	; <UNPREDICTABLE>
    8788:	00676e6f 	rsbeq	r6, r7, pc, ror #28
    878c:	52415f5f 	subpl	r5, r1, #380	; 0x17c
    8790:	50465f4d 	subpl	r5, r6, sp, asr #30
    8794:	415f3631 	cmpmi	pc, r1, lsr r6	; <UNPREDICTABLE>
    8798:	00534752 	subseq	r4, r3, r2, asr r7
    879c:	6f6c5f5f 	svcvs	0x006c5f5f
    87a0:	725f6b63 	subsvc	r6, pc, #101376	; 0x18c00
    87a4:	61656c65 	cmnvs	r5, r5, ror #24
    87a8:	6c286573 	cfstr32vs	mvfx6, [r8], #-460	; 0xfffffe34
    87ac:	296b636f 	stmdbcs	fp!, {r0, r1, r2, r3, r5, r6, r8, r9, sp, lr}^
    87b0:	76282820 	strtvc	r2, [r8], -r0, lsr #16
    87b4:	2964696f 	stmdbcs	r4!, {r0, r1, r2, r3, r5, r6, r8, fp, sp, lr}^
    87b8:	00293020 	eoreq	r3, r9, r0, lsr #32
    87bc:	49535f5f 	ldmdbmi	r3, {r0, r1, r2, r3, r4, r6, r8, r9, sl, fp, ip, lr}^
    87c0:	464f455a 			; <UNDEFINED> instruction: 0x464f455a
    87c4:	544e495f 	strbpl	r4, [lr], #-2399	; 0xfffff6a1
    87c8:	34205f5f 	strtcc	r5, [r0], #-3935	; 0xfffff0a1
    87cc:	53425f00 	movtpl	r5, #12032	; 0x2f00
    87d0:	43575f44 	cmpmi	r7, #68, 30	; 0x110
    87d4:	5f524148 	svcpl	0x00524148
    87d8:	41005f54 	tstmi	r0, r4, asr pc
    87dc:	204f4946 	subcs	r4, pc, r6, asr #18
    87e0:	46412828 	strbmi	r2, [r1], -r8, lsr #16
    87e4:	545f4f49 	ldrbpl	r4, [pc], #-3913	; 87ec <_Min_Stack_Size+0x83ec>
    87e8:	44657079 	strbtmi	r7, [r5], #-121	; 0xffffff87
    87ec:	2a206665 	bcs	822188 <_Min_Stack_Size+0x821d88>
    87f0:	49464129 	stmdbmi	r6, {r0, r3, r5, r8, lr}^
    87f4:	41425f4f 	cmpmi	r2, pc, asr #30
    87f8:	00294553 	eoreq	r4, r9, r3, asr r5
    87fc:	4c4c5f5f 	mcrrmi	15, 5, r5, ip, cr15
    8800:	43415246 	movtmi	r5, #4678	; 0x1246
    8804:	42495f54 	submi	r5, r9, #84, 30	; 0x150
    8808:	5f5f5449 	svcpl	0x005f5449
    880c:	5f003020 	svcpl	0x00003020
    8810:	5f43435f 	svcpl	0x0043435f
    8814:	50505553 	subspl	r5, r0, r3, asr r5
    8818:	5354524f 	cmppl	r4, #-268435452	; 0xf0000004
    881c:	5241565f 	subpl	r5, r1, #99614720	; 0x5f00000
    8820:	43494441 	movtmi	r4, #37953	; 0x9441
    8824:	5858585f 	ldmdapl	r8, {r0, r1, r2, r3, r4, r6, fp, ip, lr}^
    8828:	5f003120 	svcpl	0x00003120
    882c:	657a6973 	ldrbvs	r6, [sl, #-2419]!	; 0xfffff68d
    8830:	59535f00 	ldmdbpl	r3, {r8, r9, sl, fp, ip, lr}^
    8834:	495f5f53 	ldmdbmi	pc, {r0, r1, r4, r6, r8, r9, sl, fp, ip, lr}^	; <UNPREDICTABLE>
    8838:	5553544e 	ldrbpl	r5, [r3, #-1102]	; 0xfffffbb2
    883c:	20485f50 	subcs	r5, r8, r0, asr pc
    8840:	535f5f00 	cmppl	pc, #0, 30
    8844:	55434341 	strbpl	r4, [r3, #-833]	; 0xfffffcbf
    8848:	50455f4d 	subpl	r5, r5, sp, asr #30
    884c:	4f4c4953 	svcmi	0x004c4953
    8850:	205f5f4e 	subscs	r5, pc, lr, asr #30
    8854:	50317830 	eorspl	r7, r1, r0, lsr r8
    8858:	4b48372d 	blmi	1216514 <_Min_Stack_Size+0x1216114>
    885c:	5f5f5f00 	svcpl	0x005f5f00
    8860:	5f746e69 	svcpl	0x00746e69
    8864:	7361656c 	cmnvc	r1, #108, 10	; 0x1b000000
    8868:	5f343674 	svcpl	0x00343674
    886c:	65645f74 	strbvs	r5, [r4, #-3956]!	; 0xfffff08c
    8870:	656e6966 	strbvs	r6, [lr, #-2406]!	; 0xfffff69a
    8874:	00312064 	eorseq	r2, r1, r4, rrx
    8878:	7365725f 	cmnvc	r5, #-268435451	; 0xf0000005
    887c:	00746c75 	rsbseq	r6, r4, r5, ror ip
    8880:	5f544e49 	svcpl	0x00544e49
    8884:	54534146 	ldrbpl	r4, [r3], #-326	; 0xfffffeba
    8888:	4d5f3436 	cfldrdmi	mvd3, [pc, #-216]	; 87b8 <_Min_Stack_Size+0x83b8>
    888c:	28205841 	stmdacs	r0!, {r0, r6, fp, ip, lr}
    8890:	4e495f5f 	mcrmi	15, 2, r5, cr9, cr15, {2}
    8894:	41465f54 	cmpmi	r6, r4, asr pc
    8898:	34365453 	ldrtcc	r5, [r6], #-1107	; 0xfffffbad
    889c:	58414d5f 	stmdapl	r1, {r0, r1, r2, r3, r4, r6, r8, sl, fp, lr}^
    88a0:	00295f5f 	eoreq	r5, r9, pc, asr pc
    88a4:	534f505f 	movtpl	r5, #61535	; 0xf05f
    88a8:	535f5849 	cmppl	pc, #4784128	; 0x490000
    88ac:	4352554f 	cmpmi	r2, #331350016	; 0x13c00000
    88b0:	00312045 	eorseq	r2, r1, r5, asr #32
    88b4:	4f495047 	svcmi	0x00495047
    88b8:	444f4d5f 	strbmi	r4, [pc], #-3423	; 88c0 <_Min_Stack_Size+0x84c0>
    88bc:	46415f45 	strbmi	r5, [r1], -r5, asr #30
    88c0:	504e495f 	subpl	r4, lr, pc, asr r9
    88c4:	30205455 	eorcc	r5, r0, r5, asr r4
    88c8:	30303078 	eorscc	r3, r0, r8, ror r0
    88cc:	30303030 	eorscc	r3, r0, r0, lsr r0
    88d0:	5f007538 	svcpl	0x00007538
    88d4:	4e49555f 	mcrmi	5, 2, r5, cr9, cr15, {2}
    88d8:	41465f54 	cmpmi	r6, r4, asr pc
    88dc:	36315453 			; <UNDEFINED> instruction: 0x36315453
    88e0:	5059545f 	subspl	r5, r9, pc, asr r4
    88e4:	205f5f45 	subscs	r5, pc, r5, asr #30
    88e8:	69736e75 	ldmdbvs	r3!, {r0, r2, r4, r5, r6, r9, sl, fp, sp, lr}^
    88ec:	64656e67 	strbtvs	r6, [r5], #-3687	; 0xfffff199
    88f0:	746e6920 	strbtvc	r6, [lr], #-2336	; 0xfffff6e0
    88f4:	555f5f00 	ldrbpl	r5, [pc, #-3840]	; 79fc <_Min_Stack_Size+0x75fc>
    88f8:	495f4148 	ldmdbmi	pc, {r3, r6, r8, lr}^	; <UNPREDICTABLE>
    88fc:	5f544942 	svcpl	0x00544942
    8900:	0038205f 	eorseq	r2, r8, pc, asr r0
    8904:	656e5f5f 	strbvs	r5, [lr, #-3935]!	; 0xfffff0a1
    8908:	775f6465 	ldrbvc	r6, [pc, -r5, ror #8]
    890c:	5f746e69 	svcpl	0x00746e69
    8910:	5f002074 	svcpl	0x00002074
    8914:	4343415f 	movtmi	r4, #12639	; 0x315f
    8918:	455f4d55 	ldrbmi	r4, [pc, #-3413]	; 7bcb <_Min_Stack_Size+0x77cb>
    891c:	4c495350 	mcrrmi	3, 5, r5, r9, cr0
    8920:	5f5f4e4f 	svcpl	0x005f4e4f
    8924:	31783020 	cmncc	r8, r0, lsr #32
    8928:	35312d50 	ldrcc	r2, [r1, #-3408]!	; 0xfffff2b0
    892c:	5f5f004b 	svcpl	0x005f004b
    8930:	43414c55 	movtmi	r4, #7253	; 0x1c55
    8934:	5f4d5543 	svcpl	0x004d5543
    8938:	49535045 	ldmdbmi	r3, {r0, r2, r6, ip, lr}^
    893c:	5f4e4f4c 	svcpl	0x004e4f4c
    8940:	7830205f 	ldmdavc	r0!, {r0, r1, r2, r3, r4, r6, sp}
    8944:	332d5031 			; <UNDEFINED> instruction: 0x332d5031
    8948:	4b4c5532 	blmi	131de18 <_Min_Stack_Size+0x131da18>
    894c:	4c5f5f00 	mrrcmi	15, 0, r5, pc, cr0	; <UNPREDICTABLE>
    8950:	5f4c4244 	svcpl	0x004c4244
    8954:	5f474944 	svcpl	0x00474944
    8958:	3531205f 	ldrcc	r2, [r1, #-95]!	; 0xffffffa1
    895c:	445f5f00 	ldrbmi	r5, [pc], #-3840	; 8964 <_Min_Stack_Size+0x8564>
    8960:	4d5f4c42 	ldclmi	12, cr4, [pc, #-264]	; 8860 <_Min_Stack_Size+0x8460>
    8964:	5f5f4e49 	svcpl	0x005f4e49
    8968:	64282820 	strtvs	r2, [r8], #-2080	; 0xfffff7e0
    896c:	6c62756f 	cfstr64vs	mvdx7, [r2], #-444	; 0xfffffe44
    8970:	2e322965 	vsubcs.f16	s4, s4, s11	; <UNPREDICTABLE>
    8974:	30353232 	eorscc	r3, r5, r2, lsr r2
    8978:	35383337 	ldrcc	r3, [r8, #-823]!	; 0xfffffcc9
    897c:	37303538 			; <UNDEFINED> instruction: 0x37303538
    8980:	34313032 	ldrtcc	r3, [r1], #-50	; 0xffffffce
    8984:	30332d65 	eorscc	r2, r3, r5, ror #26
    8988:	00294c38 	eoreq	r4, r9, r8, lsr ip
    898c:	49535f5f 	ldmdbmi	r3, {r0, r1, r2, r3, r4, r6, r8, r9, sl, fp, ip, lr}^
    8990:	575f455a 			; <UNDEFINED> instruction: 0x575f455a
    8994:	48544449 	ldmdami	r4, {r0, r3, r6, sl, lr}^
    8998:	33205f5f 			; <UNDEFINED> instruction: 0x33205f5f
    899c:	525f0032 	subspl	r0, pc, #50	; 0x32
    89a0:	544e4545 	strbpl	r4, [lr], #-1349	; 0xfffffabb
    89a4:	5f504d5f 	svcpl	0x00504d5f
    89a8:	55534552 	ldrbpl	r4, [r3, #-1362]	; 0xfffffaae
    89ac:	7028544c 	eorvc	r5, r8, ip, asr #8
    89b0:	20297274 	eorcs	r7, r9, r4, ror r2
    89b4:	74702828 	ldrbtvc	r2, [r0], #-2088	; 0xfffff7d8
    89b8:	3e2d2972 			; <UNDEFINED> instruction: 0x3e2d2972
    89bc:	2d706d5f 	ldclcs	13, cr6, [r0, #-380]!	; 0xfffffe84
    89c0:	65725f3e 	ldrbvs	r5, [r2, #-3902]!	; 0xfffff0c2
    89c4:	746c7573 	strbtvc	r7, [ip], #-1395	; 0xfffffa8d
    89c8:	5f5f0029 	svcpl	0x005f0029
    89cc:	544e4957 	strbpl	r4, [lr], #-2391	; 0xfffff6a9
    89d0:	4e494d5f 	mcrmi	13, 2, r4, cr9, cr15, {2}
    89d4:	30205f5f 	eorcc	r5, r0, pc, asr pc
    89d8:	6f5f0055 	svcvs	0x005f0055
    89dc:	745f6666 	ldrbvc	r6, [pc], #-1638	; 89e4 <_Min_Stack_Size+0x85e4>
    89e0:	465f5f00 	ldrbmi	r5, [pc], -r0, lsl #30
    89e4:	3436544c 	ldrtcc	r5, [r6], #-1100	; 0xfffffbb4
    89e8:	4749445f 	smlsldmi	r4, r9, pc, r4	; <UNPREDICTABLE>
    89ec:	31205f5f 			; <UNDEFINED> instruction: 0x31205f5f
    89f0:	5f5f0035 	svcpl	0x005f0035
    89f4:	36434544 	strbcc	r4, [r3], -r4, asr #10
    89f8:	50455f34 	subpl	r5, r5, r4, lsr pc
    89fc:	4f4c4953 	svcmi	0x004c4953
    8a00:	205f5f4e 	subscs	r5, pc, lr, asr #30
    8a04:	312d4531 			; <UNDEFINED> instruction: 0x312d4531
    8a08:	00444435 	subeq	r4, r4, r5, lsr r4
    8a0c:	49545845 	ldmdbmi	r4, {r0, r2, r6, fp, ip, lr}^
    8a10:	31203531 			; <UNDEFINED> instruction: 0x31203531
    8a14:	5f5f0035 	svcpl	0x005f0035
    8a18:	544e4957 	strbpl	r4, [lr], #-2391	; 0xfffff6a9
    8a1c:	58414d5f 	stmdapl	r1, {r0, r1, r2, r3, r4, r6, r8, sl, fp, lr}^
    8a20:	30205f5f 	eorcc	r5, r0, pc, asr pc
    8a24:	66666678 			; <UNDEFINED> instruction: 0x66666678
    8a28:	66666666 	strbtvs	r6, [r6], -r6, ror #12
    8a2c:	5f005566 	svcpl	0x00005566
    8a30:	544e495f 	strbpl	r4, [lr], #-2399	; 0xfffff6a1
    8a34:	41454c5f 	cmpmi	r5, pc, asr ip
    8a38:	5f385453 	svcpl	0x00385453
    8a3c:	54444957 	strbpl	r4, [r4], #-2391	; 0xfffff6a9
    8a40:	205f5f48 	subscs	r5, pc, r8, asr #30
    8a44:	5f5f0038 	svcpl	0x005f0038
    8a48:	6e656572 	mcrvs	5, 3, r6, cr5, cr2, {3}
    8a4c:	73615f74 	cmnvc	r1, #116, 30	; 0x1d0
    8a50:	74726573 	ldrbtvc	r6, [r2], #-1395	; 0xfffffa8d
    8a54:	20297828 	eorcs	r7, r9, r8, lsr #16
    8a58:	6f762828 	svcvs	0x00762828
    8a5c:	30296469 	eorcc	r6, r9, r9, ror #8
    8a60:	5f5f0029 	svcpl	0x005f0029
    8a64:	676e6f6c 	strbvs	r6, [lr, -ip, ror #30]!
    8a68:	756f645f 	strbvc	r6, [pc, #-1119]!	; 8611 <_Min_Stack_Size+0x8211>
    8a6c:	5f656c62 	svcpl	0x00656c62
    8a70:	6f6c2074 	svcvs	0x006c2074
    8a74:	6420676e 	strtvs	r6, [r0], #-1902	; 0xfffff892
    8a78:	6c62756f 	cfstr64vs	mvdx7, [r2], #-444	; 0xfffffe44
    8a7c:	5f5f0065 	svcpl	0x005f0065
    8a80:	5f544e49 	svcpl	0x00544e49
    8a84:	5341454c 	movtpl	r4, #5452	; 0x154c
    8a88:	5f363154 	svcpl	0x00363154
    8a8c:	45505954 	ldrbmi	r5, [r0, #-2388]	; 0xfffff6ac
    8a90:	73205f5f 			; <UNDEFINED> instruction: 0x73205f5f
    8a94:	74726f68 	ldrbtvc	r6, [r2], #-3944	; 0xfffff098
    8a98:	746e6920 	strbtvc	r6, [lr], #-2336	; 0xfffff6e0
    8a9c:	64615f00 	strbtvs	r5, [r1], #-3840	; 0xfffff100
    8aa0:	5f5f0064 	svcpl	0x005f0064
    8aa4:	465f5151 			; <UNDEFINED> instruction: 0x465f5151
    8aa8:	5f544942 	svcpl	0x00544942
    8aac:	0037205f 	eorseq	r2, r7, pc, asr r0
    8ab0:	42445f5f 	submi	r5, r4, #380	; 0x17c
    8ab4:	414d5f4c 	cmpmi	sp, ip, asr #30
    8ab8:	205f5f58 	subscs	r5, pc, r8, asr pc	; <UNPREDICTABLE>
    8abc:	6f642828 	svcvs	0x00642828
    8ac0:	656c6275 	strbvs	r6, [ip, #-629]!	; 0xfffffd8b
    8ac4:	372e3129 	strcc	r3, [lr, -r9, lsr #2]!
    8ac8:	39363739 	ldmdbcc	r6!, {r0, r3, r4, r5, r8, r9, sl, ip, sp}
    8acc:	34333133 	ldrtcc	r3, [r3], #-307	; 0xfffffecd
    8ad0:	33323638 	teqcc	r2, #56, 12	; 0x3800000
    8ad4:	65373531 	ldrvs	r3, [r7, #-1329]!	; 0xfffffacf
    8ad8:	3830332b 	ldmdacc	r0!, {r0, r1, r3, r5, r8, r9, ip, sp}
    8adc:	5f00294c 	svcpl	0x0000294c
    8ae0:	464c4c5f 			; <UNDEFINED> instruction: 0x464c4c5f
    8ae4:	54434152 	strbpl	r4, [r3], #-338	; 0xfffffeae
    8ae8:	4942465f 	stmdbmi	r2, {r0, r1, r2, r3, r4, r6, r9, sl, lr}^
    8aec:	205f5f54 	subscs	r5, pc, r4, asr pc	; <UNPREDICTABLE>
    8af0:	5f003336 	svcpl	0x00003336
    8af4:	5f6d745f 	svcpl	0x006d745f
    8af8:	72756f68 	rsbsvc	r6, r5, #104, 30	; 0x1a0
    8afc:	745f5f00 	ldrbvc	r5, [pc], #-3840	; 8b04 <_Min_Stack_Size+0x8704>
    8b00:	626d7568 	rsbvs	r7, sp, #104, 10	; 0x1a000000
    8b04:	31205f5f 			; <UNDEFINED> instruction: 0x31205f5f
    8b08:	415f5f00 	cmpmi	pc, r0, lsl #30
    8b0c:	4c454d52 	mcrrmi	13, 5, r4, r5, cr2
    8b10:	31205f5f 			; <UNDEFINED> instruction: 0x31205f5f
    8b14:	49504700 	ldmdbmi	r0, {r8, r9, sl, lr}^
    8b18:	49505f4f 	ldmdbmi	r0, {r0, r1, r2, r3, r6, r8, r9, sl, fp, ip, lr}^
    8b1c:	65525f4e 	ldrbvs	r5, [r2, #-3918]	; 0xfffff0b2
    8b20:	20746573 	rsbscs	r6, r4, r3, ror r5
    8b24:	495f0030 	ldmdbmi	pc, {r4, r5}^	; <UNPREDICTABLE>
    8b28:	414d544e 	cmpmi	sp, lr, asr #8
    8b2c:	5f545f58 	svcpl	0x00545f58
    8b30:	4c434544 	cfstr64mi	mvdx4, [r3], {68}	; 0x44
    8b34:	44455241 	strbmi	r5, [r5], #-577	; 0xfffffdbf
    8b38:	5f5f0020 	svcpl	0x005f0020
    8b3c:	6d726f66 	ldclvs	15, cr6, [r2, #-408]!	; 0xfffffe68
    8b40:	615f7461 	cmpvs	pc, r1, ror #8
    8b44:	66286772 			; <UNDEFINED> instruction: 0x66286772
    8b48:	7261746d 	rsbvc	r7, r1, #1828716544	; 0x6d000000
    8b4c:	5f202967 	svcpl	0x00202967
    8b50:	7474615f 	ldrbtvc	r6, [r4], #-351	; 0xfffffea1
    8b54:	75626972 	strbvc	r6, [r2, #-2418]!	; 0xfffff68e
    8b58:	5f5f6574 	svcpl	0x005f6574
    8b5c:	5f5f2828 	svcpl	0x005f2828
    8b60:	6d726f66 	ldclvs	15, cr6, [r2, #-408]!	; 0xfffffe68
    8b64:	615f7461 	cmpvs	pc, r1, ror #8
    8b68:	5f5f6772 	svcpl	0x005f6772
    8b6c:	6d662820 	stclvs	8, cr2, [r6, #-128]!	; 0xffffff80
    8b70:	67726174 			; <UNDEFINED> instruction: 0x67726174
    8b74:	00292929 	eoreq	r2, r9, r9, lsr #18
    8b78:	6f635f5f 	svcvs	0x00635f5f
    8b7c:	6c69706d 	stclvs	0, cr7, [r9], #-436	; 0xfffffe4c
    8b80:	6d5f7265 	lfmvs	f7, 2, [pc, #-404]	; 89f4 <_Min_Stack_Size+0x85f4>
    8b84:	61626d65 	cmnvs	r2, r5, ror #26
    8b88:	20292872 	eorcs	r2, r9, r2, ror r8
    8b8c:	73615f5f 	cmnvc	r1, #380	; 0x17c
    8b90:	5f5f206d 	svcpl	0x005f206d
    8b94:	616c6f76 	smcvs	50934	; 0xc6f6
    8b98:	656c6974 	strbvs	r6, [ip, #-2420]!	; 0xfffff68c
    8b9c:	22202228 	eorcs	r2, r0, #40, 4	; 0x80000002
    8ba0:	3a203a20 	bcc	817428 <_Min_Stack_Size+0x817028>
    8ba4:	22203a20 	eorcs	r3, r0, #32, 20	; 0x20000
    8ba8:	6f6d656d 	svcvs	0x006d656d
    8bac:	29227972 	stmdbcs	r2!, {r1, r4, r5, r6, r8, fp, ip, sp, lr}
    8bb0:	485f5f00 	ldmdami	pc, {r8, r9, sl, fp, ip, lr}^	; <UNPREDICTABLE>
    8bb4:	42465f51 	submi	r5, r6, #324	; 0x144
    8bb8:	5f5f5449 	svcpl	0x005f5449
    8bbc:	00353120 	eorseq	r3, r5, r0, lsr #2
    8bc0:	636e6970 	cmnvs	lr, #112, 18	; 0x1c0000
    8bc4:	00666e6f 	rsbeq	r6, r6, pc, ror #28
    8bc8:	61645f5f 	cmnvs	r4, pc, asr pc
    8bcc:	79746174 	ldmdbvc	r4!, {r2, r4, r5, r6, r8, sp, lr}^
    8bd0:	745f6570 	ldrbvc	r6, [pc], #-1392	; 8bd8 <_Min_Stack_Size+0x87d8>
    8bd4:	5f657079 	svcpl	0x00657079
    8bd8:	28676174 	stmdacs	r7!, {r2, r4, r5, r6, r8, sp, lr}^
    8bdc:	646e696b 	strbtvs	r6, [lr], #-2411	; 0xfffff695
    8be0:	7079742c 	rsbsvc	r7, r9, ip, lsr #8
    8be4:	00202965 	eoreq	r2, r0, r5, ror #18
    8be8:	6f6c5f5f 	svcvs	0x006c5f5f
    8bec:	745f6b63 	ldrbvc	r6, [pc], #-2915	; 8bf4 <_Min_Stack_Size+0x87f4>
    8bf0:	615f7972 	cmpvs	pc, r2, ror r9	; <UNPREDICTABLE>
    8bf4:	69757163 	ldmdbvs	r5!, {r0, r1, r5, r6, r8, ip, sp, lr}^
    8bf8:	725f6572 	subsvc	r6, pc, #478150656	; 0x1c800000
    8bfc:	72756365 	rsbsvc	r6, r5, #-1811939327	; 0x94000001
    8c00:	65766973 	ldrbvs	r6, [r6, #-2419]!	; 0xfffff68d
    8c04:	636f6c28 	cmnvs	pc, #40, 24	; 0x2800
    8c08:	2820296b 	stmdacs	r0!, {r0, r1, r3, r5, r6, r8, fp, sp}
    8c0c:	696f7628 	stmdbvs	pc!, {r3, r5, r9, sl, ip, sp, lr}^	; <UNPREDICTABLE>
    8c10:	30202964 	eorcc	r2, r0, r4, ror #18
    8c14:	58450029 	stmdapl	r5, {r0, r3, r5}^
    8c18:	4c5f4954 	mrrcmi	9, 5, r4, pc, cr4	; <UNPREDICTABLE>
    8c1c:	31454e49 	cmpcc	r5, r9, asr #28
    8c20:	42505f34 	subsmi	r5, r0, #52, 30	; 0xd0
    8c24:	28203431 	stmdacs	r0!, {r0, r4, r5, sl, ip, sp}
    8c28:	49545845 	ldmdbmi	r4, {r0, r2, r6, fp, ip, lr}^
    8c2c:	4950475f 	ldmdbmi	r0, {r0, r1, r2, r3, r4, r6, r8, r9, sl, lr}^
    8c30:	614d5f4f 	cmpvs	sp, pc, asr #30
    8c34:	6e697070 	mcrvs	0, 3, r7, cr9, cr0, {3}
    8c38:	29745f67 	ldmdbcs	r4!, {r0, r1, r2, r5, r6, r8, r9, sl, fp, ip, lr}^
    8c3c:	5458457b 	ldrbpl	r4, [r8], #-1403	; 0xfffffa85
    8c40:	2c343149 	ldfcss	f3, [r4], #-292	; 0xfffffedc
    8c44:	49504720 	ldmdbmi	r0, {r5, r8, r9, sl, lr}^
    8c48:	202c424f 	eorcs	r4, ip, pc, asr #4
    8c4c:	4f495047 	svcmi	0x00495047
    8c50:	4e49505f 	mcrmi	0, 2, r5, cr9, cr15, {2}
    8c54:	2c34315f 	ldfcss	f3, [r4], #-380	; 0xfffffe84
    8c58:	54584520 	ldrbpl	r4, [r8], #-1312	; 0xfffffae0
    8c5c:	5f343149 	svcpl	0x00343149
    8c60:	7d515249 	lfmvc	f5, 2, [r1, #-292]	; 0xfffffedc
    8c64:	54584500 	ldrbpl	r4, [r8], #-1280	; 0xfffffb00
    8c68:	6f435f49 	svcvs	0x00435f49
    8c6c:	6769666e 	strbvs	r6, [r9, -lr, ror #12]!
    8c70:	5f00745f 	svcpl	0x0000745f
    8c74:	7273626d 	rsbsvc	r6, r3, #-805306362	; 0xd0000006
    8c78:	63776f74 	cmnvs	r7, #116, 30	; 0x1d0
    8c7c:	74735f73 	ldrbtvc	r5, [r3], #-3955	; 0xfffff08d
    8c80:	00657461 	rsbeq	r7, r5, r1, ror #8
    8c84:	4e495f5f 	mcrmi	15, 2, r5, cr9, cr15, {2}
    8c88:	20343654 	eorscs	r3, r4, r4, asr r6
    8c8c:	226c6c22 	rsbcs	r6, ip, #8704	; 0x2200
    8c90:	54584500 	ldrbpl	r4, [r8], #-1280	; 0xfffffb00
    8c94:	494c5f49 	stmdbmi	ip, {r0, r3, r6, r8, r9, sl, fp, ip, lr}^
    8c98:	5f34454e 	svcpl	0x0034454e
    8c9c:	20344350 	eorscs	r4, r4, r0, asr r3
    8ca0:	54584528 	ldrbpl	r4, [r8], #-1320	; 0xfffffad8
    8ca4:	50475f49 	subpl	r5, r7, r9, asr #30
    8ca8:	4d5f4f49 	ldclmi	15, cr4, [pc, #-292]	; 8b8c <_Min_Stack_Size+0x878c>
    8cac:	69707061 	ldmdbvs	r0!, {r0, r5, r6, ip, sp, lr}^
    8cb0:	745f676e 	ldrbvc	r6, [pc], #-1902	; 8cb8 <_Min_Stack_Size+0x88b8>
    8cb4:	58457b29 	stmdapl	r5, {r0, r3, r5, r8, r9, fp, ip, sp, lr}^
    8cb8:	2c344954 			; <UNDEFINED> instruction: 0x2c344954
    8cbc:	49504720 	ldmdbmi	r0, {r5, r8, r9, sl, lr}^
    8cc0:	202c434f 	eorcs	r4, ip, pc, asr #6
    8cc4:	4f495047 	svcmi	0x00495047
    8cc8:	4e49505f 	mcrmi	0, 2, r5, cr9, cr15, {2}
    8ccc:	202c345f 	eorcs	r3, ip, pc, asr r4
    8cd0:	49545845 	ldmdbmi	r4, {r0, r2, r6, fp, ip, lr}^
    8cd4:	52495f34 	subpl	r5, r9, #52, 30	; 0xd0
    8cd8:	55007d51 	strpl	r7, [r0, #-3409]	; 0xfffff2af
    8cdc:	38544e49 	ldmdacc	r4, {r0, r3, r6, r9, sl, fp, lr}^
    8ce0:	58414d5f 	stmdapl	r1, {r0, r1, r2, r3, r4, r6, r8, sl, fp, lr}^
    8ce4:	5f5f2820 	svcpl	0x005f2820
    8ce8:	544e4955 	strbpl	r4, [lr], #-2389	; 0xfffff6ab
    8cec:	414d5f38 	cmpmi	sp, r8, lsr pc
    8cf0:	295f5f58 	ldmdbcs	pc, {r3, r4, r6, r8, r9, sl, fp, ip, lr}^	; <UNPREDICTABLE>
    8cf4:	4c5f5f00 	mrrcmi	15, 0, r5, pc, cr0	; <UNPREDICTABLE>
    8cf8:	5f474e4f 	svcpl	0x00474e4f
    8cfc:	5f58414d 	svcpl	0x0058414d
    8d00:	7830205f 	ldmdavc	r0!, {r0, r1, r2, r3, r4, r6, sp}
    8d04:	66666637 			; <UNDEFINED> instruction: 0x66666637
    8d08:	66666666 	strbtvs	r6, [r6], -r6, ror #12
    8d0c:	5047004c 	subpl	r0, r7, ip, asr #32
    8d10:	535f4f49 	cmppl	pc, #292	; 0x124
    8d14:	44454550 	strbmi	r4, [r5], #-1360	; 0xfffffab0
    8d18:	204d325f 	subcs	r3, sp, pc, asr r2
    8d1c:	30307830 	eorscc	r7, r0, r0, lsr r8
    8d20:	30303030 	eorscc	r3, r0, r0, lsr r0
    8d24:	00753230 	rsbseq	r3, r5, r0, lsr r2
    8d28:	5359535f 	cmppl	r9, #2080374785	; 0x7c000001
    8d2c:	4544435f 	strbmi	r4, [r4, #-863]	; 0xfffffca1
    8d30:	485f5346 	ldmdami	pc, {r1, r2, r6, r8, r9, ip, lr}^	; <UNPREDICTABLE>
    8d34:	5300205f 	movwpl	r2, #95	; 0x5f
    8d38:	65747379 	ldrbvs	r7, [r4, #-889]!	; 0xfffffc87
    8d3c:	654d5f6d 	strbvs	r5, [sp, #-3949]	; 0xfffff093
    8d40:	79726f6d 	ldmdbvc	r2!, {r0, r2, r3, r5, r6, r8, r9, sl, fp, sp, lr}^
    8d44:	5341425f 	movtpl	r4, #4703	; 0x125f
    8d48:	78302045 	ldmdavc	r0!, {r0, r2, r6, sp}
    8d4c:	46464631 			; <UNDEFINED> instruction: 0x46464631
    8d50:	30303046 	eorscc	r3, r0, r6, asr #32
    8d54:	6c004c55 	stcvs	12, cr4, [r0], {85}	; 0x55
    8d58:	20676e6f 	rsbcs	r6, r7, pc, ror #28
    8d5c:	4700342b 	strmi	r3, [r0, -fp, lsr #8]
    8d60:	5f4f4950 	svcpl	0x004f4950
    8d64:	45444f4d 	strbmi	r4, [r4, #-3917]	; 0xfffff0b3
    8d68:	54554f5f 	ldrbpl	r4, [r5], #-3935	; 0xfffff0a1
    8d6c:	5f545550 	svcpl	0x00545550
    8d70:	3020444f 	eorcc	r4, r0, pc, asr #8
    8d74:	30303078 	eorscc	r3, r0, r8, ror r0
    8d78:	30303030 	eorscc	r3, r0, r0, lsr r0
    8d7c:	5f007535 	svcpl	0x00007535
    8d80:	6e6f6e5f 	mcrvs	14, 3, r6, cr15, cr15, {2}
    8d84:	6c6c756e 	cfstr64vs	mvdx7, [ip], #-440	; 0xfffffe48
    8d88:	20297828 	eorcs	r7, r9, r8, lsr #16
    8d8c:	74615f5f 	strbtvc	r5, [r1], #-3935	; 0xfffff0a1
    8d90:	62697274 	rsbvs	r7, r9, #116, 4	; 0x40000007
    8d94:	5f657475 	svcpl	0x00657475
    8d98:	5f28285f 	svcpl	0x0028285f
    8d9c:	6e6f6e5f 	mcrvs	14, 3, r6, cr15, cr15, {2}
    8da0:	6c6c756e 	cfstr64vs	mvdx7, [ip], #-440	; 0xfffffe48
    8da4:	78205f5f 	stmdavc	r0!, {r0, r1, r2, r3, r4, r6, r8, r9, sl, fp, ip, lr}
    8da8:	5f002929 	svcpl	0x00002929
    8dac:	444e4152 	strbmi	r4, [lr], #-338	; 0xfffffeae
    8db0:	415f3834 	cmpmi	pc, r4, lsr r8	; <UNPREDICTABLE>
    8db4:	28204444 	stmdacs	r0!, {r2, r6, sl, lr}
    8db8:	30307830 	eorscc	r7, r0, r0, lsr r8
    8dbc:	00296230 	eoreq	r6, r9, r0, lsr r2
    8dc0:	54495845 	strbpl	r5, [r9], #-2117	; 0xfffff7bb
    8dc4:	4941465f 	stmdbmi	r1, {r0, r1, r2, r3, r4, r6, r9, sl, lr}^
    8dc8:	4552554c 	ldrbmi	r5, [r2, #-1356]	; 0xfffffab4
    8dcc:	45003120 	strmi	r3, [r0, #-288]	; 0xfffffee0
    8dd0:	31495458 	cmpcc	r9, r8, asr r4
    8dd4:	33312033 	teqcc	r1, #51	; 0x33
    8dd8:	415f5f00 	cmpmi	pc, r0, lsl #30
    8ddc:	465f4d52 			; <UNDEFINED> instruction: 0x465f4d52
    8de0:	55544145 	ldrbpl	r4, [r4, #-325]	; 0xfffffebb
    8de4:	4c5f4552 	cfldr64mi	mvdx4, [pc], {82}	; 0x52
    8de8:	58455244 	stmdapl	r5, {r2, r6, r9, ip, lr}^
    8dec:	5f003720 	svcpl	0x00003720
    8df0:	33544e49 	cmpcc	r4, #1168	; 0x490
    8df4:	51455f32 	cmppl	r5, r2, lsr pc
    8df8:	4e4f4c5f 	mcrmi	12, 2, r4, cr15, cr15, {2}
    8dfc:	5f002047 	svcpl	0x00002047
    8e00:	4e454552 	mcrmi	5, 2, r4, cr5, cr2, {2}
    8e04:	53415f54 	movtpl	r5, #8020	; 0x1f54
    8e08:	4d495443 	cfstrdmi	mvd5, [r9, #-268]	; 0xfffffef4
    8e0c:	49535f45 	ldmdbmi	r3, {r0, r2, r6, r8, r9, sl, fp, ip, lr}^
    8e10:	3220455a 	eorcc	r4, r0, #377487360	; 0x16800000
    8e14:	5f5f0036 	svcpl	0x005f0036
    8e18:	52464c4c 	subpl	r4, r6, #76, 24	; 0x4c00
    8e1c:	5f544341 	svcpl	0x00544341
    8e20:	49535045 	ldmdbmi	r3, {r0, r2, r6, ip, lr}^
    8e24:	5f4e4f4c 	svcpl	0x004e4f4c
    8e28:	7830205f 	ldmdavc	r0!, {r0, r1, r2, r3, r4, r6, sp}
    8e2c:	362d5031 			; <UNDEFINED> instruction: 0x362d5031
    8e30:	524c4c33 	subpl	r4, ip, #13056	; 0x3300
    8e34:	415f5f00 	cmpmi	pc, r0, lsl #30
    8e38:	465f4d52 			; <UNDEFINED> instruction: 0x465f4d52
    8e3c:	55544145 	ldrbpl	r4, [r4, #-325]	; 0xfffffebb
    8e40:	535f4552 	cmppl	pc, #343932928	; 0x14800000
    8e44:	33444d49 	movtcc	r4, #19785	; 0x4d49
    8e48:	5f5f0032 	svcpl	0x005f0032
    8e4c:	33544c46 	cmpcc	r4, #17920	; 0x4600
    8e50:	4d5f5832 	ldclmi	8, cr5, [pc, #-200]	; 8d90 <_Min_Stack_Size+0x8990>
    8e54:	5f544e41 	svcpl	0x00544e41
    8e58:	5f474944 	svcpl	0x00474944
    8e5c:	3335205f 	teqcc	r5, #95	; 0x5f
    8e60:	54584500 	ldrbpl	r4, [r8], #-1280	; 0xfffffb00
    8e64:	38203849 	stmdacc	r0!, {r0, r3, r6, fp, ip, sp}
    8e68:	49504700 	ldmdbmi	r0, {r8, r9, sl, lr}^
    8e6c:	49505f4f 	ldmdbmi	r0, {r0, r1, r2, r3, r6, r8, r9, sl, fp, ip, lr}^
    8e70:	31315f4e 	teqcc	r1, lr, asr #30
    8e74:	75282820 	strvc	r2, [r8, #-2080]!	; 0xfffff7e0
    8e78:	31746e69 	cmncc	r4, r9, ror #28
    8e7c:	29745f36 	ldmdbcs	r4!, {r1, r2, r4, r5, r8, r9, sl, fp, ip, lr}^
    8e80:	38307830 	ldmdacc	r0!, {r4, r5, fp, ip, sp, lr}
    8e84:	00293030 	eoreq	r3, r9, r0, lsr r0
    8e88:	43575f5f 	cmpmi	r7, #380	; 0x17c
    8e8c:	5f524148 	svcpl	0x00524148
    8e90:	54444957 	strbpl	r4, [r4], #-2391	; 0xfffff6a9
    8e94:	205f5f48 	subscs	r5, pc, r8, asr #30
    8e98:	5f003233 	svcpl	0x00003233
    8e9c:	36544e49 	ldrbcc	r4, [r4], -r9, asr #28
    8ea0:	5f545f34 	svcpl	0x00545f34
    8ea4:	4c434544 	cfstr64mi	mvdx4, [r3], {68}	; 0x44
    8ea8:	44455241 	strbmi	r5, [r5], #-577	; 0xfffffdbf
    8eac:	5f5f0020 	svcpl	0x005f0020
    8eb0:	756c6773 	strbvc	r6, [ip, #-1907]!	; 0xfffff88d
    8eb4:	4e5f0065 	cdpmi	0, 5, cr0, cr15, cr5, {3}
    8eb8:	5248544f 	subpl	r5, r8, #1325400064	; 0x4f000000
    8ebc:	0020574f 	eoreq	r5, r0, pc, asr #14
    8ec0:	5f545649 	svcpl	0x00545649
    8ec4:	5f515249 	svcpl	0x00515249
    8ec8:	626d754e 	rsbvs	r7, sp, #327155712	; 0x13800000
    8ecc:	5f007265 	svcpl	0x00007265
    8ed0:	5f41445f 	svcpl	0x0041445f
    8ed4:	54494249 	strbpl	r4, [r9], #-585	; 0xfffffdb7
    8ed8:	33205f5f 			; <UNDEFINED> instruction: 0x33205f5f
    8edc:	69440032 	stmdbvs	r4, {r1, r4, r5}^
    8ee0:	6c626173 	stfvse	f6, [r2], #-460	; 0xfffffe34
    8ee4:	564e5f65 	strbpl	r5, [lr], -r5, ror #30
    8ee8:	5f004349 	svcpl	0x00004349
    8eec:	7274735f 	rsbsvc	r7, r4, #2080374785	; 0x7c000001
    8ef0:	6d697466 	cfstrdvs	mvd7, [r9, #-408]!	; 0xfffffe68
    8ef4:	6b696c65 	blvs	1a64090 <_Min_Stack_Size+0x1a63c90>
    8ef8:	6d662865 	stclvs	8, cr2, [r6, #-404]!	; 0xfffffe6c
    8efc:	67726174 			; <UNDEFINED> instruction: 0x67726174
    8f00:	7269662c 	rsbvc	r6, r9, #44, 12	; 0x2c00000
    8f04:	61767473 	cmnvs	r6, r3, ror r4
    8f08:	67726172 			; <UNDEFINED> instruction: 0x67726172
    8f0c:	5f5f2029 	svcpl	0x005f2029
    8f10:	72747461 	rsbsvc	r7, r4, #1627389952	; 0x61000000
    8f14:	74756269 	ldrbtvc	r6, [r5], #-617	; 0xfffffd97
    8f18:	285f5f65 	ldmdacs	pc, {r0, r2, r5, r6, r8, r9, sl, fp, ip, lr}^	; <UNPREDICTABLE>
    8f1c:	665f5f28 	ldrbvs	r5, [pc], -r8, lsr #30
    8f20:	616d726f 	cmnvs	sp, pc, ror #4
    8f24:	205f5f74 	subscs	r5, pc, r4, ror pc	; <UNPREDICTABLE>
    8f28:	735f5f28 	cmpvc	pc, #40, 30	; 0xa0
    8f2c:	74667274 	strbtvc	r7, [r6], #-628	; 0xfffffd8c
    8f30:	5f656d69 	svcpl	0x00656d69
    8f34:	66202c5f 			; <UNDEFINED> instruction: 0x66202c5f
    8f38:	7261746d 	rsbvc	r7, r1, #1828716544	; 0x6d000000
    8f3c:	66202c67 	strtvs	r2, [r0], -r7, ror #24
    8f40:	74737269 	ldrbtvc	r7, [r3], #-617	; 0xfffffd97
    8f44:	61726176 	cmnvs	r2, r6, ror r1
    8f48:	29296772 	stmdbcs	r9!, {r1, r4, r5, r6, r8, r9, sl, sp, lr}
    8f4c:	5f5f0029 	svcpl	0x005f0029
    8f50:	695f6d74 	ldmdbvs	pc, {r2, r4, r5, r6, r8, sl, fp, sp, lr}^	; <UNPREDICTABLE>
    8f54:	74736473 	ldrbtvc	r6, [r3], #-1139	; 0xfffffb8d
    8f58:	54584500 	ldrbpl	r4, [r8], #-1280	; 0xfffffb00
    8f5c:	495f3149 	ldmdbmi	pc, {r0, r3, r6, r8, ip, sp}^	; <UNPREDICTABLE>
    8f60:	61485152 	cmpvs	r8, r2, asr r1
    8f64:	656c646e 	strbvs	r6, [ip, #-1134]!	; 0xfffffb92
    8f68:	5f5f0072 	svcpl	0x005f0072
    8f6c:	55514544 	ldrbpl	r4, [r1, #-1348]	; 0xfffffabc
    8f70:	46494c41 	strbmi	r4, [r9], -r1, asr #24
    8f74:	79742859 	ldmdbvc	r4!, {r0, r3, r4, r6, fp, sp}^
    8f78:	762c6570 			; <UNDEFINED> instruction: 0x762c6570
    8f7c:	20297261 	eorcs	r7, r9, r1, ror #4
    8f80:	79742828 	ldmdbvc	r4!, {r3, r5, fp, sp}^
    8f84:	28296570 	stmdacs	r9!, {r4, r5, r6, r8, sl, sp, lr}
    8f88:	69755f5f 	ldmdbvs	r5!, {r0, r1, r2, r3, r4, r6, r8, r9, sl, fp, ip, lr}^
    8f8c:	7470746e 	ldrbtvc	r7, [r0], #-1134	; 0xfffffb92
    8f90:	29745f72 	ldmdbcs	r4!, {r1, r4, r5, r6, r8, r9, sl, fp, ip, lr}^
    8f94:	6e6f6328 	cdpvs	3, 6, cr6, cr15, cr8, {1}
    8f98:	76207473 			; <UNDEFINED> instruction: 0x76207473
    8f9c:	74616c6f 	strbtvc	r6, [r1], #-3183	; 0xfffff391
    8fa0:	20656c69 	rsbcs	r6, r5, r9, ror #24
    8fa4:	64696f76 	strbtvs	r6, [r9], #-3958	; 0xfffff08a
    8fa8:	28292a20 	stmdacs	r9!, {r5, r9, fp, sp}
    8fac:	29726176 	ldmdbcs	r2!, {r1, r2, r4, r5, r6, r8, sp, lr}^
    8fb0:	58450029 	stmdapl	r5, {r0, r3, r5}^
    8fb4:	4c5f4954 	mrrcmi	9, 5, r4, pc, cr4	; <UNPREDICTABLE>
    8fb8:	31454e49 	cmpcc	r5, r9, asr #28
    8fbc:	44505f32 	ldrbmi	r5, [r0], #-3890	; 0xfffff0ce
    8fc0:	28203231 	stmdacs	r0!, {r0, r4, r5, r9, ip, sp}
    8fc4:	49545845 	ldmdbmi	r4, {r0, r2, r6, fp, ip, lr}^
    8fc8:	4950475f 	ldmdbmi	r0, {r0, r1, r2, r3, r4, r6, r8, r9, sl, lr}^
    8fcc:	614d5f4f 	cmpvs	sp, pc, asr #30
    8fd0:	6e697070 	mcrvs	0, 3, r7, cr9, cr0, {3}
    8fd4:	29745f67 	ldmdbcs	r4!, {r0, r1, r2, r5, r6, r8, r9, sl, fp, ip, lr}^
    8fd8:	5458457b 	ldrbpl	r4, [r8], #-1403	; 0xfffffa85
    8fdc:	2c323149 	ldfcss	f3, [r2], #-292	; 0xfffffedc
    8fe0:	49504720 	ldmdbmi	r0, {r5, r8, r9, sl, lr}^
    8fe4:	202c444f 	eorcs	r4, ip, pc, asr #8
    8fe8:	4f495047 	svcmi	0x00495047
    8fec:	4e49505f 	mcrmi	0, 2, r5, cr9, cr15, {2}
    8ff0:	2c32315f 	ldfcss	f3, [r2], #-380	; 0xfffffe84
    8ff4:	54584520 	ldrbpl	r4, [r8], #-1312	; 0xfffffae0
    8ff8:	5f323149 	svcpl	0x00323149
    8ffc:	7d515249 	lfmvc	f5, 2, [r1, #-292]	; 0xfffffedc
    9000:	415f5f00 	cmpmi	pc, r0, lsl #30
    9004:	494d4f54 	stmdbmi	sp, {r2, r4, r6, r8, r9, sl, fp, lr}^
    9008:	43415f43 	movtmi	r5, #8003	; 0x1f43
    900c:	45525f51 	ldrbmi	r5, [r2, #-3921]	; 0xfffff0af
    9010:	0034204c 	eorseq	r2, r4, ip, asr #32
    9014:	49545845 	ldmdbmi	r4, {r0, r2, r6, fp, ip, lr}^
    9018:	4e494c5f 	mcrmi	12, 2, r4, cr9, cr15, {2}
    901c:	505f3145 	subspl	r3, pc, r5, asr #2
    9020:	28203143 	stmdacs	r0!, {r0, r1, r6, r8, ip, sp}
    9024:	49545845 	ldmdbmi	r4, {r0, r2, r6, fp, ip, lr}^
    9028:	4950475f 	ldmdbmi	r0, {r0, r1, r2, r3, r4, r6, r8, r9, sl, lr}^
    902c:	614d5f4f 	cmpvs	sp, pc, asr #30
    9030:	6e697070 	mcrvs	0, 3, r7, cr9, cr0, {3}
    9034:	29745f67 	ldmdbcs	r4!, {r0, r1, r2, r5, r6, r8, r9, sl, fp, ip, lr}^
    9038:	5458457b 	ldrbpl	r4, [r8], #-1403	; 0xfffffa85
    903c:	202c3149 	eorcs	r3, ip, r9, asr #2
    9040:	4f495047 	svcmi	0x00495047
    9044:	47202c43 	strmi	r2, [r0, -r3, asr #24]!
    9048:	5f4f4950 	svcpl	0x004f4950
    904c:	5f4e4950 	svcpl	0x004e4950
    9050:	45202c31 	strmi	r2, [r0, #-3121]!	; 0xfffff3cf
    9054:	31495458 	cmpcc	r9, r8, asr r4
    9058:	5152495f 	cmppl	r2, pc, asr r9
    905c:	5f5f007d 	svcpl	0x005f007d
    9060:	495f5148 	ldmdbmi	pc, {r3, r6, r8, ip, lr}^	; <UNPREDICTABLE>
    9064:	5f544942 	svcpl	0x00544942
    9068:	0030205f 	eorseq	r2, r0, pc, asr r0
    906c:	61705f5f 	cmnvs	r0, pc, asr pc
    9070:	64656b63 	strbtvs	r6, [r5], #-2915	; 0xfffff49d
    9074:	615f5f20 	cmpvs	pc, r0, lsr #30
    9078:	69727474 	ldmdbvs	r2!, {r2, r4, r5, r6, sl, ip, sp, lr}^
    907c:	65747562 	ldrbvs	r7, [r4, #-1378]!	; 0xfffffa9e
    9080:	28285f5f 	stmdacs	r8!, {r0, r1, r2, r3, r4, r6, r8, r9, sl, fp, ip, lr}
    9084:	61705f5f 	cmnvs	r0, pc, asr pc
    9088:	64656b63 	strbtvs	r6, [r5], #-2915	; 0xfffff49d
    908c:	29295f5f 	stmdbcs	r9!, {r0, r1, r2, r3, r4, r6, r8, r9, sl, fp, ip, lr}
    9090:	43575f00 	cmpmi	r7, #0, 30
    9094:	5f524148 	svcpl	0x00524148
    9098:	45445f54 	strbmi	r5, [r4, #-3924]	; 0xfffff0ac
    909c:	454e4946 	strbmi	r4, [lr, #-2374]	; 0xfffff6ba
    90a0:	00205f44 	eoreq	r5, r0, r4, asr #30
    90a4:	334d5453 	movtcc	r5, #54355	; 0xd453
    90a8:	20314632 	eorscs	r4, r1, r2, lsr r6
    90ac:	4e490031 	mcrmi	0, 2, r0, cr9, cr1, {1}
    90b0:	41465f54 	cmpmi	r6, r4, asr pc
    90b4:	5f385453 	svcpl	0x00385453
    90b8:	204e494d 	subcs	r4, lr, sp, asr #18
    90bc:	5f5f2d28 	svcpl	0x005f2d28
    90c0:	5f544e49 	svcpl	0x00544e49
    90c4:	54534146 	ldrbpl	r4, [r3], #-326	; 0xfffffeba
    90c8:	414d5f38 	cmpmi	sp, r8, lsr pc
    90cc:	205f5f58 	subscs	r5, pc, r8, asr pc	; <UNPREDICTABLE>
    90d0:	2931202d 	ldmdbcs	r1!, {r0, r2, r3, r5, sp}
    90d4:	615f5f00 	cmpvs	pc, r0, lsl #30
    90d8:	72657373 	rsbvc	r7, r5, #-872415231	; 0xcc000001
    90dc:	735f7374 	cmpvc	pc, #116, 6	; 0xd0000001
    90e0:	65726168 	ldrbvs	r6, [r2, #-360]!	; 0xfffffe98
    90e4:	2e2e2864 	cdpcs	8, 2, cr2, cr14, cr4, {3}
    90e8:	5f20292e 	svcpl	0x0020292e
    90ec:	636f6c5f 	cmnvs	pc, #24320	; 0x5f00
    90f0:	6e615f6b 	cdpvs	15, 6, cr5, cr1, cr11, {3}
    90f4:	61746f6e 	cmnvs	r4, lr, ror #30
    90f8:	61286574 			; <UNDEFINED> instruction: 0x61286574
    90fc:	72657373 	rsbvc	r7, r5, #-872415231	; 0xcc000001
    9100:	68735f74 	ldmdavs	r3!, {r2, r4, r5, r6, r8, r9, sl, fp, ip, lr}^
    9104:	64657261 	strbtvs	r7, [r5], #-609	; 0xfffffd9f
    9108:	636f6c5f 	cmnvs	pc, #24320	; 0x5f00
    910c:	5f5f286b 	svcpl	0x005f286b
    9110:	415f4156 	cmpmi	pc, r6, asr r1	; <UNPREDICTABLE>
    9114:	5f534752 	svcpl	0x00534752
    9118:	0029295f 	eoreq	r2, r9, pc, asr r9
    911c:	59535f5f 	ldmdbpl	r3, {r0, r1, r2, r3, r4, r6, r8, r9, sl, fp, ip, lr}^
    9120:	4f4c5f53 	svcmi	0x004c5f53
    9124:	485f4b43 	ldmdami	pc, {r0, r1, r6, r8, r9, fp, lr}^	; <UNPREDICTABLE>
    9128:	00205f5f 	eoreq	r5, r0, pc, asr pc
    912c:	6e695f5f 	mcrvs	15, 3, r5, cr9, cr15, {2}
    9130:	00303274 	eorseq	r3, r0, r4, ror r2
    9134:	4e414e5f 	mcrmi	14, 2, r4, cr1, cr15, {2}
    9138:	4f465f4f 	svcmi	0x00465f4f
    913c:	54414d52 	strbpl	r4, [r1], #-3410	; 0xfffff2ae
    9140:	5f444554 	svcpl	0x00444554
    9144:	31204f49 			; <UNDEFINED> instruction: 0x31204f49
    9148:	544e4900 	strbpl	r4, [lr], #-2304	; 0xfffff700
    914c:	5341465f 	movtpl	r4, #5727	; 0x165f
    9150:	5f323354 	svcpl	0x00323354
    9154:	2058414d 	subscs	r4, r8, sp, asr #2
    9158:	495f5f28 	ldmdbmi	pc, {r3, r5, r8, r9, sl, fp, ip, lr}^	; <UNPREDICTABLE>
    915c:	465f544e 	ldrbmi	r5, [pc], -lr, asr #8
    9160:	33545341 	cmpcc	r4, #67108865	; 0x4000001
    9164:	414d5f32 	cmpmi	sp, r2, lsr pc
    9168:	295f5f58 	ldmdbcs	pc, {r3, r4, r6, r8, r9, sl, fp, ip, lr}^	; <UNPREDICTABLE>
    916c:	745f5f00 	ldrbvc	r5, [pc], #-3840	; 9174 <_Min_Stack_Size+0x8d74>
    9170:	696d5f6d 	stmdbvs	sp!, {r0, r2, r3, r5, r6, r8, r9, sl, fp, ip, lr}^
    9174:	5845006e 	stmdapl	r5, {r1, r2, r3, r5, r6}^
    9178:	475f4954 			; <UNDEFINED> instruction: 0x475f4954
    917c:	5f4f4950 	svcpl	0x004f4950
    9180:	7070614d 	rsbsvc	r6, r0, sp, asr #2
    9184:	5f676e69 	svcpl	0x00676e69
    9188:	43520074 	cmpmi	r2, #116	; 0x74
    918c:	50475f43 	subpl	r5, r7, r3, asr #30
    9190:	5f414f49 	svcpl	0x00414f49
    9194:	5f4b4c43 	svcpl	0x004b4c43
    9198:	29284e45 	stmdbcs	r8!, {r0, r2, r6, r9, sl, fp, lr}
    919c:	43522820 	cmpmi	r2, #32, 16	; 0x200000
    91a0:	413e2d43 	teqmi	lr, r3, asr #26
    91a4:	45324250 	ldrmi	r4, [r2, #-592]!	; 0xfffffdb0
    91a8:	7c20524e 	sfmvc	f5, 4, [r0], #-312	; 0xfffffec8
    91ac:	3128203d 			; <UNDEFINED> instruction: 0x3128203d
    91b0:	29323c3c 	ldmdbcs	r2!, {r2, r3, r4, r5, sl, fp, ip, sp}
    91b4:	4e490029 	cdpmi	0, 4, cr0, cr9, cr9, {1}
    91b8:	52545054 	subspl	r5, r4, #84	; 0x54
    91bc:	4e494d5f 	mcrmi	13, 2, r4, cr9, cr15, {2}
    91c0:	5f2d2820 	svcpl	0x002d2820
    91c4:	544e495f 	strbpl	r4, [lr], #-2399	; 0xfffff6a1
    91c8:	5f525450 	svcpl	0x00525450
    91cc:	5f58414d 	svcpl	0x0058414d
    91d0:	202d205f 	eorcs	r2, sp, pc, asr r0
    91d4:	55002931 	strpl	r2, [r0, #-2353]	; 0xfffff6cf
    91d8:	54524153 	ldrbpl	r4, [r2], #-339	; 0xfffffead
    91dc:	41425f32 	cmpmi	r2, r2, lsr pc
    91e0:	30204553 	eorcc	r4, r0, r3, asr r5
    91e4:	30303478 	eorscc	r3, r0, r8, ror r4
    91e8:	30343430 	eorscc	r3, r4, r0, lsr r4
    91ec:	004c5530 	subeq	r5, ip, r0, lsr r5
    91f0:	44525450 	ldrbmi	r5, [r2], #-1104	; 0xfffffbb0
    91f4:	5f464649 	svcpl	0x00464649
    91f8:	204e494d 	subcs	r4, lr, sp, asr #18
    91fc:	54502d28 	ldrbpl	r2, [r0], #-3368	; 0xfffff2d8
    9200:	46494452 			; <UNDEFINED> instruction: 0x46494452
    9204:	414d5f46 	cmpmi	sp, r6, asr #30
    9208:	202d2058 	eorcs	r2, sp, r8, asr r0
    920c:	5f002931 	svcpl	0x00002931
    9210:	49534f50 	ldmdbmi	r3, {r4, r6, r8, r9, sl, fp, lr}^
    9214:	5f435f58 	svcpl	0x00435f58
    9218:	52554f53 	subspl	r4, r5, #332	; 0x14c
    921c:	5f004543 	svcpl	0x00004543
    9220:	4e49555f 	mcrmi	5, 2, r5, cr9, cr15, {2}
    9224:	58414d54 	stmdapl	r1, {r2, r4, r6, r8, sl, fp, lr}^
    9228:	58414d5f 	stmdapl	r1, {r0, r1, r2, r3, r4, r6, r8, sl, fp, lr}^
    922c:	30205f5f 	eorcc	r5, r0, pc, asr pc
    9230:	66666678 			; <UNDEFINED> instruction: 0x66666678
    9234:	66666666 	strbtvs	r6, [r6], -r6, ror #12
    9238:	66666666 	strbtvs	r6, [r6], -r6, ror #12
    923c:	66666666 	strbtvs	r6, [r6], -r6, ror #12
    9240:	4c4c5566 	cfstr64mi	mvdx5, [ip], {102}	; 0x66
    9244:	445f5f00 	ldrbmi	r5, [pc], #-3840	; 924c <_Min_Stack_Size+0x8e4c>
    9248:	4d5f4c42 	ldclmi	12, cr4, [pc, #-264]	; 9148 <_Min_Stack_Size+0x8d48>
    924c:	5f544e41 	svcpl	0x00544e41
    9250:	5f474944 	svcpl	0x00474944
    9254:	3335205f 	teqcc	r5, #95	; 0x5f
    9258:	555f5f00 	ldrbpl	r5, [pc, #-3840]	; 8360 <_Min_Stack_Size+0x7f60>
    925c:	4152464c 	cmpmi	r2, ip, asr #12
    9260:	495f5443 	ldmdbmi	pc, {r0, r1, r6, sl, ip, lr}^	; <UNPREDICTABLE>
    9264:	5f544942 	svcpl	0x00544942
    9268:	0030205f 	eorseq	r2, r0, pc, asr r0
    926c:	49545845 	ldmdbmi	r4, {r0, r2, r6, fp, ip, lr}^
    9270:	4e494c5f 	mcrmi	12, 2, r4, cr9, cr15, {2}
    9274:	505f3445 	subspl	r3, pc, r5, asr #8
    9278:	28203442 	stmdacs	r0!, {r1, r6, sl, ip, sp}
    927c:	49545845 	ldmdbmi	r4, {r0, r2, r6, fp, ip, lr}^
    9280:	4950475f 	ldmdbmi	r0, {r0, r1, r2, r3, r4, r6, r8, r9, sl, lr}^
    9284:	614d5f4f 	cmpvs	sp, pc, asr #30
    9288:	6e697070 	mcrvs	0, 3, r7, cr9, cr0, {3}
    928c:	29745f67 	ldmdbcs	r4!, {r0, r1, r2, r5, r6, r8, r9, sl, fp, ip, lr}^
    9290:	5458457b 	ldrbpl	r4, [r8], #-1403	; 0xfffffa85
    9294:	202c3449 	eorcs	r3, ip, r9, asr #8
    9298:	4f495047 	svcmi	0x00495047
    929c:	47202c42 	strmi	r2, [r0, -r2, asr #24]!
    92a0:	5f4f4950 	svcpl	0x004f4950
    92a4:	5f4e4950 	svcpl	0x004e4950
    92a8:	45202c34 	strmi	r2, [r0, #-3124]!	; 0xfffff3cc
    92ac:	34495458 	strbcc	r5, [r9], #-1112	; 0xfffffba8
    92b0:	5152495f 	cmppl	r2, pc, asr r9
    92b4:	5f5f007d 	svcpl	0x005f007d
    92b8:	5f4d5241 	svcpl	0x004d5241
    92bc:	49424145 	stmdbmi	r2, {r0, r2, r6, r8, lr}^
    92c0:	31205f5f 			; <UNDEFINED> instruction: 0x31205f5f
    92c4:	495f5f00 	ldmdbmi	pc, {r8, r9, sl, fp, ip, lr}^	; <UNPREDICTABLE>
    92c8:	4c5f544e 	cfldrdmi	mvd5, [pc], {78}	; 0x4e
    92cc:	54534145 	ldrbpl	r4, [r3], #-325	; 0xfffffebb
    92d0:	545f3436 	ldrbpl	r3, [pc], #-1078	; 92d8 <_Min_Stack_Size+0x8ed8>
    92d4:	5f455059 	svcpl	0x00455059
    92d8:	6f6c205f 	svcvs	0x006c205f
    92dc:	6c20676e 	stcvs	7, cr6, [r0], #-440	; 0xfffffe48
    92e0:	20676e6f 	rsbcs	r6, r7, pc, ror #28
    92e4:	00746e69 	rsbseq	r6, r4, r9, ror #28
    92e8:	62616e45 	rsbvs	r6, r1, #1104	; 0x450
    92ec:	4e5f656c 	cdpmi	5, 5, cr6, cr15, cr12, {3}
    92f0:	00434956 	subeq	r4, r3, r6, asr r9
    92f4:	4f495047 	svcmi	0x00495047
    92f8:	4e49505f 	mcrmi	0, 2, r5, cr9, cr15, {2}
    92fc:	4c4c415f 	stfmie	f4, [ip], {95}	; 0x5f
    9300:	75282820 	strvc	r2, [r8, #-2080]!	; 0xfffff7e0
    9304:	31746e69 	cmncc	r4, r9, ror #28
    9308:	29745f36 	ldmdbcs	r4!, {r1, r2, r4, r5, r8, r9, sl, fp, ip, lr}^
    930c:	46467830 			; <UNDEFINED> instruction: 0x46467830
    9310:	00294646 	eoreq	r4, r9, r6, asr #12
    9314:	5f495845 	svcpl	0x00495845
    9318:	65707954 	ldrbvs	r7, [r0, #-2388]!	; 0xfffff6ac
    931c:	00666544 	rsbeq	r6, r6, r4, asr #10
    9320:	4e495f5f 	mcrmi	15, 2, r5, cr9, cr15, {2}
    9324:	22203854 	eorcs	r3, r0, #84, 16	; 0x540000
    9328:	00226868 	eoreq	r6, r2, r8, ror #16
    932c:	49545845 	ldmdbmi	r4, {r0, r2, r6, fp, ip, lr}^
    9330:	4e494c5f 	mcrmi	12, 2, r4, cr9, cr15, {2}
    9334:	5f323145 	svcpl	0x00323145
    9338:	32314150 	eorscc	r4, r1, #80, 2
    933c:	58452820 	stmdapl	r5, {r5, fp, sp}^
    9340:	475f4954 			; <UNDEFINED> instruction: 0x475f4954
    9344:	5f4f4950 	svcpl	0x004f4950
    9348:	7070614d 	rsbsvc	r6, r0, sp, asr #2
    934c:	5f676e69 	svcpl	0x00676e69
    9350:	457b2974 	ldrbmi	r2, [fp, #-2420]!	; 0xfffff68c
    9354:	31495458 	cmpcc	r9, r8, asr r4
    9358:	47202c32 			; <UNDEFINED> instruction: 0x47202c32
    935c:	414f4950 	cmpmi	pc, r0, asr r9	; <UNPREDICTABLE>
    9360:	5047202c 	subpl	r2, r7, ip, lsr #32
    9364:	505f4f49 	subspl	r4, pc, r9, asr #30
    9368:	315f4e49 	cmpcc	pc, r9, asr #28
    936c:	45202c32 	strmi	r2, [r0, #-3122]!	; 0xfffff3ce
    9370:	31495458 	cmpcc	r9, r8, asr r4
    9374:	52495f32 	subpl	r5, r9, #50, 30	; 0xc8
    9378:	55007d51 	strpl	r7, [r0, #-3409]	; 0xfffff2af
    937c:	54524153 	ldrbpl	r4, [r2], #-339	; 0xfffffead
    9380:	52495f32 	subpl	r5, r9, #50, 30	; 0xc8
    9384:	38332051 	ldmdacc	r3!, {r0, r4, r6, sp}
    9388:	6e695000 	cdpvs	0, 6, cr5, cr9, cr0, {0}
    938c:	666e6f43 	strbtvs	r6, [lr], -r3, asr #30
    9390:	41006769 	tstmi	r0, r9, ror #14
    9394:	45324250 	ldrmi	r4, [r2, #-592]!	; 0xfffffdb0
    9398:	4d00524e 	sfmmi	f5, 4, [r0, #-312]	; 0xfffffec8
    939c:	5f4c4143 	svcpl	0x004c4143
    93a0:	4f495047 	svcmi	0x00495047
    93a4:	676f545f 			; <UNDEFINED> instruction: 0x676f545f
    93a8:	50656c67 	rsbpl	r6, r5, r7, ror #24
    93ac:	42006e69 	andmi	r6, r0, #1680	; 0x690
    93b0:	00524344 	subseq	r4, r2, r4, asr #6
    93b4:	4f495047 	svcmi	0x00495047
    93b8:	434d0078 	movtmi	r0, #53368	; 0xd078
    93bc:	475f4c41 	ldrbmi	r4, [pc, -r1, asr #24]
    93c0:	5f4f4950 	svcpl	0x004f4950
    93c4:	64616552 	strbtvs	r6, [r1], #-1362	; 0xfffffaae
    93c8:	006e6950 	rsbeq	r6, lr, r0, asr r9
    93cc:	52474643 	subpl	r4, r7, #70254592	; 0x4300000
    93d0:	41434d00 	cmpmi	r3, r0, lsl #26
    93d4:	50475f4c 	subpl	r5, r7, ip, asr #30
    93d8:	4c5f4f49 	mrrcmi	15, 4, r4, pc, cr9	; <UNPREDICTABLE>
    93dc:	506b636f 	rsbpl	r6, fp, pc, ror #6
    93e0:	50006e69 	andpl	r6, r0, r9, ror #28
    93e4:	5674726f 	ldrbtpl	r7, [r4], -pc, ror #4
    93e8:	65756c61 	ldrbvs	r6, [r5, #-3169]!	; 0xfffff39f
    93ec:	41434d00 	cmpmi	r3, r0, lsl #26
    93f0:	50475f4c 	subpl	r5, r7, ip, asr #30
    93f4:	575f4f49 	ldrbpl	r4, [pc, -r9, asr #30]
    93f8:	65746972 	ldrbvs	r6, [r4, #-2418]!	; 0xfffff68e
    93fc:	006e6950 	rsbeq	r6, lr, r0, asr r9
    9400:	4c41434d 	mcrrmi	3, 4, r4, r1, cr13
    9404:	4950475f 	ldmdbmi	r0, {r0, r1, r2, r3, r4, r6, r8, r9, sl, lr}^
    9408:	4e495f4f 	cdpmi	15, 4, cr5, cr9, cr15, {2}
    940c:	41005449 	tstmi	r0, r9, asr #8
    9410:	52324250 	eorspl	r4, r2, #80, 4
    9414:	00525453 	subseq	r5, r2, r3, asr r4
    9418:	532f2e2e 			; <UNDEFINED> instruction: 0x532f2e2e
    941c:	532f6372 			; <UNDEFINED> instruction: 0x532f6372
    9420:	32334d54 	eorscc	r4, r3, #84, 26	; 0x1500
    9424:	33303146 	teqcc	r0, #-2147483631	; 0x80000011
    9428:	475f3643 	ldrbmi	r3, [pc, -r3, asr #12]
    942c:	5f4f4950 	svcpl	0x004f4950
    9430:	76697244 	strbtvc	r7, [r9], -r4, asr #4
    9434:	632e7265 			; <UNDEFINED> instruction: 0x632e7265
    9438:	4e495000 	cdpmi	0, 4, cr5, cr9, cr0, {0}
    943c:	666e6f43 	strbtvs	r6, [lr], -r3, asr #30
    9440:	41434d00 	cmpmi	r3, r0, lsl #26
    9444:	50475f4c 	subpl	r5, r7, ip, asr #30
    9448:	575f4f49 	ldrbpl	r4, [pc, -r9, asr #30]
    944c:	65746972 	ldrbvs	r6, [r4, #-2418]!	; 0xfffff68e
    9450:	74726f50 	ldrbtvc	r6, [r2], #-3920	; 0xfffff0b0
    9454:	42504100 	subsmi	r4, r0, #0, 2
    9458:	54535231 	ldrbpl	r5, [r3], #-561	; 0xfffffdcf
    945c:	50410052 	subpl	r0, r1, r2, asr r0
    9460:	4e453142 	dvfmism	f3, f5, f2
    9464:	65470052 	strbvs	r0, [r7, #-82]	; 0xffffffae
    9468:	52435f74 	subpl	r5, r3, #116, 30	; 0x1d0
    946c:	505f484c 	subspl	r4, pc, ip, asr #16
    9470:	6974736f 	ldmdbvs	r4!, {r0, r1, r2, r3, r5, r6, r8, r9, ip, sp, lr}^
    9474:	4d006e6f 	stcmi	14, cr6, [r0, #-444]	; 0xfffffe44
    9478:	5f4c4143 	svcpl	0x004c4143
    947c:	4f495047 	svcmi	0x00495047
    9480:	4945445f 	stmdbmi	r5, {r0, r1, r2, r3, r4, r6, sl, lr}^
    9484:	0054494e 	subseq	r4, r4, lr, asr #18
    9488:	5f434352 	svcpl	0x00434352
    948c:	65707954 	ldrbvs	r7, [r0, #-2388]!	; 0xfffff6ac
    9490:	00666544 	rsbeq	r6, r6, r4, asr #10
    9494:	53746942 	cmnpl	r4, #1081344	; 0x108000
    9498:	75746174 	ldrbvc	r6, [r4, #-372]!	; 0xfffffe8c
    949c:	48410073 	stmdami	r1, {r0, r1, r4, r5, r6}^
    94a0:	524e4542 	subpl	r4, lr, #276824064	; 0x10800000
    94a4:	6e6f4300 	cdpvs	3, 6, cr4, cr15, cr0, {0}
    94a8:	5f676966 	svcpl	0x00676966
    94ac:	69676552 	stmdbvs	r7!, {r1, r4, r6, r8, sl, sp, lr}^
    94b0:	72657473 	rsbvc	r7, r5, #1929379840	; 0x73000000
    94b4:	41434d00 	cmpmi	r3, r0, lsl #26
    94b8:	50475f4c 	subpl	r5, r7, ip, asr #30
    94bc:	525f4f49 	subspl	r4, pc, #292	; 0x124
    94c0:	50646165 	rsbpl	r6, r4, r5, ror #2
    94c4:	0074726f 	rsbseq	r7, r4, pc, ror #4
    94c8:	706d6574 	rsbvc	r6, sp, r4, ror r5
    94cc:	706e7500 	rsbvc	r7, lr, r0, lsl #10
    94d0:	69766972 	ldmdbvs	r6!, {r1, r4, r5, r6, r8, fp, sp, lr}^
    94d4:	6567656c 	strbvs	r6, [r7, #-1388]!	; 0xfffffa94
    94d8:	616d0064 	cmnvs	sp, r4, rrx
    94dc:	4c006e69 	stcmi	14, cr6, [r0], {105}	; 0x69
    94e0:	4c455645 	mcrrmi	6, 4, r5, r5, cr5
    94e4:	51524900 	cmppl	r2, r0, lsl #18
    94e8:	616c465f 	cmnvs	ip, pc, asr r6
    94ec:	2e2e0067 	cdpcs	0, 2, cr0, cr14, cr7, {3}
    94f0:	6372532f 	cmnvs	r2, #-1140850688	; 0xbc000000
    94f4:	69616d2f 	stmdbvs	r1!, {r0, r1, r2, r3, r5, r8, sl, fp, sp, lr}^
    94f8:	00632e6e 	rsbeq	r2, r3, lr, ror #28
    94fc:	49545845 	ldmdbmi	r4, {r0, r2, r6, fp, ip, lr}^
    9500:	6e6f435f 	mcrvs	3, 3, r4, cr15, cr15, {2}
    9504:	6c630066 	stclvs	0, cr0, [r3], #-408	; 0xfffffe68
    9508:	6e695f6b 	cdpvs	15, 6, cr5, cr9, cr11, {3}
    950c:	45007469 	strmi	r7, [r0, #-1129]	; 0xfffffb97
    9510:	5f495458 	svcpl	0x00495458
    9514:	6c6c6143 	stfvse	f6, [ip], #-268	; 0xfffffef4
    9518:	6b636142 	blvs	18e1a28 <_Min_Stack_Size+0x18e1628>
    951c:	69775300 	ldmdbvs	r7!, {r8, r9, ip, lr}^
    9520:	5f686374 	svcpl	0x00686374
    9524:	5f555043 	svcpl	0x00555043
    9528:	65636341 	strbvs	r6, [r3, #-833]!	; 0xfffffcbf
    952c:	654c7373 	strbvs	r7, [ip, #-883]	; 0xfffffc8d
    9530:	006c6576 	rsbeq	r6, ip, r6, ror r5
    9534:	532f2e2e 			; <UNDEFINED> instruction: 0x532f2e2e
    9538:	74726174 	ldrbtvc	r6, [r2], #-372	; 0xfffffe8c
    953c:	732f7075 			; <UNDEFINED> instruction: 0x732f7075
    9540:	74726174 	ldrbtvc	r6, [r2], #-372	; 0xfffffe8c
    9544:	735f7075 	cmpvc	pc, #117	; 0x75
    9548:	32336d74 	eorscc	r6, r3, #116, 26	; 0x1d00
    954c:	33303166 	teqcc	r0, #-2147483623	; 0x80000019
    9550:	78743663 	ldmdavc	r4!, {r0, r1, r5, r6, r9, sl, ip, sp}^
    9554:	4700732e 	strmi	r7, [r0, -lr, lsr #6]
    9558:	4120554e 			; <UNDEFINED> instruction: 0x4120554e
    955c:	2e322053 	mrccs	0, 1, r2, cr2, cr3, {2}
    9560:	302e3033 	eorcc	r3, lr, r3, lsr r0
	...

Disassembly of section .comment:

00000000 <.comment>:
   0:	3a434347 	bcc	10d0d24 <_Min_Stack_Size+0x10d0924>
   4:	4e472820 	cdpmi	8, 4, cr2, cr7, cr0, {1}
   8:	6f542055 	svcvs	0x00542055
   c:	20736c6f 	rsbscs	r6, r3, pc, ror #24
  10:	20726f66 	rsbscs	r6, r2, r6, ror #30
  14:	334d5453 	movtcc	r5, #54355	; 0xd453
  18:	2d372032 	ldccs	0, cr2, [r7, #-200]!	; 0xffffff38
  1c:	38313032 	ldmdacc	r1!, {r1, r4, r5, ip, sp}
  20:	2d32712d 	ldfcss	f7, [r2, #-180]!	; 0xffffff4c
  24:	61647075 	smcvs	18181	; 0x4705
  28:	322e6574 	eorcc	r6, lr, #116, 10	; 0x1d000000
  2c:	30393130 	eorscc	r3, r9, r0, lsr r1
  30:	2d383233 	lfmcs	f3, 4, [r8, #-204]!	; 0xffffff34
  34:	30303831 	eorscc	r3, r0, r1, lsr r8
  38:	2e372029 	cdpcs	0, 3, cr2, cr7, cr9, {1}
  3c:	20312e33 	eorscs	r2, r1, r3, lsr lr
  40:	38313032 	ldmdacc	r1!, {r1, r4, r5, ip, sp}
  44:	32323630 	eorscc	r3, r2, #48, 12	; 0x3000000
  48:	65722820 	ldrbvs	r2, [r2, #-2080]!	; 0xfffff7e0
  4c:	7361656c 	cmnvc	r1, #108, 10	; 0x1b000000
  50:	5b202965 	blpl	80a5ec <_Min_Stack_Size+0x80a1ec>
  54:	2f4d5241 	svccs	0x004d5241
  58:	65626d65 	strbvs	r6, [r2, #-3429]!	; 0xfffff29b
  5c:	64656464 	strbtvs	r6, [r5], #-1124	; 0xfffffb9c
  60:	622d372d 	eorvs	r3, sp, #11796480	; 0xb40000
  64:	636e6172 	cmnvs	lr, #-2147483620	; 0x8000001c
  68:	65722068 	ldrbvs	r2, [r2, #-104]!	; 0xffffff98
  6c:	69736976 	ldmdbvs	r3!, {r1, r2, r4, r5, r6, r8, fp, sp, lr}^
  70:	32206e6f 	eorcc	r6, r0, #1776	; 0x6f0
  74:	30393136 	eorscc	r3, r9, r6, lsr r1
  78:	Address 0x0000000000000078 is out of bounds.


Disassembly of section .debug_frame:

00000000 <.debug_frame>:
   0:	0000000c 	andeq	r0, r0, ip
   4:	ffffffff 			; <UNDEFINED> instruction: 0xffffffff
   8:	7c020001 	stcvc	0, cr0, [r2], {1}
   c:	000d0c0e 	andeq	r0, sp, lr, lsl #24
  10:	00000024 	andeq	r0, r0, r4, lsr #32
  14:	00000000 	andeq	r0, r0, r0
  18:	08000170 	stmdaeq	r0, {r4, r5, r6, r8}
  1c:	000000cc 	andeq	r0, r0, ip, asr #1
  20:	87040e41 	strhi	r0, [r4, -r1, asr #28]
  24:	100e4101 	andne	r4, lr, r1, lsl #2
  28:	02070d41 	andeq	r0, r7, #4160	; 0x1040
  2c:	41040e5c 	tstmi	r4, ip, asr lr
  30:	c7410d0d 	strbgt	r0, [r1, -sp, lsl #26]
  34:	0000000e 	andeq	r0, r0, lr
  38:	00000024 	andeq	r0, r0, r4, lsr #32
  3c:	00000000 	andeq	r0, r0, r0
  40:	0800023c 	stmdaeq	r0, {r2, r3, r4, r5, r9}
  44:	000000cc 	andeq	r0, r0, ip, asr #1
  48:	87040e41 	strhi	r0, [r4, -r1, asr #28]
  4c:	100e4101 	andne	r4, lr, r1, lsl #2
  50:	02070d41 	andeq	r0, r7, #4160	; 0x1040
  54:	41040e5c 	tstmi	r4, ip, asr lr
  58:	c7410d0d 	strbgt	r0, [r1, -sp, lsl #26]
  5c:	0000000e 	andeq	r0, r0, lr
  60:	00000020 	andeq	r0, r0, r0, lsr #32
  64:	00000000 	andeq	r0, r0, r0
  68:	08000308 	stmdaeq	r0, {r3, r8, r9}
  6c:	000001dc 	ldrdeq	r0, [r0], -ip
  70:	87080e41 	strhi	r0, [r8, -r1, asr #28]
  74:	41018e02 	tstmi	r1, r2, lsl #28
  78:	0d41180e 	stcleq	8, cr1, [r1, #-56]	; 0xffffffc8
  7c:	0eda0207 	cdpeq	2, 13, cr0, cr10, cr7, {0}
  80:	0d0d4108 	stfeqs	f4, [sp, #-32]	; 0xffffffe0
  84:	0000001c 	andeq	r0, r0, ip, lsl r0
	...
  90:	00000094 	muleq	r0, r4, r0
  94:	87040e41 	strhi	r0, [r4, -r1, asr #28]
  98:	070d4101 	streq	r4, [sp, -r1, lsl #2]
  9c:	410d0d7f 	tstmi	sp, pc, ror sp
  a0:	00000ec7 	andeq	r0, r0, r7, asr #29
  a4:	00000020 	andeq	r0, r0, r0, lsr #32
  a8:	00000000 	andeq	r0, r0, r0
  ac:	080004e4 	stmdaeq	r0, {r2, r5, r6, r7, sl}
  b0:	00000016 	andeq	r0, r0, r6, lsl r0
  b4:	87080e41 	strhi	r0, [r8, -r1, asr #28]
  b8:	41018e02 	tstmi	r1, r2, lsl #28
  bc:	0d41100e 	stcleq	0, cr1, [r1, #-56]	; 0xffffffc8
  c0:	080e4607 	stmdaeq	lr, {r0, r1, r2, r9, sl, lr}
  c4:	000d0d41 	andeq	r0, sp, r1, asr #26
  c8:	00000020 	andeq	r0, r0, r0, lsr #32
	...
  d4:	00000016 	andeq	r0, r0, r6, lsl r0
  d8:	87080e41 	strhi	r0, [r8, -r1, asr #28]
  dc:	41018e02 	tstmi	r1, r2, lsl #28
  e0:	0d41100e 	stcleq	0, cr1, [r1, #-56]	; 0xffffffc8
  e4:	080e4607 	stmdaeq	lr, {r0, r1, r2, r9, sl, lr}
  e8:	000d0d41 	andeq	r0, sp, r1, asr #26
  ec:	00000018 	andeq	r0, r0, r8, lsl r0
  f0:	00000000 	andeq	r0, r0, r0
  f4:	080004fc 	stmdaeq	r0, {r2, r3, r4, r5, r6, r7, sl}
  f8:	00000024 	andeq	r0, r0, r4, lsr #32
  fc:	87080e41 	strhi	r0, [r8, -r1, asr #28]
 100:	41018e02 	tstmi	r1, r2, lsl #28
 104:	0000070d 	andeq	r0, r0, sp, lsl #14
 108:	00000018 	andeq	r0, r0, r8, lsl r0
 10c:	00000000 	andeq	r0, r0, r0
 110:	08000520 	stmdaeq	r0, {r5, r8, sl}
 114:	00000024 	andeq	r0, r0, r4, lsr #32
 118:	87080e41 	strhi	r0, [r8, -r1, asr #28]
 11c:	41018e02 	tstmi	r1, r2, lsl #28
 120:	0000070d 	andeq	r0, r0, sp, lsl #14
 124:	00000018 	andeq	r0, r0, r8, lsl r0
 128:	00000000 	andeq	r0, r0, r0
 12c:	08000544 	stmdaeq	r0, {r2, r6, r8, sl}
 130:	00000024 	andeq	r0, r0, r4, lsr #32
 134:	87080e41 	strhi	r0, [r8, -r1, asr #28]
 138:	41018e02 	tstmi	r1, r2, lsl #28
 13c:	0000070d 	andeq	r0, r0, sp, lsl #14
 140:	00000018 	andeq	r0, r0, r8, lsl r0
 144:	00000000 	andeq	r0, r0, r0
 148:	08000568 	stmdaeq	r0, {r3, r5, r6, r8, sl}
 14c:	00000024 	andeq	r0, r0, r4, lsr #32
 150:	87080e41 	strhi	r0, [r8, -r1, asr #28]
 154:	41018e02 	tstmi	r1, r2, lsl #28
 158:	0000070d 	andeq	r0, r0, sp, lsl #14
 15c:	00000018 	andeq	r0, r0, r8, lsl r0
 160:	00000000 	andeq	r0, r0, r0
 164:	0800058c 	stmdaeq	r0, {r2, r3, r7, r8, sl}
 168:	00000024 	andeq	r0, r0, r4, lsr #32
 16c:	87080e41 	strhi	r0, [r8, -r1, asr #28]
 170:	41018e02 	tstmi	r1, r2, lsl #28
 174:	0000070d 	andeq	r0, r0, sp, lsl #14
 178:	00000018 	andeq	r0, r0, r8, lsl r0
 17c:	00000000 	andeq	r0, r0, r0
 180:	080005b0 	stmdaeq	r0, {r4, r5, r7, r8, sl}
 184:	000000bc 	strheq	r0, [r0], -ip
 188:	87080e41 	strhi	r0, [r8, -r1, asr #28]
 18c:	41018e02 	tstmi	r1, r2, lsl #28
 190:	0000070d 	andeq	r0, r0, sp, lsl #14
 194:	00000018 	andeq	r0, r0, r8, lsl r0
 198:	00000000 	andeq	r0, r0, r0
 19c:	0800066c 	stmdaeq	r0, {r2, r3, r5, r6, r9, sl}
 1a0:	000000dc 	ldrdeq	r0, [r0], -ip
 1a4:	87080e41 	strhi	r0, [r8, -r1, asr #28]
 1a8:	41018e02 	tstmi	r1, r2, lsl #28
 1ac:	0000070d 	andeq	r0, r0, sp, lsl #14
 1b0:	0000000c 	andeq	r0, r0, ip
 1b4:	ffffffff 			; <UNDEFINED> instruction: 0xffffffff
 1b8:	7c020001 	stcvc	0, cr0, [r2], {1}
 1bc:	000d0c0e 	andeq	r0, sp, lr, lsl #24
 1c0:	00000024 	andeq	r0, r0, r4, lsr #32
 1c4:	000001b0 			; <UNDEFINED> instruction: 0x000001b0
 1c8:	08000748 	stmdaeq	r0, {r3, r6, r8, r9, sl}
 1cc:	000000c6 	andeq	r0, r0, r6, asr #1
 1d0:	87040e41 	strhi	r0, [r4, -r1, asr #28]
 1d4:	100e4101 	andne	r4, lr, r1, lsl #2
 1d8:	02070d41 	andeq	r0, r7, #4160	; 0x1040
 1dc:	41040e5d 	tstmi	r4, sp, asr lr
 1e0:	c7410d0d 	strbgt	r0, [r1, -sp, lsl #26]
 1e4:	0000000e 	andeq	r0, r0, lr
 1e8:	00000024 	andeq	r0, r0, r4, lsr #32
 1ec:	000001b0 			; <UNDEFINED> instruction: 0x000001b0
 1f0:	0800080e 	stmdaeq	r0, {r1, r2, r3, fp}
 1f4:	000000fe 	strdeq	r0, [r0], -lr
 1f8:	840c0e41 	strhi	r0, [ip], #-3649	; 0xfffff1bf
 1fc:	8e028703 	cdphi	7, 0, cr8, cr2, cr3, {0}
 200:	200e4101 	andcs	r4, lr, r1, lsl #2
 204:	02070d41 	andeq	r0, r7, #4160	; 0x1040
 208:	410c0e7a 	tstmi	ip, sl, ror lr
 20c:	00000d0d 	andeq	r0, r0, sp, lsl #26
 210:	00000024 	andeq	r0, r0, r4, lsr #32
 214:	000001b0 			; <UNDEFINED> instruction: 0x000001b0
 218:	00000000 	andeq	r0, r0, r0
 21c:	000000ac 	andeq	r0, r0, ip, lsr #1
 220:	87040e41 	strhi	r0, [r4, -r1, asr #28]
 224:	100e4101 	andne	r4, lr, r1, lsl #2
 228:	02070d41 	andeq	r0, r7, #4160	; 0x1040
 22c:	41040e46 	tstmi	r4, r6, asr #28
 230:	c7410d0d 	strbgt	r0, [r1, -sp, lsl #26]
 234:	0000000e 	andeq	r0, r0, lr
 238:	00000024 	andeq	r0, r0, r4, lsr #32
 23c:	000001b0 			; <UNDEFINED> instruction: 0x000001b0
 240:	00000000 	andeq	r0, r0, r0
 244:	0000002e 	andeq	r0, r0, lr, lsr #32
 248:	87040e41 	strhi	r0, [r4, -r1, asr #28]
 24c:	180e4101 	stmdane	lr, {r0, r8, lr}
 250:	51070d41 	tstpl	r7, r1, asr #26
 254:	0d41040e 	cfstrdeq	mvd0, [r1, #-56]	; 0xffffffc8
 258:	0ec7410d 	poleqs	f4, f7, #5.0
 25c:	00000000 	andeq	r0, r0, r0
 260:	00000024 	andeq	r0, r0, r4, lsr #32
 264:	000001b0 			; <UNDEFINED> instruction: 0x000001b0
 268:	00000000 	andeq	r0, r0, r0
 26c:	0000001a 	andeq	r0, r0, sl, lsl r0
 270:	87040e41 	strhi	r0, [r4, -r1, asr #28]
 274:	180e4101 	stmdane	lr, {r0, r8, lr}
 278:	47070d41 	strmi	r0, [r7, -r1, asr #26]
 27c:	0d41040e 	cfstrdeq	mvd0, [r1, #-56]	; 0xffffffc8
 280:	0ec7410d 	poleqs	f4, f7, #5.0
 284:	00000000 	andeq	r0, r0, r0
 288:	00000024 	andeq	r0, r0, r4, lsr #32
 28c:	000001b0 			; <UNDEFINED> instruction: 0x000001b0
 290:	00000000 	andeq	r0, r0, r0
 294:	0000003c 	andeq	r0, r0, ip, lsr r0
 298:	87040e41 	strhi	r0, [r4, -r1, asr #28]
 29c:	100e4101 	andne	r4, lr, r1, lsl #2
 2a0:	58070d41 	stmdapl	r7, {r0, r6, r8, sl, fp}
 2a4:	0d41040e 	cfstrdeq	mvd0, [r1, #-56]	; 0xffffffc8
 2a8:	0ec7410d 	poleqs	f4, f7, #5.0
 2ac:	00000000 	andeq	r0, r0, r0
 2b0:	00000024 	andeq	r0, r0, r4, lsr #32
 2b4:	000001b0 			; <UNDEFINED> instruction: 0x000001b0
 2b8:	00000000 	andeq	r0, r0, r0
 2bc:	0000001c 	andeq	r0, r0, ip, lsl r0
 2c0:	87040e41 	strhi	r0, [r4, -r1, asr #28]
 2c4:	100e4101 	andne	r4, lr, r1, lsl #2
 2c8:	48070d41 	stmdami	r7, {r0, r6, r8, sl, fp}
 2cc:	0d41040e 	cfstrdeq	mvd0, [r1, #-56]	; 0xffffffc8
 2d0:	0ec7410d 	poleqs	f4, f7, #5.0
 2d4:	00000000 	andeq	r0, r0, r0
 2d8:	00000024 	andeq	r0, r0, r4, lsr #32
 2dc:	000001b0 			; <UNDEFINED> instruction: 0x000001b0
 2e0:	00000000 	andeq	r0, r0, r0
 2e4:	00000022 	andeq	r0, r0, r2, lsr #32
 2e8:	87040e41 	strhi	r0, [r4, -r1, asr #28]
 2ec:	100e4101 	andne	r4, lr, r1, lsl #2
 2f0:	4b070d41 	blmi	1c37fc <_Min_Stack_Size+0x1c33fc>
 2f4:	0d41040e 	cfstrdeq	mvd0, [r1, #-56]	; 0xffffffc8
 2f8:	0ec7410d 	poleqs	f4, f7, #5.0
 2fc:	00000000 	andeq	r0, r0, r0
 300:	00000024 	andeq	r0, r0, r4, lsr #32
 304:	000001b0 			; <UNDEFINED> instruction: 0x000001b0
 308:	00000000 	andeq	r0, r0, r0
 30c:	0000005e 	andeq	r0, r0, lr, asr r0
 310:	87040e41 	strhi	r0, [r4, -r1, asr #28]
 314:	180e4101 	stmdane	lr, {r0, r8, lr}
 318:	69070d41 	stmdbvs	r7, {r0, r6, r8, sl, fp}
 31c:	0d41040e 	cfstrdeq	mvd0, [r1, #-56]	; 0xffffffc8
 320:	0ec7410d 	poleqs	f4, f7, #5.0
 324:	00000000 	andeq	r0, r0, r0
 328:	0000000c 	andeq	r0, r0, ip
 32c:	ffffffff 			; <UNDEFINED> instruction: 0xffffffff
 330:	7c020001 	stcvc	0, cr0, [r2], {1}
 334:	000d0c0e 	andeq	r0, sp, lr, lsl #24
 338:	00000024 	andeq	r0, r0, r4, lsr #32
 33c:	00000328 	andeq	r0, r0, r8, lsr #6
 340:	0800090c 	stmdaeq	r0, {r2, r3, r8, fp}
 344:	00000040 	andeq	r0, r0, r0, asr #32
 348:	87040e41 	strhi	r0, [r4, -r1, asr #28]
 34c:	100e4101 	andne	r4, lr, r1, lsl #2
 350:	5a070d41 	bpl	1c385c <_Min_Stack_Size+0x1c345c>
 354:	0d41040e 	cfstrdeq	mvd0, [r1, #-56]	; 0xffffffc8
 358:	0ec7410d 	poleqs	f4, f7, #5.0
 35c:	00000000 	andeq	r0, r0, r0
 360:	0000001c 	andeq	r0, r0, ip, lsl r0
 364:	00000328 	andeq	r0, r0, r8, lsr #6
 368:	0800094c 	stmdaeq	r0, {r2, r3, r6, r8, fp}
 36c:	00000028 	andeq	r0, r0, r8, lsr #32
 370:	87040e41 	strhi	r0, [r4, -r1, asr #28]
 374:	070d4101 	streq	r4, [sp, -r1, lsl #2]
 378:	410d0d4e 	tstmi	sp, lr, asr #26
 37c:	00000ec7 	andeq	r0, r0, r7, asr #29
 380:	00000018 	andeq	r0, r0, r8, lsl r0
 384:	00000328 	andeq	r0, r0, r8, lsr #6
 388:	08000974 	stmdaeq	r0, {r2, r4, r5, r6, r8, fp}
 38c:	00000018 	andeq	r0, r0, r8, lsl r0
 390:	87080e41 	strhi	r0, [r8, -r1, asr #28]
 394:	41018e02 	tstmi	r1, r2, lsl #28
 398:	0000070d 	andeq	r0, r0, sp, lsl #14
 39c:	0000001c 	andeq	r0, r0, ip, lsl r0
 3a0:	00000328 	andeq	r0, r0, r8, lsr #6
 3a4:	0800098c 	stmdaeq	r0, {r2, r3, r7, r8, fp}
 3a8:	00000050 	andeq	r0, r0, r0, asr r0
 3ac:	87080e41 	strhi	r0, [r8, -r1, asr #28]
 3b0:	41018e02 	tstmi	r1, r2, lsl #28
 3b4:	0d41200e 	stcleq	0, cr2, [r1, #-56]	; 0xffffffc8
 3b8:	00000007 	andeq	r0, r0, r7
 3bc:	0000000c 	andeq	r0, r0, ip
 3c0:	ffffffff 			; <UNDEFINED> instruction: 0xffffffff
 3c4:	7c020001 	stcvc	0, cr0, [r2], {1}
 3c8:	000d0c0e 	andeq	r0, sp, lr, lsl #24
 3cc:	00000018 	andeq	r0, r0, r8, lsl r0
 3d0:	000003bc 			; <UNDEFINED> instruction: 0x000003bc
 3d4:	08000a30 	stmdaeq	r0, {r4, r5, r9, fp}
 3d8:	00000048 	andeq	r0, r0, r8, asr #32
 3dc:	84100e41 	ldrhi	r0, [r0], #-3649	; 0xfffff1bf
 3e0:	86038504 	strhi	r8, [r3], -r4, lsl #10
 3e4:	00018e02 	andeq	r8, r1, r2, lsl #28
